; Listing generated by Microsoft (R) Optimizing Compiler Version 19.00.24215.1 

	TITLE	e:\tool\c++incolude\jsoncpp-src-0.5.0\src\lib_json\json_reader.cpp
	.686P
	.XMM
	include listing.inc
	.model	flat


PUBLIC	??_C@_0BC@EOODALEL@Unknown?5exception?$AA@	; `string'
PUBLIC	??_C@_00CNPNBAHC@?$AA@				; `string'
PUBLIC	??_C@_0EC@HCHNIDLM@A?5valid?5JSON?5document?5must?5be?5ei@ ; `string'
PUBLIC	??_C@_0CP@GDDNKEK@Syntax?5error?3?5value?0?5object?5or?5a@ ; `string'
PUBLIC	??_C@_03FFDNHNKN@rue?$AA@			; `string'
PUBLIC	??_C@_04KCECFHEP@alse?$AA@			; `string'
PUBLIC	??_C@_03KNPGGKC@ull?$AA@			; `string'
PUBLIC	??_C@_01EEMJAFIK@?6?$AA@			; `string'
PUBLIC	??_C@_0CF@GCCDMCPH@Missing?5?8?3?8?5after?5object?5member?5@ ; `string'
PUBLIC	??_C@_0CJ@NGKOAFKA@Missing?5?8?0?8?5or?5?8?$HN?8?5in?5object?5dec@ ; `string'
PUBLIC	??_C@_0CC@JNCGHFHN@Missing?5?8?$HN?8?5or?5object?5member?5nam@ ; `string'
PUBLIC	??_C@_0CI@DPCANLPO@Missing?5?8?0?8?5or?5?8?$FN?8?5in?5array?5decl@ ; `string'
PUBLIC	??_C@_0BD@HHNBFDKF@?8?5is?5not?5a?5number?4?$AA@ ; `string'
PUBLIC	??_C@_01GEODFPGF@?8?$AA@			; `string'
PUBLIC	??_C@_03DLDNIBIK@?$CFlf?$AA@			; `string'
PUBLIC	??_C@_0CA@DPGKPPOE@Empty?5escape?5sequence?5in?5string?$AA@ ; `string'
PUBLIC	??_C@_0BO@NDEEJNNB@Bad?5escape?5sequence?5in?5string?$AA@ ; `string'
PUBLIC	??_C@_0EE@LMPEHADE@additional?5six?5characters?5expect@ ; `string'
PUBLIC	??_C@_0FA@BGMMPLKB@expecting?5another?5?2u?5token?5to?5be@ ; `string'
PUBLIC	??_C@_0DN@BPAHJPFJ@Bad?5unicode?5escape?5sequence?5in?5s@ ; `string'
PUBLIC	??_C@_0ED@FIDDECIG@Bad?5unicode?5escape?5sequence?5in?5s@ ; `string'
PUBLIC	??_C@_0BD@LAMGIMLG@Line?5?$CFd?0?5Column?5?$CFd?$AA@ ; `string'
PUBLIC	??_C@_02KAOAMBHJ@?$CK?5?$AA@			; `string'
PUBLIC	??_C@_02KNHHEEKP@?5?5?$AA@			; `string'
PUBLIC	??_C@_0O@JBAGGIKP@?5for?5detail?4?6?$AA@	; `string'
PUBLIC	??_C@_04JBAOJHKB@See?5?$AA@			; `string'
PUBLIC	??_C@_0BC@KBDMBKEH@deque?$DMT?$DO?5too?5long?$AA@ ; `string'
PUBLIC	??_C@_0BA@JFNIOLAK@string?5too?5long?$AA@	; `string'
PUBLIC	??_C@_0BI@CFPLBAOH@invalid?5string?5position?$AA@ ; `string'
PUBLIC	??_R0?AVruntime_error@std@@@8			; std::runtime_error `RTTI Type Descriptor'
PUBLIC	??_R4exception@std@@6B@				; std::exception::`RTTI Complete Object Locator'
PUBLIC	??_R4runtime_error@std@@6B@			; std::runtime_error::`RTTI Complete Object Locator'
PUBLIC	??_R1A@?0A@EA@runtime_error@std@@8		; std::runtime_error::`RTTI Base Class Descriptor at (0,-1,0,64)'
PUBLIC	??_R1A@?0A@EA@exception@std@@8			; std::exception::`RTTI Base Class Descriptor at (0,-1,0,64)'
PUBLIC	?_OptionsStorage@?1??__local_stdio_printf_options@@9@4_KA ; `__local_stdio_printf_options'::`2'::_OptionsStorage
PUBLIC	??_R2exception@std@@8				; std::exception::`RTTI Base Class Array'
PUBLIC	__TI2?AVruntime_error@std@@
PUBLIC	??_7exception@std@@6B@				; std::exception::`vftable'
PUBLIC	__CT??_R0?AVruntime_error@std@@@8??0runtime_error@std@@QAE@ABV01@@Z12
PUBLIC	??_R3exception@std@@8				; std::exception::`RTTI Class Hierarchy Descriptor'
PUBLIC	??_7runtime_error@std@@6B@			; std::runtime_error::`vftable'
PUBLIC	?npos@?$basic_string@DU?$char_traits@D@std@@V?$allocator@D@2@@std@@2IB ; std::basic_string<char,std::char_traits<char>,std::allocator<char> >::npos
PUBLIC	__CT??_R0?AVexception@std@@@8??0exception@std@@QAE@ABV01@@Z12
PUBLIC	__CTA2?AVruntime_error@std@@
PUBLIC	??_R2runtime_error@std@@8			; std::runtime_error::`RTTI Base Class Array'
PUBLIC	?_OptionsStorage@?1??__local_stdio_scanf_options@@9@4_KA ; `__local_stdio_scanf_options'::`2'::_OptionsStorage
PUBLIC	??_R0?AVexception@std@@@8			; std::exception `RTTI Type Descriptor'
PUBLIC	??_R3runtime_error@std@@8			; std::runtime_error::`RTTI Class Hierarchy Descriptor'
EXTRN	__imp_?sgetc@?$basic_streambuf@DU?$char_traits@D@std@@@std@@QAEHXZ:PROC
EXTRN	__imp_?sbumpc@?$basic_streambuf@DU?$char_traits@D@std@@@std@@QAEHXZ:PROC
EXTRN	__imp_?snextc@?$basic_streambuf@DU?$char_traits@D@std@@@std@@QAEHXZ:PROC
EXTRN	__imp_?rdbuf@?$basic_ios@DU?$char_traits@D@std@@@std@@QBEPAV?$basic_streambuf@DU?$char_traits@D@std@@@2@XZ:PROC
EXTRN	__imp_?setstate@?$basic_ios@DU?$char_traits@D@std@@@std@@QAEXH_N@Z:PROC
EXTRN	__imp_?_Ipfx@?$basic_istream@DU?$char_traits@D@std@@@std@@QAE_N_N@Z:PROC
EXTRN	__imp___invalid_parameter_noinfo_noreturn:PROC
EXTRN	__imp____stdio_common_vsscanf:PROC
EXTRN	??_7type_info@@6B@:QWORD			; type_info::`vftable'
EXTRN	__imp____std_terminate:PROC
EXTRN	__imp____stdio_common_vsprintf:PROC
EXTRN	??3@YAXPAXI@Z:PROC				; operator delete
EXTRN	??3@YAXPAX@Z:PROC				; operator delete
EXTRN	__imp____std_exception_copy:PROC
EXTRN	__imp_?_Xlength_error@std@@YAXPBD@Z:PROC
EXTRN	__imp_?_Xout_of_range@std@@YAXPBD@Z:PROC
EXTRN	__imp_?_Xbad_alloc@std@@YAXXZ:PROC
EXTRN	??2@YAPAXI@Z:PROC				; operator new
EXTRN	___report_rangecheckfailure:PROC
EXTRN	__imp__memmove:PROC
EXTRN	__imp____std_exception_destroy:PROC
EXTRN	@__security_check_cookie@4:PROC
;	COMDAT ?_OptionsStorage@?1??__local_stdio_printf_options@@9@4_KA
_BSS	SEGMENT
?_OptionsStorage@?1??__local_stdio_printf_options@@9@4_KA DQ 01H DUP (?) ; `__local_stdio_printf_options'::`2'::_OptionsStorage
_BSS	ENDS
;	COMDAT ?_OptionsStorage@?1??__local_stdio_scanf_options@@9@4_KA
_BSS	SEGMENT
?_OptionsStorage@?1??__local_stdio_scanf_options@@9@4_KA DQ 01H DUP (?) ; `__local_stdio_scanf_options'::`2'::_OptionsStorage
_BSS	ENDS
CONST	ENDS
;	COMDAT ??_R3runtime_error@std@@8
rdata$r	SEGMENT
??_R3runtime_error@std@@8 DD 00H			; std::runtime_error::`RTTI Class Hierarchy Descriptor'
	DD	00H
	DD	02H
	DD	FLAT:??_R2runtime_error@std@@8
rdata$r	ENDS
;	COMDAT ??_R0?AVexception@std@@@8
data$r	SEGMENT
??_R0?AVexception@std@@@8 DD FLAT:??_7type_info@@6B@	; std::exception `RTTI Type Descriptor'
	DD	00H
	DB	'.?AVexception@std@@', 00H
data$r	ENDS
;	COMDAT ??_R2runtime_error@std@@8
rdata$r	SEGMENT
??_R2runtime_error@std@@8 DD FLAT:??_R1A@?0A@EA@runtime_error@std@@8 ; std::runtime_error::`RTTI Base Class Array'
	DD	FLAT:??_R1A@?0A@EA@exception@std@@8
rdata$r	ENDS
;	COMDAT __CTA2?AVruntime_error@std@@
xdata$x	SEGMENT
__CTA2?AVruntime_error@std@@ DD 02H
	DD	FLAT:__CT??_R0?AVruntime_error@std@@@8??0runtime_error@std@@QAE@ABV01@@Z12
	DD	FLAT:__CT??_R0?AVexception@std@@@8??0exception@std@@QAE@ABV01@@Z12
xdata$x	ENDS
;	COMDAT __CT??_R0?AVexception@std@@@8??0exception@std@@QAE@ABV01@@Z12
xdata$x	SEGMENT
__CT??_R0?AVexception@std@@@8??0exception@std@@QAE@ABV01@@Z12 DD 00H
	DD	FLAT:??_R0?AVexception@std@@@8
	DD	00H
	DD	0ffffffffH
	ORG $+4
	DD	0cH
	DD	FLAT:??0exception@std@@QAE@ABV01@@Z
xdata$x	ENDS
;	COMDAT ?npos@?$basic_string@DU?$char_traits@D@std@@V?$allocator@D@2@@std@@2IB
CONST	SEGMENT
?npos@?$basic_string@DU?$char_traits@D@std@@V?$allocator@D@2@@std@@2IB DD 0ffffffffH ; std::basic_string<char,std::char_traits<char>,std::allocator<char> >::npos
CONST	ENDS
;	COMDAT ??_7runtime_error@std@@6B@
CONST	SEGMENT
??_7runtime_error@std@@6B@ DD FLAT:??_R4runtime_error@std@@6B@ ; std::runtime_error::`vftable'
	DD	FLAT:??_Eruntime_error@std@@UAEPAXI@Z
	DD	FLAT:?what@exception@std@@UBEPBDXZ
CONST	ENDS
;	COMDAT ??_R3exception@std@@8
rdata$r	SEGMENT
??_R3exception@std@@8 DD 00H				; std::exception::`RTTI Class Hierarchy Descriptor'
	DD	00H
	DD	01H
	DD	FLAT:??_R2exception@std@@8
rdata$r	ENDS
;	COMDAT __CT??_R0?AVruntime_error@std@@@8??0runtime_error@std@@QAE@ABV01@@Z12
xdata$x	SEGMENT
__CT??_R0?AVruntime_error@std@@@8??0runtime_error@std@@QAE@ABV01@@Z12 DD 00H
	DD	FLAT:??_R0?AVruntime_error@std@@@8
	DD	00H
	DD	0ffffffffH
	ORG $+4
	DD	0cH
	DD	FLAT:??0runtime_error@std@@QAE@ABV01@@Z
xdata$x	ENDS
;	COMDAT ??_7exception@std@@6B@
CONST	SEGMENT
??_7exception@std@@6B@ DD FLAT:??_R4exception@std@@6B@	; std::exception::`vftable'
	DD	FLAT:??_Eexception@std@@UAEPAXI@Z
	DD	FLAT:?what@exception@std@@UBEPBDXZ
CONST	ENDS
;	COMDAT __TI2?AVruntime_error@std@@
xdata$x	SEGMENT
__TI2?AVruntime_error@std@@ DD 00H
	DD	FLAT:??1runtime_error@std@@UAE@XZ
	DD	00H
	DD	FLAT:__CTA2?AVruntime_error@std@@
xdata$x	ENDS
;	COMDAT ??_R2exception@std@@8
rdata$r	SEGMENT
??_R2exception@std@@8 DD FLAT:??_R1A@?0A@EA@exception@std@@8 ; std::exception::`RTTI Base Class Array'
rdata$r	ENDS
;	COMDAT ??_R1A@?0A@EA@exception@std@@8
rdata$r	SEGMENT
??_R1A@?0A@EA@exception@std@@8 DD FLAT:??_R0?AVexception@std@@@8 ; std::exception::`RTTI Base Class Descriptor at (0,-1,0,64)'
	DD	00H
	DD	00H
	DD	0ffffffffH
	DD	00H
	DD	040H
	DD	FLAT:??_R3exception@std@@8
rdata$r	ENDS
;	COMDAT ??_R1A@?0A@EA@runtime_error@std@@8
rdata$r	SEGMENT
??_R1A@?0A@EA@runtime_error@std@@8 DD FLAT:??_R0?AVruntime_error@std@@@8 ; std::runtime_error::`RTTI Base Class Descriptor at (0,-1,0,64)'
	DD	01H
	DD	00H
	DD	0ffffffffH
	DD	00H
	DD	040H
	DD	FLAT:??_R3runtime_error@std@@8
rdata$r	ENDS
;	COMDAT ??_R4runtime_error@std@@6B@
rdata$r	SEGMENT
??_R4runtime_error@std@@6B@ DD 00H			; std::runtime_error::`RTTI Complete Object Locator'
	DD	00H
	DD	00H
	DD	FLAT:??_R0?AVruntime_error@std@@@8
	DD	FLAT:??_R3runtime_error@std@@8
rdata$r	ENDS
;	COMDAT ??_R4exception@std@@6B@
rdata$r	SEGMENT
??_R4exception@std@@6B@ DD 00H				; std::exception::`RTTI Complete Object Locator'
	DD	00H
	DD	00H
	DD	FLAT:??_R0?AVexception@std@@@8
	DD	FLAT:??_R3exception@std@@8
rdata$r	ENDS
;	COMDAT ??_R0?AVruntime_error@std@@@8
data$r	SEGMENT
??_R0?AVruntime_error@std@@@8 DD FLAT:??_7type_info@@6B@ ; std::runtime_error `RTTI Type Descriptor'
	DD	00H
	DB	'.?AVruntime_error@std@@', 00H
data$r	ENDS
;	COMDAT ??_C@_0BI@CFPLBAOH@invalid?5string?5position?$AA@
CONST	SEGMENT
??_C@_0BI@CFPLBAOH@invalid?5string?5position?$AA@ DB 'invalid string posi'
	DB	'tion', 00H					; `string'
CONST	ENDS
;	COMDAT ??_C@_0BA@JFNIOLAK@string?5too?5long?$AA@
CONST	SEGMENT
??_C@_0BA@JFNIOLAK@string?5too?5long?$AA@ DB 'string too long', 00H ; `string'
CONST	ENDS
;	COMDAT ??_C@_0BC@KBDMBKEH@deque?$DMT?$DO?5too?5long?$AA@
CONST	SEGMENT
??_C@_0BC@KBDMBKEH@deque?$DMT?$DO?5too?5long?$AA@ DB 'deque<T> too long', 00H ; `string'
CONST	ENDS
;	COMDAT ??_C@_04JBAOJHKB@See?5?$AA@
CONST	SEGMENT
??_C@_04JBAOJHKB@See?5?$AA@ DB 'See ', 00H		; `string'
CONST	ENDS
;	COMDAT ??_C@_0O@JBAGGIKP@?5for?5detail?4?6?$AA@
CONST	SEGMENT
??_C@_0O@JBAGGIKP@?5for?5detail?4?6?$AA@ DB ' for detail.', 0aH, 00H ; `string'
CONST	ENDS
;	COMDAT ??_C@_02KNHHEEKP@?5?5?$AA@
CONST	SEGMENT
??_C@_02KNHHEEKP@?5?5?$AA@ DB '  ', 00H			; `string'
CONST	ENDS
;	COMDAT ??_C@_02KAOAMBHJ@?$CK?5?$AA@
CONST	SEGMENT
??_C@_02KAOAMBHJ@?$CK?5?$AA@ DB '* ', 00H		; `string'
CONST	ENDS
;	COMDAT ??_C@_0BD@LAMGIMLG@Line?5?$CFd?0?5Column?5?$CFd?$AA@
CONST	SEGMENT
??_C@_0BD@LAMGIMLG@Line?5?$CFd?0?5Column?5?$CFd?$AA@ DB 'Line %d, Column '
	DB	'%d', 00H					; `string'
CONST	ENDS
;	COMDAT ??_C@_0ED@FIDDECIG@Bad?5unicode?5escape?5sequence?5in?5s@
CONST	SEGMENT
??_C@_0ED@FIDDECIG@Bad?5unicode?5escape?5sequence?5in?5s@ DB 'Bad unicode'
	DB	' escape sequence in string: hexadecimal digit expected.', 00H ; `string'
CONST	ENDS
;	COMDAT ??_C@_0DN@BPAHJPFJ@Bad?5unicode?5escape?5sequence?5in?5s@
CONST	SEGMENT
??_C@_0DN@BPAHJPFJ@Bad?5unicode?5escape?5sequence?5in?5s@ DB 'Bad unicode'
	DB	' escape sequence in string: four digits expected.', 00H ; `string'
CONST	ENDS
;	COMDAT ??_C@_0FA@BGMMPLKB@expecting?5another?5?2u?5token?5to?5be@
CONST	SEGMENT
??_C@_0FA@BGMMPLKB@expecting?5another?5?2u?5token?5to?5be@ DB 'expecting '
	DB	'another \u token to begin the second half of a unicode surrog'
	DB	'ate pair', 00H				; `string'
CONST	ENDS
;	COMDAT ??_C@_0EE@LMPEHADE@additional?5six?5characters?5expect@
CONST	SEGMENT
??_C@_0EE@LMPEHADE@additional?5six?5characters?5expect@ DB 'additional si'
	DB	'x characters expected to parse unicode surrogate pair.', 00H ; `string'
CONST	ENDS
;	COMDAT ??_C@_0BO@NDEEJNNB@Bad?5escape?5sequence?5in?5string?$AA@
CONST	SEGMENT
??_C@_0BO@NDEEJNNB@Bad?5escape?5sequence?5in?5string?$AA@ DB 'Bad escape '
	DB	'sequence in string', 00H			; `string'
CONST	ENDS
;	COMDAT ??_C@_0CA@DPGKPPOE@Empty?5escape?5sequence?5in?5string?$AA@
CONST	SEGMENT
??_C@_0CA@DPGKPPOE@Empty?5escape?5sequence?5in?5string?$AA@ DB 'Empty esc'
	DB	'ape sequence in string', 00H		; `string'
CONST	ENDS
;	COMDAT ??_C@_03DLDNIBIK@?$CFlf?$AA@
CONST	SEGMENT
??_C@_03DLDNIBIK@?$CFlf?$AA@ DB '%lf', 00H		; `string'
CONST	ENDS
;	COMDAT ??_C@_01GEODFPGF@?8?$AA@
CONST	SEGMENT
??_C@_01GEODFPGF@?8?$AA@ DB '''', 00H			; `string'
CONST	ENDS
;	COMDAT ??_C@_0BD@HHNBFDKF@?8?5is?5not?5a?5number?4?$AA@
CONST	SEGMENT
??_C@_0BD@HHNBFDKF@?8?5is?5not?5a?5number?4?$AA@ DB ''' is not a number.', 00H ; `string'
CONST	ENDS
;	COMDAT ??_C@_0CI@DPCANLPO@Missing?5?8?0?8?5or?5?8?$FN?8?5in?5array?5decl@
CONST	SEGMENT
??_C@_0CI@DPCANLPO@Missing?5?8?0?8?5or?5?8?$FN?8?5in?5array?5decl@ DB 'Mi'
	DB	'ssing '','' or '']'' in array declaration', 00H ; `string'
CONST	ENDS
;	COMDAT ??_C@_0CC@JNCGHFHN@Missing?5?8?$HN?8?5or?5object?5member?5nam@
CONST	SEGMENT
??_C@_0CC@JNCGHFHN@Missing?5?8?$HN?8?5or?5object?5member?5nam@ DB 'Missin'
	DB	'g ''}'' or object member name', 00H		; `string'
CONST	ENDS
;	COMDAT ??_C@_0CJ@NGKOAFKA@Missing?5?8?0?8?5or?5?8?$HN?8?5in?5object?5dec@
CONST	SEGMENT
??_C@_0CJ@NGKOAFKA@Missing?5?8?0?8?5or?5?8?$HN?8?5in?5object?5dec@ DB 'Mi'
	DB	'ssing '','' or ''}'' in object declaration', 00H ; `string'
CONST	ENDS
;	COMDAT ??_C@_0CF@GCCDMCPH@Missing?5?8?3?8?5after?5object?5member?5@
CONST	SEGMENT
??_C@_0CF@GCCDMCPH@Missing?5?8?3?8?5after?5object?5member?5@ DB 'Missing '
	DB	''':'' after object member name', 00H	; `string'
CONST	ENDS
;	COMDAT ??_C@_01EEMJAFIK@?6?$AA@
CONST	SEGMENT
??_C@_01EEMJAFIK@?6?$AA@ DB 0aH, 00H			; `string'
CONST	ENDS
;	COMDAT ??_C@_03KNPGGKC@ull?$AA@
CONST	SEGMENT
??_C@_03KNPGGKC@ull?$AA@ DB 'ull', 00H			; `string'
CONST	ENDS
;	COMDAT ??_C@_04KCECFHEP@alse?$AA@
CONST	SEGMENT
??_C@_04KCECFHEP@alse?$AA@ DB 'alse', 00H		; `string'
CONST	ENDS
;	COMDAT ??_C@_03FFDNHNKN@rue?$AA@
CONST	SEGMENT
??_C@_03FFDNHNKN@rue?$AA@ DB 'rue', 00H			; `string'
CONST	ENDS
;	COMDAT ??_C@_0CP@GDDNKEK@Syntax?5error?3?5value?0?5object?5or?5a@
CONST	SEGMENT
??_C@_0CP@GDDNKEK@Syntax?5error?3?5value?0?5object?5or?5a@ DB 'Syntax err'
	DB	'or: value, object or array expected.', 00H	; `string'
CONST	ENDS
;	COMDAT ??_C@_0EC@HCHNIDLM@A?5valid?5JSON?5document?5must?5be?5ei@
CONST	SEGMENT
??_C@_0EC@HCHNIDLM@A?5valid?5JSON?5document?5must?5be?5ei@ DB 'A valid JS'
	DB	'ON document must be either an array or an object value.', 00H ; `string'
CONST	ENDS
;	COMDAT ??_C@_00CNPNBAHC@?$AA@
CONST	SEGMENT
??_C@_00CNPNBAHC@?$AA@ DB 00H				; `string'
CONST	ENDS
;	COMDAT ??_C@_0BC@EOODALEL@Unknown?5exception?$AA@
CONST	SEGMENT
??_C@_0BC@EOODALEL@Unknown?5exception?$AA@ DB 'Unknown exception', 00H ; `string'
CONST	ENDS
PUBLIC	??0ErrorInfo@Reader@Json@@QAE@$$QAV012@@Z	; Json::Reader::ErrorInfo::ErrorInfo
PUBLIC	??4ErrorInfo@Reader@Json@@QAEAAV012@ABV012@@Z	; Json::Reader::ErrorInfo::operator=
PUBLIC	??$_Move_unchecked1@V?$_Deque_unchecked_iterator@V?$_Deque_val@U?$_Deque_simple_types@PAVValue@Json@@@std@@@std@@@std@@V12@@std@@YA?AV?$_Deque_unchecked_iterator@V?$_Deque_val@U?$_Deque_simple_types@PAVValue@Json@@@std@@@std@@@0@V10@00U_General_ptr_iterator_tag@0@@Z ; std::_Move_unchecked1<std::_Deque_unchecked_iterator<std::_Deque_val<std::_Deque_simple_types<Json::Value *> > >,std::_Deque_unchecked_iterator<std::_Deque_val<std::_Deque_simple_types<Json::Value *> > > >
PUBLIC	??$_Move_unchecked1@V?$_Deque_unchecked_iterator@V?$_Deque_val@U?$_Deque_simple_types@VErrorInfo@Reader@Json@@@std@@@std@@@std@@V12@@std@@YA?AV?$_Deque_unchecked_iterator@V?$_Deque_val@U?$_Deque_simple_types@VErrorInfo@Reader@Json@@@std@@@std@@@0@V10@00U_General_ptr_iterator_tag@0@@Z ; std::_Move_unchecked1<std::_Deque_unchecked_iterator<std::_Deque_val<std::_Deque_simple_types<Json::Reader::ErrorInfo> > >,std::_Deque_unchecked_iterator<std::_Deque_val<std::_Deque_simple_types<Json::Reader::ErrorInfo> > > >
PUBLIC	??$move@AAVErrorInfo@Reader@Json@@@std@@YA$$QAVErrorInfo@Reader@Json@@AAV123@@Z ; std::move<Json::Reader::ErrorInfo &>
PUBLIC	??$swap@PAVValue@Json@@X@std@@YAXAAPAVValue@Json@@0@Z ; std::swap<Json::Value *,void>
PUBLIC	??$_Copy_unchecked1@V?$_Deque_unchecked_const_iterator@V?$_Deque_val@U?$_Deque_simple_types@PAVValue@Json@@@std@@@std@@@std@@V?$_Deque_unchecked_iterator@V?$_Deque_val@U?$_Deque_simple_types@PAVValue@Json@@@std@@@std@@@2@@std@@YA?AV?$_Deque_unchecked_iterator@V?$_Deque_val@U?$_Deque_simple_types@PAVValue@Json@@@std@@@std@@@0@V?$_Deque_unchecked_const_iterator@V?$_Deque_val@U?$_Deque_simple_types@PAVValue@Json@@@std@@@std@@@0@0V10@U_General_ptr_iterator_tag@0@@Z ; std::_Copy_unchecked1<std::_Deque_unchecked_const_iterator<std::_Deque_val<std::_Deque_simple_types<Json::Value *> > >,std::_Deque_unchecked_iterator<std::_Deque_val<std::_Deque_simple_types<Json::Value *> > > >
PUBLIC	??$_Ptr_copy_cat@V?$_Deque_unchecked_const_iterator@V?$_Deque_val@U?$_Deque_simple_types@PAVValue@Json@@@std@@@std@@@std@@V?$_Deque_unchecked_iterator@V?$_Deque_val@U?$_Deque_simple_types@PAVValue@Json@@@std@@@std@@@2@@std@@YA?AU_General_ptr_iterator_tag@0@ABV?$_Deque_unchecked_const_iterator@V?$_Deque_val@U?$_Deque_simple_types@PAVValue@Json@@@std@@@std@@@0@ABV?$_Deque_unchecked_iterator@V?$_Deque_val@U?$_Deque_simple_types@PAVValue@Json@@@std@@@std@@@0@@Z ; std::_Ptr_copy_cat<std::_Deque_unchecked_const_iterator<std::_Deque_val<std::_Deque_simple_types<Json::Value *> > >,std::_Deque_unchecked_iterator<std::_Deque_val<std::_Deque_simple_types<Json::Value *> > > >
PUBLIC	??$swap@VErrorInfo@Reader@Json@@X@std@@YAXAAVErrorInfo@Reader@Json@@0@Z ; std::swap<Json::Reader::ErrorInfo,void>
PUBLIC	??$_Copy_unchecked1@V?$_Deque_unchecked_const_iterator@V?$_Deque_val@U?$_Deque_simple_types@VErrorInfo@Reader@Json@@@std@@@std@@@std@@V?$_Deque_unchecked_iterator@V?$_Deque_val@U?$_Deque_simple_types@VErrorInfo@Reader@Json@@@std@@@std@@@2@@std@@YA?AV?$_Deque_unchecked_iterator@V?$_Deque_val@U?$_Deque_simple_types@VErrorInfo@Reader@Json@@@std@@@std@@@0@V?$_Deque_unchecked_const_iterator@V?$_Deque_val@U?$_Deque_simple_types@VErrorInfo@Reader@Json@@@std@@@std@@@0@0V10@U_General_ptr_iterator_tag@0@@Z ; std::_Copy_unchecked1<std::_Deque_unchecked_const_iterator<std::_Deque_val<std::_Deque_simple_types<Json::Reader::ErrorInfo> > >,std::_Deque_unchecked_iterator<std::_Deque_val<std::_Deque_simple_types<Json::Reader::ErrorInfo> > > >
PUBLIC	??$_Ptr_copy_cat@V?$_Deque_unchecked_const_iterator@V?$_Deque_val@U?$_Deque_simple_types@VErrorInfo@Reader@Json@@@std@@@std@@@std@@V?$_Deque_unchecked_iterator@V?$_Deque_val@U?$_Deque_simple_types@VErrorInfo@Reader@Json@@@std@@@std@@@2@@std@@YA?AU_General_ptr_iterator_tag@0@ABV?$_Deque_unchecked_const_iterator@V?$_Deque_val@U?$_Deque_simple_types@VErrorInfo@Reader@Json@@@std@@@std@@@0@ABV?$_Deque_unchecked_iterator@V?$_Deque_val@U?$_Deque_simple_types@VErrorInfo@Reader@Json@@@std@@@std@@@0@@Z ; std::_Ptr_copy_cat<std::_Deque_unchecked_const_iterator<std::_Deque_val<std::_Deque_simple_types<Json::Reader::ErrorInfo> > >,std::_Deque_unchecked_iterator<std::_Deque_val<std::_Deque_simple_types<Json::Reader::ErrorInfo> > > >
PUBLIC	??Y?$_Deque_unchecked_const_iterator@V?$_Deque_val@U?$_Deque_simple_types@VErrorInfo@Reader@Json@@@std@@@std@@@std@@QAEAAV01@H@Z ; std::_Deque_unchecked_const_iterator<std::_Deque_val<std::_Deque_simple_types<Json::Reader::ErrorInfo> > >::operator+=
PUBLIC	??Y?$_Deque_unchecked_const_iterator@V?$_Deque_val@U?$_Deque_simple_types@PAVValue@Json@@@std@@@std@@@std@@QAEAAV01@H@Z ; std::_Deque_unchecked_const_iterator<std::_Deque_val<std::_Deque_simple_types<Json::Value *> > >::operator+=
PUBLIC	??D?$_Deque_unchecked_const_iterator@V?$_Deque_val@U?$_Deque_simple_types@VErrorInfo@Reader@Json@@@std@@@std@@@std@@QBEABVErrorInfo@Reader@Json@@XZ ; std::_Deque_unchecked_const_iterator<std::_Deque_val<std::_Deque_simple_types<Json::Reader::ErrorInfo> > >::operator*
PUBLIC	??G?$_Deque_unchecked_const_iterator@V?$_Deque_val@U?$_Deque_simple_types@VErrorInfo@Reader@Json@@@std@@@std@@@std@@QBEHABV01@@Z ; std::_Deque_unchecked_const_iterator<std::_Deque_val<std::_Deque_simple_types<Json::Reader::ErrorInfo> > >::operator-
PUBLIC	??Y?$_Deque_unchecked_iterator@V?$_Deque_val@U?$_Deque_simple_types@VErrorInfo@Reader@Json@@@std@@@std@@@std@@QAEAAV01@H@Z ; std::_Deque_unchecked_iterator<std::_Deque_val<std::_Deque_simple_types<Json::Reader::ErrorInfo> > >::operator+=
PUBLIC	??D?$_Deque_unchecked_const_iterator@V?$_Deque_val@U?$_Deque_simple_types@PAVValue@Json@@@std@@@std@@@std@@QBEABQAVValue@Json@@XZ ; std::_Deque_unchecked_const_iterator<std::_Deque_val<std::_Deque_simple_types<Json::Value *> > >::operator*
PUBLIC	??G?$_Deque_unchecked_const_iterator@V?$_Deque_val@U?$_Deque_simple_types@PAVValue@Json@@@std@@@std@@@std@@QBEHABV01@@Z ; std::_Deque_unchecked_const_iterator<std::_Deque_val<std::_Deque_simple_types<Json::Value *> > >::operator-
PUBLIC	??Y?$_Deque_unchecked_iterator@V?$_Deque_val@U?$_Deque_simple_types@PAVValue@Json@@@std@@@std@@@std@@QAEAAV01@H@Z ; std::_Deque_unchecked_iterator<std::_Deque_val<std::_Deque_simple_types<Json::Value *> > >::operator+=
PUBLIC	??D?$_Deque_unchecked_iterator@V?$_Deque_val@U?$_Deque_simple_types@VErrorInfo@Reader@Json@@@std@@@std@@@std@@QBEAAVErrorInfo@Reader@Json@@XZ ; std::_Deque_unchecked_iterator<std::_Deque_val<std::_Deque_simple_types<Json::Reader::ErrorInfo> > >::operator*
PUBLIC	??H?$_Deque_unchecked_iterator@V?$_Deque_val@U?$_Deque_simple_types@VErrorInfo@Reader@Json@@@std@@@std@@@std@@QBE?AV01@H@Z ; std::_Deque_unchecked_iterator<std::_Deque_val<std::_Deque_simple_types<Json::Reader::ErrorInfo> > >::operator+
PUBLIC	??G?$_Deque_unchecked_iterator@V?$_Deque_val@U?$_Deque_simple_types@VErrorInfo@Reader@Json@@@std@@@std@@@std@@QBEHABV?$_Deque_unchecked_const_iterator@V?$_Deque_val@U?$_Deque_simple_types@VErrorInfo@Reader@Json@@@std@@@std@@@1@@Z ; std::_Deque_unchecked_iterator<std::_Deque_val<std::_Deque_simple_types<Json::Reader::ErrorInfo> > >::operator-
PUBLIC	??D?$_Deque_unchecked_iterator@V?$_Deque_val@U?$_Deque_simple_types@PAVValue@Json@@@std@@@std@@@std@@QBEAAPAVValue@Json@@XZ ; std::_Deque_unchecked_iterator<std::_Deque_val<std::_Deque_simple_types<Json::Value *> > >::operator*
PUBLIC	??H?$_Deque_unchecked_iterator@V?$_Deque_val@U?$_Deque_simple_types@PAVValue@Json@@@std@@@std@@@std@@QBE?AV01@H@Z ; std::_Deque_unchecked_iterator<std::_Deque_val<std::_Deque_simple_types<Json::Value *> > >::operator+
PUBLIC	??G?$_Deque_unchecked_iterator@V?$_Deque_val@U?$_Deque_simple_types@PAVValue@Json@@@std@@@std@@@std@@QBEHABV?$_Deque_unchecked_const_iterator@V?$_Deque_val@U?$_Deque_simple_types@PAVValue@Json@@@std@@@std@@@1@@Z ; std::_Deque_unchecked_iterator<std::_Deque_val<std::_Deque_simple_types<Json::Value *> > >::operator-
PUBLIC	??4ErrorInfo@Reader@Json@@QAEAAV012@$$QAV012@@Z	; Json::Reader::ErrorInfo::operator=
PUBLIC	??$construct@PAVValue@Json@@ABQAV12@@?$allocator@PAVValue@Json@@@std@@QAEXPAPAVValue@Json@@ABQAV23@@Z ; std::allocator<Json::Value *>::construct<Json::Value *,Json::Value * const &>
PUBLIC	??$_Move_unchecked@V?$_Deque_unchecked_iterator@V?$_Deque_val@U?$_Deque_simple_types@PAVValue@Json@@@std@@@std@@@std@@V12@@std@@YA?AV?$_Deque_unchecked_iterator@V?$_Deque_val@U?$_Deque_simple_types@PAVValue@Json@@@std@@@std@@@0@V10@00@Z ; std::_Move_unchecked<std::_Deque_unchecked_iterator<std::_Deque_val<std::_Deque_simple_types<Json::Value *> > >,std::_Deque_unchecked_iterator<std::_Deque_val<std::_Deque_simple_types<Json::Value *> > > >
PUBLIC	??$_Move_backward_unchecked1@V?$_Deque_unchecked_iterator@V?$_Deque_val@U?$_Deque_simple_types@PAVValue@Json@@@std@@@std@@@std@@V12@@std@@YA?AV?$_Deque_unchecked_iterator@V?$_Deque_val@U?$_Deque_simple_types@PAVValue@Json@@@std@@@std@@@0@V10@00U_General_ptr_iterator_tag@0@@Z ; std::_Move_backward_unchecked1<std::_Deque_unchecked_iterator<std::_Deque_val<std::_Deque_simple_types<Json::Value *> > >,std::_Deque_unchecked_iterator<std::_Deque_val<std::_Deque_simple_types<Json::Value *> > > >
PUBLIC	??$_Ptr_move_cat@V?$_Deque_unchecked_iterator@V?$_Deque_val@U?$_Deque_simple_types@PAVValue@Json@@@std@@@std@@@std@@V12@@std@@YA?AU_General_ptr_iterator_tag@0@ABV?$_Deque_unchecked_iterator@V?$_Deque_val@U?$_Deque_simple_types@PAVValue@Json@@@std@@@std@@@0@0@Z ; std::_Ptr_move_cat<std::_Deque_unchecked_iterator<std::_Deque_val<std::_Deque_simple_types<Json::Value *> > >,std::_Deque_unchecked_iterator<std::_Deque_val<std::_Deque_simple_types<Json::Value *> > > >
PUBLIC	??$_Copy_memmove@PAPAPAVValue@Json@@PAPAPAV12@@std@@YAPAPAPAVValue@Json@@PAPAPAV12@00@Z ; std::_Copy_memmove<Json::Value * * *,Json::Value * * *>
PUBLIC	??$_Move_unchecked@V?$_Deque_unchecked_iterator@V?$_Deque_val@U?$_Deque_simple_types@VErrorInfo@Reader@Json@@@std@@@std@@@std@@V12@@std@@YA?AV?$_Deque_unchecked_iterator@V?$_Deque_val@U?$_Deque_simple_types@VErrorInfo@Reader@Json@@@std@@@std@@@0@V10@00@Z ; std::_Move_unchecked<std::_Deque_unchecked_iterator<std::_Deque_val<std::_Deque_simple_types<Json::Reader::ErrorInfo> > >,std::_Deque_unchecked_iterator<std::_Deque_val<std::_Deque_simple_types<Json::Reader::ErrorInfo> > > >
PUBLIC	??$_Move_backward_unchecked1@V?$_Deque_unchecked_iterator@V?$_Deque_val@U?$_Deque_simple_types@VErrorInfo@Reader@Json@@@std@@@std@@@std@@V12@@std@@YA?AV?$_Deque_unchecked_iterator@V?$_Deque_val@U?$_Deque_simple_types@VErrorInfo@Reader@Json@@@std@@@std@@@0@V10@00U_General_ptr_iterator_tag@0@@Z ; std::_Move_backward_unchecked1<std::_Deque_unchecked_iterator<std::_Deque_val<std::_Deque_simple_types<Json::Reader::ErrorInfo> > >,std::_Deque_unchecked_iterator<std::_Deque_val<std::_Deque_simple_types<Json::Reader::ErrorInfo> > > >
PUBLIC	??$_Ptr_move_cat@V?$_Deque_unchecked_iterator@V?$_Deque_val@U?$_Deque_simple_types@VErrorInfo@Reader@Json@@@std@@@std@@@std@@V12@@std@@YA?AU_General_ptr_iterator_tag@0@ABV?$_Deque_unchecked_iterator@V?$_Deque_val@U?$_Deque_simple_types@VErrorInfo@Reader@Json@@@std@@@std@@@0@0@Z ; std::_Ptr_move_cat<std::_Deque_unchecked_iterator<std::_Deque_val<std::_Deque_simple_types<Json::Reader::ErrorInfo> > >,std::_Deque_unchecked_iterator<std::_Deque_val<std::_Deque_simple_types<Json::Reader::ErrorInfo> > > >
PUBLIC	??$_Copy_memmove@PAPAVErrorInfo@Reader@Json@@PAPAV123@@std@@YAPAPAVErrorInfo@Reader@Json@@PAPAV123@00@Z ; std::_Copy_memmove<Json::Reader::ErrorInfo * *,Json::Reader::ErrorInfo * *>
PUBLIC	??$_Rotate_unchecked1@V?$_Deque_unchecked_iterator@V?$_Deque_val@U?$_Deque_simple_types@PAVValue@Json@@@std@@@std@@@std@@@std@@YA?AV?$_Deque_unchecked_iterator@V?$_Deque_val@U?$_Deque_simple_types@PAVValue@Json@@@std@@@std@@@0@V10@00Urandom_access_iterator_tag@0@@Z ; std::_Rotate_unchecked1<std::_Deque_unchecked_iterator<std::_Deque_val<std::_Deque_simple_types<Json::Value *> > > >
PUBLIC	??$iter_swap@V?$_Deque_unchecked_iterator@V?$_Deque_val@U?$_Deque_simple_types@PAVValue@Json@@@std@@@std@@@std@@V12@@std@@YAXV?$_Deque_unchecked_iterator@V?$_Deque_val@U?$_Deque_simple_types@PAVValue@Json@@@std@@@std@@@0@0@Z ; std::iter_swap<std::_Deque_unchecked_iterator<std::_Deque_val<std::_Deque_simple_types<Json::Value *> > >,std::_Deque_unchecked_iterator<std::_Deque_val<std::_Deque_simple_types<Json::Value *> > > >
PUBLIC	??$_Copy_unchecked@V?$_Deque_unchecked_const_iterator@V?$_Deque_val@U?$_Deque_simple_types@PAVValue@Json@@@std@@@std@@@std@@V?$_Deque_unchecked_iterator@V?$_Deque_val@U?$_Deque_simple_types@PAVValue@Json@@@std@@@std@@@2@@std@@YA?AV?$_Deque_unchecked_iterator@V?$_Deque_val@U?$_Deque_simple_types@PAVValue@Json@@@std@@@std@@@0@V?$_Deque_unchecked_const_iterator@V?$_Deque_val@U?$_Deque_simple_types@PAVValue@Json@@@std@@@std@@@0@0V10@@Z ; std::_Copy_unchecked<std::_Deque_unchecked_const_iterator<std::_Deque_val<std::_Deque_simple_types<Json::Value *> > >,std::_Deque_unchecked_iterator<std::_Deque_val<std::_Deque_simple_types<Json::Value *> > > >
PUBLIC	??$_Rotate_unchecked1@V?$_Deque_unchecked_iterator@V?$_Deque_val@U?$_Deque_simple_types@VErrorInfo@Reader@Json@@@std@@@std@@@std@@@std@@YA?AV?$_Deque_unchecked_iterator@V?$_Deque_val@U?$_Deque_simple_types@VErrorInfo@Reader@Json@@@std@@@std@@@0@V10@00Urandom_access_iterator_tag@0@@Z ; std::_Rotate_unchecked1<std::_Deque_unchecked_iterator<std::_Deque_val<std::_Deque_simple_types<Json::Reader::ErrorInfo> > > >
PUBLIC	??$iter_swap@V?$_Deque_unchecked_iterator@V?$_Deque_val@U?$_Deque_simple_types@VErrorInfo@Reader@Json@@@std@@@std@@@std@@V12@@std@@YAXV?$_Deque_unchecked_iterator@V?$_Deque_val@U?$_Deque_simple_types@VErrorInfo@Reader@Json@@@std@@@std@@@0@0@Z ; std::iter_swap<std::_Deque_unchecked_iterator<std::_Deque_val<std::_Deque_simple_types<Json::Reader::ErrorInfo> > >,std::_Deque_unchecked_iterator<std::_Deque_val<std::_Deque_simple_types<Json::Reader::ErrorInfo> > > >
PUBLIC	??$_Copy_unchecked@V?$_Deque_unchecked_const_iterator@V?$_Deque_val@U?$_Deque_simple_types@VErrorInfo@Reader@Json@@@std@@@std@@@std@@V?$_Deque_unchecked_iterator@V?$_Deque_val@U?$_Deque_simple_types@VErrorInfo@Reader@Json@@@std@@@std@@@2@@std@@YA?AV?$_Deque_unchecked_iterator@V?$_Deque_val@U?$_Deque_simple_types@VErrorInfo@Reader@Json@@@std@@@std@@@0@V?$_Deque_unchecked_const_iterator@V?$_Deque_val@U?$_Deque_simple_types@VErrorInfo@Reader@Json@@@std@@@std@@@0@0V10@@Z ; std::_Copy_unchecked<std::_Deque_unchecked_const_iterator<std::_Deque_val<std::_Deque_simple_types<Json::Reader::ErrorInfo> > >,std::_Deque_unchecked_iterator<std::_Deque_val<std::_Deque_simple_types<Json::Reader::ErrorInfo> > > >
PUBLIC	??$construct@VErrorInfo@Reader@Json@@$$V@?$allocator@VErrorInfo@Reader@Json@@@std@@QAEXPAVErrorInfo@Reader@Json@@@Z ; std::allocator<Json::Reader::ErrorInfo>::construct<Json::Reader::ErrorInfo>
PUBLIC	??$?0ABV?$allocator@D@std@@@?$_Wrap_alloc@V?$allocator@D@std@@@std@@QAE@ABV?$allocator@D@1@@Z ; std::_Wrap_alloc<std::allocator<char> >::_Wrap_alloc<std::allocator<char> ><std::allocator<char> const &>
PUBLIC	??E?$_Deque_unchecked_const_iterator@V?$_Deque_val@U?$_Deque_simple_types@VErrorInfo@Reader@Json@@@std@@@std@@@std@@QAEAAV01@XZ ; std::_Deque_unchecked_const_iterator<std::_Deque_val<std::_Deque_simple_types<Json::Reader::ErrorInfo> > >::operator++
PUBLIC	??F?$_Deque_unchecked_const_iterator@V?$_Deque_val@U?$_Deque_simple_types@VErrorInfo@Reader@Json@@@std@@@std@@@std@@QAEAAV01@XZ ; std::_Deque_unchecked_const_iterator<std::_Deque_val<std::_Deque_simple_types<Json::Reader::ErrorInfo> > >::operator--
PUBLIC	??E?$_Deque_unchecked_const_iterator@V?$_Deque_val@U?$_Deque_simple_types@PAVValue@Json@@@std@@@std@@@std@@QAEAAV01@XZ ; std::_Deque_unchecked_const_iterator<std::_Deque_val<std::_Deque_simple_types<Json::Value *> > >::operator++
PUBLIC	??F?$_Deque_unchecked_const_iterator@V?$_Deque_val@U?$_Deque_simple_types@PAVValue@Json@@@std@@@std@@@std@@QAEAAV01@XZ ; std::_Deque_unchecked_const_iterator<std::_Deque_val<std::_Deque_simple_types<Json::Value *> > >::operator--
PUBLIC	?_Rechecked@?$_Deque_iterator@V?$_Deque_val@U?$_Deque_simple_types@PAVValue@Json@@@std@@@std@@@std@@QAEAAV12@V?$_Deque_unchecked_iterator@V?$_Deque_val@U?$_Deque_simple_types@PAVValue@Json@@@std@@@std@@@2@@Z ; std::_Deque_iterator<std::_Deque_val<std::_Deque_simple_types<Json::Value *> > >::_Rechecked
PUBLIC	?_Unchecked@?$_Deque_const_iterator@V?$_Deque_val@U?$_Deque_simple_types@PAVValue@Json@@@std@@@std@@@std@@QBE?AV?$_Deque_unchecked_const_iterator@V?$_Deque_val@U?$_Deque_simple_types@PAVValue@Json@@@std@@@std@@@2@XZ ; std::_Deque_const_iterator<std::_Deque_val<std::_Deque_simple_types<Json::Value *> > >::_Unchecked
PUBLIC	?_Rechecked@?$_Deque_iterator@V?$_Deque_val@U?$_Deque_simple_types@VErrorInfo@Reader@Json@@@std@@@std@@@std@@QAEAAV12@V?$_Deque_unchecked_iterator@V?$_Deque_val@U?$_Deque_simple_types@VErrorInfo@Reader@Json@@@std@@@std@@@2@@Z ; std::_Deque_iterator<std::_Deque_val<std::_Deque_simple_types<Json::Reader::ErrorInfo> > >::_Rechecked
PUBLIC	?_Unchecked@?$_Deque_const_iterator@V?$_Deque_val@U?$_Deque_simple_types@VErrorInfo@Reader@Json@@@std@@@std@@@std@@QBE?AV?$_Deque_unchecked_const_iterator@V?$_Deque_val@U?$_Deque_simple_types@VErrorInfo@Reader@Json@@@std@@@std@@@2@XZ ; std::_Deque_const_iterator<std::_Deque_val<std::_Deque_simple_types<Json::Reader::ErrorInfo> > >::_Unchecked
PUBLIC	??8?$_Deque_unchecked_const_iterator@V?$_Deque_val@U?$_Deque_simple_types@VErrorInfo@Reader@Json@@@std@@@std@@@std@@QBE_NABV01@@Z ; std::_Deque_unchecked_const_iterator<std::_Deque_val<std::_Deque_simple_types<Json::Reader::ErrorInfo> > >::operator==
PUBLIC	??9?$_Deque_unchecked_const_iterator@V?$_Deque_val@U?$_Deque_simple_types@VErrorInfo@Reader@Json@@@std@@@std@@@std@@QBE_NABV01@@Z ; std::_Deque_unchecked_const_iterator<std::_Deque_val<std::_Deque_simple_types<Json::Reader::ErrorInfo> > >::operator!=
PUBLIC	??E?$_Deque_unchecked_iterator@V?$_Deque_val@U?$_Deque_simple_types@VErrorInfo@Reader@Json@@@std@@@std@@@std@@QAEAAV01@XZ ; std::_Deque_unchecked_iterator<std::_Deque_val<std::_Deque_simple_types<Json::Reader::ErrorInfo> > >::operator++
PUBLIC	??F?$_Deque_unchecked_iterator@V?$_Deque_val@U?$_Deque_simple_types@VErrorInfo@Reader@Json@@@std@@@std@@@std@@QAEAAV01@XZ ; std::_Deque_unchecked_iterator<std::_Deque_val<std::_Deque_simple_types<Json::Reader::ErrorInfo> > >::operator--
PUBLIC	??8?$_Deque_unchecked_const_iterator@V?$_Deque_val@U?$_Deque_simple_types@PAVValue@Json@@@std@@@std@@@std@@QBE_NABV01@@Z ; std::_Deque_unchecked_const_iterator<std::_Deque_val<std::_Deque_simple_types<Json::Value *> > >::operator==
PUBLIC	??9?$_Deque_unchecked_const_iterator@V?$_Deque_val@U?$_Deque_simple_types@PAVValue@Json@@@std@@@std@@@std@@QBE_NABV01@@Z ; std::_Deque_unchecked_const_iterator<std::_Deque_val<std::_Deque_simple_types<Json::Value *> > >::operator!=
PUBLIC	??E?$_Deque_unchecked_iterator@V?$_Deque_val@U?$_Deque_simple_types@PAVValue@Json@@@std@@@std@@@std@@QAEAAV01@XZ ; std::_Deque_unchecked_iterator<std::_Deque_val<std::_Deque_simple_types<Json::Value *> > >::operator++
PUBLIC	??F?$_Deque_unchecked_iterator@V?$_Deque_val@U?$_Deque_simple_types@PAVValue@Json@@@std@@@std@@@std@@QAEAAV01@XZ ; std::_Deque_unchecked_iterator<std::_Deque_val<std::_Deque_simple_types<Json::Value *> > >::operator--
PUBLIC	??_GErrorInfo@Reader@Json@@QAEPAXI@Z		; Json::Reader::ErrorInfo::`scalar deleting destructor'
PUBLIC	??0ErrorInfo@Reader@Json@@QAE@ABV012@@Z		; Json::Reader::ErrorInfo::ErrorInfo
PUBLIC	??$construct@PAVValue@Json@@ABQAV12@@?$allocator_traits@V?$allocator@PAVValue@Json@@@std@@@std@@SAXAAV?$allocator@PAVValue@Json@@@1@PAPAVValue@Json@@ABQAV34@@Z ; std::allocator_traits<std::allocator<Json::Value *> >::construct<Json::Value *,Json::Value * const &>
PUBLIC	??$_Move_no_deprecate1@V?$_Deque_unchecked_iterator@V?$_Deque_val@U?$_Deque_simple_types@PAVValue@Json@@@std@@@std@@@std@@V?$_Deque_iterator@V?$_Deque_val@U?$_Deque_simple_types@PAVValue@Json@@@std@@@std@@@2@@std@@YA?AV?$_Deque_iterator@V?$_Deque_val@U?$_Deque_simple_types@PAVValue@Json@@@std@@@std@@@0@V?$_Deque_unchecked_iterator@V?$_Deque_val@U?$_Deque_simple_types@PAVValue@Json@@@std@@@std@@@0@0V10@Urandom_access_iterator_tag@0@2@Z ; std::_Move_no_deprecate1<std::_Deque_unchecked_iterator<std::_Deque_val<std::_Deque_simple_types<Json::Value *> > >,std::_Deque_iterator<std::_Deque_val<std::_Deque_simple_types<Json::Value *> > > >
PUBLIC	??$_Move_backward_unchecked@V?$_Deque_unchecked_iterator@V?$_Deque_val@U?$_Deque_simple_types@PAVValue@Json@@@std@@@std@@@std@@V12@@std@@YA?AV?$_Deque_unchecked_iterator@V?$_Deque_val@U?$_Deque_simple_types@PAVValue@Json@@@std@@@std@@@0@V10@00@Z ; std::_Move_backward_unchecked<std::_Deque_unchecked_iterator<std::_Deque_val<std::_Deque_simple_types<Json::Value *> > >,std::_Deque_unchecked_iterator<std::_Deque_val<std::_Deque_simple_types<Json::Value *> > > >
PUBLIC	??$_Uninitialized_copy_al_unchecked1@PAPAVValue@Json@@PAPAV12@V?$allocator@PAPAVValue@Json@@@std@@@std@@YAPAPAPAVValue@Json@@PAPAPAV12@00AAU?$_Wrap_alloc@V?$allocator@PAPAVValue@Json@@@std@@@0@U_Really_trivial_ptr_iterator_tag@0@U?$integral_constant@_N$00@0@@Z ; std::_Uninitialized_copy_al_unchecked1<Json::Value * *,Json::Value * *,std::allocator<Json::Value * *> >
PUBLIC	??$_Ptr_copy_cat@PAPAVValue@Json@@PAPAV12@@std@@YA?AU_Really_trivial_ptr_iterator_tag@0@ABQAPAPAVValue@Json@@0@Z ; std::_Ptr_copy_cat<Json::Value * *,Json::Value * *>
PUBLIC	??$construct@U_Container_proxy@std@@U12@@?$allocator@U_Container_proxy@std@@@std@@QAEXPAU_Container_proxy@1@$$QAU21@@Z ; std::allocator<std::_Container_proxy>::construct<std::_Container_proxy,std::_Container_proxy>
PUBLIC	??$destroy@U_Container_proxy@std@@@?$allocator@U_Container_proxy@std@@@std@@QAEXPAU_Container_proxy@1@@Z ; std::allocator<std::_Container_proxy>::destroy<std::_Container_proxy>
PUBLIC	??$construct@PADAAPAD@?$allocator@D@std@@QAEXPAPADAAPAD@Z ; std::allocator<char>::construct<char *,char * &>
PUBLIC	??$destroy@PAD@?$allocator@D@std@@QAEXPAPAD@Z	; std::allocator<char>::destroy<char *>
PUBLIC	??$destroy@VErrorInfo@Reader@Json@@@?$allocator@VErrorInfo@Reader@Json@@@std@@QAEXPAVErrorInfo@Reader@Json@@@Z ; std::allocator<Json::Reader::ErrorInfo>::destroy<Json::Reader::ErrorInfo>
PUBLIC	??$_Move_no_deprecate1@V?$_Deque_unchecked_iterator@V?$_Deque_val@U?$_Deque_simple_types@VErrorInfo@Reader@Json@@@std@@@std@@@std@@V?$_Deque_iterator@V?$_Deque_val@U?$_Deque_simple_types@VErrorInfo@Reader@Json@@@std@@@std@@@2@@std@@YA?AV?$_Deque_iterator@V?$_Deque_val@U?$_Deque_simple_types@VErrorInfo@Reader@Json@@@std@@@std@@@0@V?$_Deque_unchecked_iterator@V?$_Deque_val@U?$_Deque_simple_types@VErrorInfo@Reader@Json@@@std@@@std@@@0@0V10@Urandom_access_iterator_tag@0@2@Z ; std::_Move_no_deprecate1<std::_Deque_unchecked_iterator<std::_Deque_val<std::_Deque_simple_types<Json::Reader::ErrorInfo> > >,std::_Deque_iterator<std::_Deque_val<std::_Deque_simple_types<Json::Reader::ErrorInfo> > > >
PUBLIC	??$_Move_backward_unchecked@V?$_Deque_unchecked_iterator@V?$_Deque_val@U?$_Deque_simple_types@VErrorInfo@Reader@Json@@@std@@@std@@@std@@V12@@std@@YA?AV?$_Deque_unchecked_iterator@V?$_Deque_val@U?$_Deque_simple_types@VErrorInfo@Reader@Json@@@std@@@std@@@0@V10@00@Z ; std::_Move_backward_unchecked<std::_Deque_unchecked_iterator<std::_Deque_val<std::_Deque_simple_types<Json::Reader::ErrorInfo> > >,std::_Deque_unchecked_iterator<std::_Deque_val<std::_Deque_simple_types<Json::Reader::ErrorInfo> > > >
PUBLIC	??$_Uninitialized_copy_al_unchecked1@PAVErrorInfo@Reader@Json@@PAV123@V?$allocator@PAVErrorInfo@Reader@Json@@@std@@@std@@YAPAPAVErrorInfo@Reader@Json@@PAPAV123@00AAU?$_Wrap_alloc@V?$allocator@PAVErrorInfo@Reader@Json@@@std@@@0@U_Really_trivial_ptr_iterator_tag@0@U?$integral_constant@_N$00@0@@Z ; std::_Uninitialized_copy_al_unchecked1<Json::Reader::ErrorInfo *,Json::Reader::ErrorInfo *,std::allocator<Json::Reader::ErrorInfo *> >
PUBLIC	??$_Ptr_copy_cat@PAVErrorInfo@Reader@Json@@PAV123@@std@@YA?AU_Really_trivial_ptr_iterator_tag@0@ABQAPAVErrorInfo@Reader@Json@@0@Z ; std::_Ptr_copy_cat<Json::Reader::ErrorInfo *,Json::Reader::ErrorInfo *>
PUBLIC	??$destroy@PAVErrorInfo@Reader@Json@@@?$allocator@VErrorInfo@Reader@Json@@@std@@QAEXPAPAVErrorInfo@Reader@Json@@@Z ; std::allocator<Json::Reader::ErrorInfo>::destroy<Json::Reader::ErrorInfo *>
PUBLIC	??$forward@ABQAVValue@Json@@@std@@YAABQAVValue@Json@@ABQAV12@@Z ; std::forward<Json::Value * const &>
PUBLIC	??$construct@PAVValue@Json@@PAV12@@?$allocator@PAVValue@Json@@@std@@QAEXPAPAVValue@Json@@$$QAPAV23@@Z ; std::allocator<Json::Value *>::construct<Json::Value *,Json::Value *>
PUBLIC	??$_Rechecked@V?$_Deque_val@U?$_Deque_simple_types@PAVValue@Json@@@std@@@std@@@std@@YAAAV?$_Deque_iterator@V?$_Deque_val@U?$_Deque_simple_types@PAVValue@Json@@@std@@@std@@@0@AAV10@V?$_Deque_unchecked_iterator@V?$_Deque_val@U?$_Deque_simple_types@PAVValue@Json@@@std@@@std@@@0@@Z ; std::_Rechecked<std::_Deque_val<std::_Deque_simple_types<Json::Value *> > >
PUBLIC	??$_Rotate_unchecked@V?$_Deque_unchecked_iterator@V?$_Deque_val@U?$_Deque_simple_types@PAVValue@Json@@@std@@@std@@@std@@@std@@YA?AV?$_Deque_unchecked_iterator@V?$_Deque_val@U?$_Deque_simple_types@PAVValue@Json@@@std@@@std@@@0@V10@00@Z ; std::_Rotate_unchecked<std::_Deque_unchecked_iterator<std::_Deque_val<std::_Deque_simple_types<Json::Value *> > > >
PUBLIC	??$_Reverse_unchecked@V?$_Deque_unchecked_iterator@V?$_Deque_val@U?$_Deque_simple_types@PAVValue@Json@@@std@@@std@@@std@@@std@@YAXV?$_Deque_unchecked_iterator@V?$_Deque_val@U?$_Deque_simple_types@PAVValue@Json@@@std@@@std@@@0@0@Z ; std::_Reverse_unchecked<std::_Deque_unchecked_iterator<std::_Deque_val<std::_Deque_simple_types<Json::Value *> > > >
PUBLIC	??$_Copy_no_deprecate1@V?$_Deque_unchecked_const_iterator@V?$_Deque_val@U?$_Deque_simple_types@PAVValue@Json@@@std@@@std@@@std@@V?$_Deque_iterator@V?$_Deque_val@U?$_Deque_simple_types@PAVValue@Json@@@std@@@std@@@2@@std@@YA?AV?$_Deque_iterator@V?$_Deque_val@U?$_Deque_simple_types@PAVValue@Json@@@std@@@std@@@0@V?$_Deque_unchecked_const_iterator@V?$_Deque_val@U?$_Deque_simple_types@PAVValue@Json@@@std@@@std@@@0@0V10@Urandom_access_iterator_tag@0@2@Z ; std::_Copy_no_deprecate1<std::_Deque_unchecked_const_iterator<std::_Deque_val<std::_Deque_simple_types<Json::Value *> > >,std::_Deque_iterator<std::_Deque_val<std::_Deque_simple_types<Json::Value *> > > >
PUBLIC	??$destroy@PAVValue@Json@@@?$allocator@PAVValue@Json@@@std@@QAEXPAPAVValue@Json@@@Z ; std::allocator<Json::Value *>::destroy<Json::Value *>
PUBLIC	??$destroy@PAPAVValue@Json@@@?$allocator@PAVValue@Json@@@std@@QAEXPAPAPAVValue@Json@@@Z ; std::allocator<Json::Value *>::destroy<Json::Value * *>
PUBLIC	??$_Rechecked@V?$_Deque_val@U?$_Deque_simple_types@VErrorInfo@Reader@Json@@@std@@@std@@@std@@YAAAV?$_Deque_iterator@V?$_Deque_val@U?$_Deque_simple_types@VErrorInfo@Reader@Json@@@std@@@std@@@0@AAV10@V?$_Deque_unchecked_iterator@V?$_Deque_val@U?$_Deque_simple_types@VErrorInfo@Reader@Json@@@std@@@std@@@0@@Z ; std::_Rechecked<std::_Deque_val<std::_Deque_simple_types<Json::Reader::ErrorInfo> > >
PUBLIC	??$_Rotate_unchecked@V?$_Deque_unchecked_iterator@V?$_Deque_val@U?$_Deque_simple_types@VErrorInfo@Reader@Json@@@std@@@std@@@std@@@std@@YA?AV?$_Deque_unchecked_iterator@V?$_Deque_val@U?$_Deque_simple_types@VErrorInfo@Reader@Json@@@std@@@std@@@0@V10@00@Z ; std::_Rotate_unchecked<std::_Deque_unchecked_iterator<std::_Deque_val<std::_Deque_simple_types<Json::Reader::ErrorInfo> > > >
PUBLIC	??$_Reverse_unchecked@V?$_Deque_unchecked_iterator@V?$_Deque_val@U?$_Deque_simple_types@VErrorInfo@Reader@Json@@@std@@@std@@@std@@@std@@YAXV?$_Deque_unchecked_iterator@V?$_Deque_val@U?$_Deque_simple_types@VErrorInfo@Reader@Json@@@std@@@std@@@0@0@Z ; std::_Reverse_unchecked<std::_Deque_unchecked_iterator<std::_Deque_val<std::_Deque_simple_types<Json::Reader::ErrorInfo> > > >
PUBLIC	??$_Copy_no_deprecate1@V?$_Deque_unchecked_const_iterator@V?$_Deque_val@U?$_Deque_simple_types@VErrorInfo@Reader@Json@@@std@@@std@@@std@@V?$_Deque_iterator@V?$_Deque_val@U?$_Deque_simple_types@VErrorInfo@Reader@Json@@@std@@@std@@@2@@std@@YA?AV?$_Deque_iterator@V?$_Deque_val@U?$_Deque_simple_types@VErrorInfo@Reader@Json@@@std@@@std@@@0@V?$_Deque_unchecked_const_iterator@V?$_Deque_val@U?$_Deque_simple_types@VErrorInfo@Reader@Json@@@std@@@std@@@0@0V10@Urandom_access_iterator_tag@0@2@Z ; std::_Copy_no_deprecate1<std::_Deque_unchecked_const_iterator<std::_Deque_val<std::_Deque_simple_types<Json::Reader::ErrorInfo> > >,std::_Deque_iterator<std::_Deque_val<std::_Deque_simple_types<Json::Reader::ErrorInfo> > > >
PUBLIC	??$construct@VErrorInfo@Reader@Json@@$$V@?$allocator_traits@V?$allocator@VErrorInfo@Reader@Json@@@std@@@std@@SAXAAV?$allocator@VErrorInfo@Reader@Json@@@1@PAVErrorInfo@Reader@Json@@@Z ; std::allocator_traits<std::allocator<Json::Reader::ErrorInfo> >::construct<Json::Reader::ErrorInfo>
PUBLIC	??$construct@VErrorInfo@Reader@Json@@ABV123@@?$allocator@VErrorInfo@Reader@Json@@@std@@QAEXPAVErrorInfo@Reader@Json@@ABV234@@Z ; std::allocator<Json::Reader::ErrorInfo>::construct<Json::Reader::ErrorInfo,Json::Reader::ErrorInfo const &>
PUBLIC	??$?0ABV?$allocator@D@std@@$$V@?$_Compressed_pair@U?$_Wrap_alloc@V?$allocator@D@std@@@std@@V?$_String_val@U?$_Simple_types@D@std@@@2@$00@std@@QAE@U_One_then_variadic_args_t@1@ABV?$allocator@D@1@@Z ; std::_Compressed_pair<std::_Wrap_alloc<std::allocator<char> >,std::_String_val<std::_Simple_types<char> >,1>::_Compressed_pair<std::_Wrap_alloc<std::allocator<char> >,std::_String_val<std::_Simple_types<char> >,1><std::allocator<char> const &>
PUBLIC	??$forward@ABV?$allocator@D@std@@@std@@YAABV?$allocator@D@0@ABV10@@Z ; std::forward<std::allocator<char> const &>
PUBLIC	??$_Unchecked@V?$_Deque_val@U?$_Deque_simple_types@PAVValue@Json@@@std@@@std@@@std@@YA?AV?$_Deque_unchecked_const_iterator@V?$_Deque_val@U?$_Deque_simple_types@PAVValue@Json@@@std@@@std@@@0@V?$_Deque_const_iterator@V?$_Deque_val@U?$_Deque_simple_types@PAVValue@Json@@@std@@@std@@@0@@Z ; std::_Unchecked<std::_Deque_val<std::_Deque_simple_types<Json::Value *> > >
PUBLIC	??$_Unchecked@V?$_Deque_val@U?$_Deque_simple_types@VErrorInfo@Reader@Json@@@std@@@std@@@std@@YA?AV?$_Deque_unchecked_const_iterator@V?$_Deque_val@U?$_Deque_simple_types@VErrorInfo@Reader@Json@@@std@@@std@@@0@V?$_Deque_const_iterator@V?$_Deque_val@U?$_Deque_simple_types@VErrorInfo@Reader@Json@@@std@@@std@@@0@@Z ; std::_Unchecked<std::_Deque_val<std::_Deque_simple_types<Json::Reader::ErrorInfo> > >
PUBLIC	??$?8PAVValue@Json@@PAV01@@std@@YA_NABV?$allocator@PAVValue@Json@@@0@0@Z ; std::operator==<Json::Value *,Json::Value *>
PUBLIC	??$?8DD@std@@YA_NABV?$allocator@D@0@0@Z		; std::operator==<char,char>
PUBLIC	??$?8VErrorInfo@Reader@Json@@V012@@std@@YA_NABV?$allocator@VErrorInfo@Reader@Json@@@0@0@Z ; std::operator==<Json::Reader::ErrorInfo,Json::Reader::ErrorInfo>
PUBLIC	??0?$_Deque_unchecked_const_iterator@V?$_Deque_val@U?$_Deque_simple_types@VErrorInfo@Reader@Json@@@std@@@std@@@std@@QAE@IPBU_Container_base12@1@@Z ; std::_Deque_unchecked_const_iterator<std::_Deque_val<std::_Deque_simple_types<Json::Reader::ErrorInfo> > >::_Deque_unchecked_const_iterator<std::_Deque_val<std::_Deque_simple_types<Json::Reader::ErrorInfo> > >
PUBLIC	??0?$_Deque_unchecked_const_iterator@V?$_Deque_val@U?$_Deque_simple_types@PAVValue@Json@@@std@@@std@@@std@@QAE@IPBU_Container_base12@1@@Z ; std::_Deque_unchecked_const_iterator<std::_Deque_val<std::_Deque_simple_types<Json::Value *> > >::_Deque_unchecked_const_iterator<std::_Deque_val<std::_Deque_simple_types<Json::Value *> > >
PUBLIC	??0_Sentry_base@?$basic_istream@DU?$char_traits@D@std@@@std@@QAE@AAV12@@Z ; std::basic_istream<char,std::char_traits<char> >::_Sentry_base::_Sentry_base
PUBLIC	??0?$_Deque_unchecked_iterator@V?$_Deque_val@U?$_Deque_simple_types@VErrorInfo@Reader@Json@@@std@@@std@@@std@@QAE@IPBU_Container_base12@1@@Z ; std::_Deque_unchecked_iterator<std::_Deque_val<std::_Deque_simple_types<Json::Reader::ErrorInfo> > >::_Deque_unchecked_iterator<std::_Deque_val<std::_Deque_simple_types<Json::Reader::ErrorInfo> > >
PUBLIC	??0?$_Deque_unchecked_iterator@V?$_Deque_val@U?$_Deque_simple_types@PAVValue@Json@@@std@@@std@@@std@@QAE@IPBU_Container_base12@1@@Z ; std::_Deque_unchecked_iterator<std::_Deque_val<std::_Deque_simple_types<Json::Value *> > >::_Deque_unchecked_iterator<std::_Deque_val<std::_Deque_simple_types<Json::Value *> > >
PUBLIC	??0?$_Wrap_alloc@V?$allocator@D@std@@@std@@QAE@$$QAU01@@Z ; std::_Wrap_alloc<std::allocator<char> >::_Wrap_alloc<std::allocator<char> >
PUBLIC	??4?$_Wrap_alloc@V?$allocator@D@std@@@std@@QAEAAU01@$$QAU01@@Z ; std::_Wrap_alloc<std::allocator<char> >::operator=
PUBLIC	??1_Sentry_base@?$basic_istream@DU?$char_traits@D@std@@@std@@QAE@XZ ; std::basic_istream<char,std::char_traits<char> >::_Sentry_base::~_Sentry_base
PUBLIC	??0sentry@?$basic_istream@DU?$char_traits@D@std@@@std@@QAE@AAV12@_N@Z ; std::basic_istream<char,std::char_traits<char> >::sentry::sentry
PUBLIC	??Bsentry@?$basic_istream@DU?$char_traits@D@std@@@std@@QBE_NXZ ; std::basic_istream<char,std::char_traits<char> >::sentry::operator bool
PUBLIC	??0?$_Wrap_alloc@V?$allocator@PAVValue@Json@@@std@@@std@@QAE@$$QAU01@@Z ; std::_Wrap_alloc<std::allocator<Json::Value *> >::_Wrap_alloc<std::allocator<Json::Value *> >
PUBLIC	??4?$_Wrap_alloc@V?$allocator@PAVValue@Json@@@std@@@std@@QAEAAU01@$$QAU01@@Z ; std::_Wrap_alloc<std::allocator<Json::Value *> >::operator=
PUBLIC	?_Unchecked@?$_Deque_iterator@V?$_Deque_val@U?$_Deque_simple_types@PAVValue@Json@@@std@@@std@@@std@@QBE?AV?$_Deque_unchecked_iterator@V?$_Deque_val@U?$_Deque_simple_types@PAVValue@Json@@@std@@@std@@@2@XZ ; std::_Deque_iterator<std::_Deque_val<std::_Deque_simple_types<Json::Value *> > >::_Unchecked
PUBLIC	??0?$_Wrap_alloc@V?$allocator@VErrorInfo@Reader@Json@@@std@@@std@@QAE@$$QAU01@@Z ; std::_Wrap_alloc<std::allocator<Json::Reader::ErrorInfo> >::_Wrap_alloc<std::allocator<Json::Reader::ErrorInfo> >
PUBLIC	??4?$_Wrap_alloc@V?$allocator@VErrorInfo@Reader@Json@@@std@@@std@@QAEAAU01@$$QAU01@@Z ; std::_Wrap_alloc<std::allocator<Json::Reader::ErrorInfo> >::operator=
PUBLIC	?_Unchecked@?$_Deque_iterator@V?$_Deque_val@U?$_Deque_simple_types@VErrorInfo@Reader@Json@@@std@@@std@@@std@@QBE?AV?$_Deque_unchecked_iterator@V?$_Deque_val@U?$_Deque_simple_types@VErrorInfo@Reader@Json@@@std@@@std@@@2@XZ ; std::_Deque_iterator<std::_Deque_val<std::_Deque_simple_types<Json::Reader::ErrorInfo> > >::_Unchecked
PUBLIC	??1sentry@?$basic_istream@DU?$char_traits@D@std@@@std@@QAE@XZ ; std::basic_istream<char,std::char_traits<char> >::sentry::~sentry
PUBLIC	??$construct@PAVValue@Json@@ABQAV12@@?$_Wrap_alloc@V?$allocator@PAVValue@Json@@@std@@@std@@QAEXPAPAVValue@Json@@ABQAV23@@Z ; std::_Wrap_alloc<std::allocator<Json::Value *> >::construct<Json::Value *,Json::Value * const &>
PUBLIC	??$_Move_no_deprecate@V?$_Deque_iterator@V?$_Deque_val@U?$_Deque_simple_types@PAVValue@Json@@@std@@@std@@@std@@V12@@std@@YA?AV?$_Deque_iterator@V?$_Deque_val@U?$_Deque_simple_types@PAVValue@Json@@@std@@@std@@@0@V10@00@Z ; std::_Move_no_deprecate<std::_Deque_iterator<std::_Deque_val<std::_Deque_simple_types<Json::Value *> > >,std::_Deque_iterator<std::_Deque_val<std::_Deque_simple_types<Json::Value *> > > >
PUBLIC	??$_Move_backward1@V?$_Deque_unchecked_iterator@V?$_Deque_val@U?$_Deque_simple_types@PAVValue@Json@@@std@@@std@@@std@@V?$_Deque_iterator@V?$_Deque_val@U?$_Deque_simple_types@PAVValue@Json@@@std@@@std@@@2@@std@@YA?AV?$_Deque_iterator@V?$_Deque_val@U?$_Deque_simple_types@PAVValue@Json@@@std@@@std@@@0@V?$_Deque_unchecked_iterator@V?$_Deque_val@U?$_Deque_simple_types@PAVValue@Json@@@std@@@std@@@0@0V10@Urandom_access_iterator_tag@0@2@Z ; std::_Move_backward1<std::_Deque_unchecked_iterator<std::_Deque_val<std::_Deque_simple_types<Json::Value *> > >,std::_Deque_iterator<std::_Deque_val<std::_Deque_simple_types<Json::Value *> > > >
PUBLIC	??$_Unchecked@V?$_Deque_val@U?$_Deque_simple_types@PAVValue@Json@@@std@@@std@@@std@@YA?AV?$_Deque_unchecked_iterator@V?$_Deque_val@U?$_Deque_simple_types@PAVValue@Json@@@std@@@std@@@0@V?$_Deque_iterator@V?$_Deque_val@U?$_Deque_simple_types@PAVValue@Json@@@std@@@std@@@0@@Z ; std::_Unchecked<std::_Deque_val<std::_Deque_simple_types<Json::Value *> > >
PUBLIC	??$_Destroy_range1@V?$allocator@PAPAVValue@Json@@@std@@PAPAPAVValue@Json@@@std@@YAXPAPAPAVValue@Json@@0AAU?$_Wrap_alloc@V?$allocator@PAPAVValue@Json@@@std@@@0@U?$integral_constant@_N$00@0@@Z ; std::_Destroy_range1<std::allocator<Json::Value * *>,Json::Value * * *>
PUBLIC	??$_Uninitialized_default_fill_n1@PAPAPAVValue@Json@@IV?$allocator@PAPAVValue@Json@@@std@@@std@@YAXPAPAPAVValue@Json@@IAAU?$_Wrap_alloc@V?$allocator@PAPAVValue@Json@@@std@@@0@U?$integral_constant@_N$00@0@@Z ; std::_Uninitialized_default_fill_n1<Json::Value * * *,unsigned int,std::allocator<Json::Value * *> >
PUBLIC	??$_Rechecked@PAPAPAVValue@Json@@PAPAPAV12@@std@@YAAAPAPAPAVValue@Json@@AAPAPAPAV12@PAPAPAV12@@Z ; std::_Rechecked<Json::Value * * *,Json::Value * * *>
PUBLIC	??$_Uninitialized_copy_al_unchecked@PAPAPAVValue@Json@@PAPAPAV12@V?$allocator@PAPAVValue@Json@@@std@@@std@@YAPAPAPAVValue@Json@@PAPAPAV12@00AAU?$_Wrap_alloc@V?$allocator@PAPAVValue@Json@@@std@@@0@@Z ; std::_Uninitialized_copy_al_unchecked<Json::Value * * *,Json::Value * * *,std::allocator<Json::Value * *> >
PUBLIC	??$_Unchecked@PAPAPAVValue@Json@@@std@@YAPAPAPAVValue@Json@@PAPAPAV12@@Z ; std::_Unchecked<Json::Value * * *>
PUBLIC	??$_Pocca@U?$_Wrap_alloc@V?$allocator@PAVValue@Json@@@std@@@std@@@std@@YAXAAU?$_Wrap_alloc@V?$allocator@PAVValue@Json@@@std@@@0@ABU10@U?$integral_constant@_N$0A@@0@@Z ; std::_Pocca<std::_Wrap_alloc<std::allocator<Json::Value *> > >
PUBLIC	??$_Pocma@U?$_Wrap_alloc@V?$allocator@PAVValue@Json@@@std@@@std@@@std@@YAXAAU?$_Wrap_alloc@V?$allocator@PAVValue@Json@@@std@@@0@0U?$integral_constant@_N$00@0@@Z ; std::_Pocma<std::_Wrap_alloc<std::allocator<Json::Value *> > >
PUBLIC	??$?0PAVValue@Json@@@?$allocator@U_Container_proxy@std@@@std@@QAE@ABV?$allocator@PAVValue@Json@@@1@@Z ; std::allocator<std::_Container_proxy>::allocator<std::_Container_proxy><Json::Value *>
PUBLIC	??$forward@V?$allocator@PAVValue@Json@@@std@@@std@@YA$$QAV?$allocator@PAVValue@Json@@@0@AAV10@@Z ; std::forward<std::allocator<Json::Value *> >
PUBLIC	??$construct@U_Container_proxy@std@@U12@@?$allocator_traits@V?$allocator@U_Container_proxy@std@@@std@@@std@@SAXAAV?$allocator@U_Container_proxy@std@@@1@PAU_Container_proxy@1@$$QAU31@@Z ; std::allocator_traits<std::allocator<std::_Container_proxy> >::construct<std::_Container_proxy,std::_Container_proxy>
PUBLIC	??$forward@U_Container_proxy@std@@@std@@YA$$QAU_Container_proxy@0@AAU10@@Z ; std::forward<std::_Container_proxy>
PUBLIC	??$destroy@U_Container_proxy@std@@@?$allocator_traits@V?$allocator@U_Container_proxy@std@@@std@@@std@@SAXAAV?$allocator@U_Container_proxy@std@@@1@PAU_Container_proxy@1@@Z ; std::allocator_traits<std::allocator<std::_Container_proxy> >::destroy<std::_Container_proxy>
PUBLIC	??$?0VErrorInfo@Reader@Json@@@?$allocator@U_Container_proxy@std@@@std@@QAE@ABV?$allocator@VErrorInfo@Reader@Json@@@1@@Z ; std::allocator<std::_Container_proxy>::allocator<std::_Container_proxy><Json::Reader::ErrorInfo>
PUBLIC	??$construct@PADAAPAD@?$allocator_traits@V?$allocator@D@std@@@std@@SAXAAV?$allocator@D@1@PAPADAAPAD@Z ; std::allocator_traits<std::allocator<char> >::construct<char *,char * &>
PUBLIC	??$forward@AAPAD@std@@YAAAPADAAPAD@Z		; std::forward<char * &>
PUBLIC	??$destroy@PAD@?$allocator_traits@V?$allocator@D@std@@@std@@SAXAAV?$allocator@D@1@PAPAD@Z ; std::allocator_traits<std::allocator<char> >::destroy<char *>
PUBLIC	??$_Pocca@U?$_Wrap_alloc@V?$allocator@D@std@@@std@@@std@@YAXAAU?$_Wrap_alloc@V?$allocator@D@std@@@0@ABU10@U?$integral_constant@_N$0A@@0@@Z ; std::_Pocca<std::_Wrap_alloc<std::allocator<char> > >
PUBLIC	??$_Pocma@U?$_Wrap_alloc@V?$allocator@D@std@@@std@@@std@@YAXAAU?$_Wrap_alloc@V?$allocator@D@std@@@0@0U?$integral_constant@_N$00@0@@Z ; std::_Pocma<std::_Wrap_alloc<std::allocator<char> > >
PUBLIC	??$forward@V?$allocator@D@std@@@std@@YA$$QAV?$allocator@D@0@AAV10@@Z ; std::forward<std::allocator<char> >
PUBLIC	??$destroy@VErrorInfo@Reader@Json@@@?$allocator_traits@V?$allocator@VErrorInfo@Reader@Json@@@std@@@std@@SAXAAV?$allocator@VErrorInfo@Reader@Json@@@1@PAVErrorInfo@Reader@Json@@@Z ; std::allocator_traits<std::allocator<Json::Reader::ErrorInfo> >::destroy<Json::Reader::ErrorInfo>
PUBLIC	??$_Move_no_deprecate@V?$_Deque_iterator@V?$_Deque_val@U?$_Deque_simple_types@VErrorInfo@Reader@Json@@@std@@@std@@@std@@V12@@std@@YA?AV?$_Deque_iterator@V?$_Deque_val@U?$_Deque_simple_types@VErrorInfo@Reader@Json@@@std@@@std@@@0@V10@00@Z ; std::_Move_no_deprecate<std::_Deque_iterator<std::_Deque_val<std::_Deque_simple_types<Json::Reader::ErrorInfo> > >,std::_Deque_iterator<std::_Deque_val<std::_Deque_simple_types<Json::Reader::ErrorInfo> > > >
PUBLIC	??$_Move_backward1@V?$_Deque_unchecked_iterator@V?$_Deque_val@U?$_Deque_simple_types@VErrorInfo@Reader@Json@@@std@@@std@@@std@@V?$_Deque_iterator@V?$_Deque_val@U?$_Deque_simple_types@VErrorInfo@Reader@Json@@@std@@@std@@@2@@std@@YA?AV?$_Deque_iterator@V?$_Deque_val@U?$_Deque_simple_types@VErrorInfo@Reader@Json@@@std@@@std@@@0@V?$_Deque_unchecked_iterator@V?$_Deque_val@U?$_Deque_simple_types@VErrorInfo@Reader@Json@@@std@@@std@@@0@0V10@Urandom_access_iterator_tag@0@2@Z ; std::_Move_backward1<std::_Deque_unchecked_iterator<std::_Deque_val<std::_Deque_simple_types<Json::Reader::ErrorInfo> > >,std::_Deque_iterator<std::_Deque_val<std::_Deque_simple_types<Json::Reader::ErrorInfo> > > >
PUBLIC	??$_Unchecked@V?$_Deque_val@U?$_Deque_simple_types@VErrorInfo@Reader@Json@@@std@@@std@@@std@@YA?AV?$_Deque_unchecked_iterator@V?$_Deque_val@U?$_Deque_simple_types@VErrorInfo@Reader@Json@@@std@@@std@@@0@V?$_Deque_iterator@V?$_Deque_val@U?$_Deque_simple_types@VErrorInfo@Reader@Json@@@std@@@std@@@0@@Z ; std::_Unchecked<std::_Deque_val<std::_Deque_simple_types<Json::Reader::ErrorInfo> > >
PUBLIC	??$_Destroy_range1@V?$allocator@PAVErrorInfo@Reader@Json@@@std@@PAPAVErrorInfo@Reader@Json@@@std@@YAXPAPAVErrorInfo@Reader@Json@@0AAU?$_Wrap_alloc@V?$allocator@PAVErrorInfo@Reader@Json@@@std@@@0@U?$integral_constant@_N$00@0@@Z ; std::_Destroy_range1<std::allocator<Json::Reader::ErrorInfo *>,Json::Reader::ErrorInfo * *>
PUBLIC	??$_Uninitialized_default_fill_n1@PAPAVErrorInfo@Reader@Json@@IV?$allocator@PAVErrorInfo@Reader@Json@@@std@@@std@@YAXPAPAVErrorInfo@Reader@Json@@IAAU?$_Wrap_alloc@V?$allocator@PAVErrorInfo@Reader@Json@@@std@@@0@U?$integral_constant@_N$00@0@@Z ; std::_Uninitialized_default_fill_n1<Json::Reader::ErrorInfo * *,unsigned int,std::allocator<Json::Reader::ErrorInfo *> >
PUBLIC	??$_Rechecked@PAPAVErrorInfo@Reader@Json@@PAPAV123@@std@@YAAAPAPAVErrorInfo@Reader@Json@@AAPAPAV123@PAPAV123@@Z ; std::_Rechecked<Json::Reader::ErrorInfo * *,Json::Reader::ErrorInfo * *>
PUBLIC	??$_Uninitialized_copy_al_unchecked@PAPAVErrorInfo@Reader@Json@@PAPAV123@V?$allocator@PAVErrorInfo@Reader@Json@@@std@@@std@@YAPAPAVErrorInfo@Reader@Json@@PAPAV123@00AAU?$_Wrap_alloc@V?$allocator@PAVErrorInfo@Reader@Json@@@std@@@0@@Z ; std::_Uninitialized_copy_al_unchecked<Json::Reader::ErrorInfo * *,Json::Reader::ErrorInfo * *,std::allocator<Json::Reader::ErrorInfo *> >
PUBLIC	??$_Unchecked@PAPAVErrorInfo@Reader@Json@@@std@@YAPAPAVErrorInfo@Reader@Json@@PAPAV123@@Z ; std::_Unchecked<Json::Reader::ErrorInfo * *>
PUBLIC	??$destroy@PAVErrorInfo@Reader@Json@@@?$allocator_traits@V?$allocator@VErrorInfo@Reader@Json@@@std@@@std@@SAXAAV?$allocator@VErrorInfo@Reader@Json@@@1@PAPAVErrorInfo@Reader@Json@@@Z ; std::allocator_traits<std::allocator<Json::Reader::ErrorInfo> >::destroy<Json::Reader::ErrorInfo *>
PUBLIC	??$?0VErrorInfo@Reader@Json@@@?$allocator@PAVErrorInfo@Reader@Json@@@std@@QAE@ABV?$allocator@VErrorInfo@Reader@Json@@@1@@Z ; std::allocator<Json::Reader::ErrorInfo *>::allocator<Json::Reader::ErrorInfo *><Json::Reader::ErrorInfo>
PUBLIC	??$forward@AAU?$_Wrap_alloc@V?$allocator@VErrorInfo@Reader@Json@@@std@@@std@@@std@@YAAAU?$_Wrap_alloc@V?$allocator@VErrorInfo@Reader@Json@@@std@@@0@AAU10@@Z ; std::forward<std::_Wrap_alloc<std::allocator<Json::Reader::ErrorInfo> > &>
PUBLIC	??$emplace_back@ABQAVValue@Json@@@?$deque@PAVValue@Json@@V?$allocator@PAVValue@Json@@@std@@@std@@QAEXABQAVValue@Json@@@Z ; std::deque<Json::Value *,std::allocator<Json::Value *> >::emplace_back<Json::Value * const &>
PUBLIC	??$?0U?$_Wrap_alloc@V?$allocator@PAVValue@Json@@@std@@@std@@$$V@?$_Compressed_pair@U?$_Wrap_alloc@V?$allocator@PAVValue@Json@@@std@@@std@@V?$_Deque_val@U?$_Deque_simple_types@PAVValue@Json@@@std@@@2@$00@std@@QAE@U_One_then_variadic_args_t@1@$$QAU?$_Wrap_alloc@V?$allocator@PAVValue@Json@@@std@@@1@@Z ; std::_Compressed_pair<std::_Wrap_alloc<std::allocator<Json::Value *> >,std::_Deque_val<std::_Deque_simple_types<Json::Value *> >,1>::_Compressed_pair<std::_Wrap_alloc<std::allocator<Json::Value *> >,std::_Deque_val<std::_Deque_simple_types<Json::Value *> >,1><std::_Wrap_alloc<std::allocator<Json::Value *> > >
PUBLIC	??$forward@U?$_Wrap_alloc@V?$allocator@PAVValue@Json@@@std@@@std@@@std@@YA$$QAU?$_Wrap_alloc@V?$allocator@PAVValue@Json@@@std@@@0@AAU10@@Z ; std::forward<std::_Wrap_alloc<std::allocator<Json::Value *> > >
PUBLIC	??$construct@PAVValue@Json@@PAV12@@?$allocator_traits@V?$allocator@PAVValue@Json@@@std@@@std@@SAXAAV?$allocator@PAVValue@Json@@@1@PAPAVValue@Json@@$$QAPAV34@@Z ; std::allocator_traits<std::allocator<Json::Value *> >::construct<Json::Value *,Json::Value *>
PUBLIC	??$rotate@V?$_Deque_iterator@V?$_Deque_val@U?$_Deque_simple_types@PAVValue@Json@@@std@@@std@@@std@@@std@@YA?AV?$_Deque_iterator@V?$_Deque_val@U?$_Deque_simple_types@PAVValue@Json@@@std@@@std@@@0@V10@00@Z ; std::rotate<std::_Deque_iterator<std::_Deque_val<std::_Deque_simple_types<Json::Value *> > > >
PUBLIC	??$reverse@V?$_Deque_iterator@V?$_Deque_val@U?$_Deque_simple_types@PAVValue@Json@@@std@@@std@@@std@@@std@@YAXV?$_Deque_iterator@V?$_Deque_val@U?$_Deque_simple_types@PAVValue@Json@@@std@@@std@@@0@0@Z ; std::reverse<std::_Deque_iterator<std::_Deque_val<std::_Deque_simple_types<Json::Value *> > > >
PUBLIC	??$_Copy_no_deprecate@V?$_Deque_const_iterator@V?$_Deque_val@U?$_Deque_simple_types@PAVValue@Json@@@std@@@std@@@std@@V?$_Deque_iterator@V?$_Deque_val@U?$_Deque_simple_types@PAVValue@Json@@@std@@@std@@@2@@std@@YA?AV?$_Deque_iterator@V?$_Deque_val@U?$_Deque_simple_types@PAVValue@Json@@@std@@@std@@@0@V?$_Deque_const_iterator@V?$_Deque_val@U?$_Deque_simple_types@PAVValue@Json@@@std@@@std@@@0@0V10@@Z ; std::_Copy_no_deprecate<std::_Deque_const_iterator<std::_Deque_val<std::_Deque_simple_types<Json::Value *> > >,std::_Deque_iterator<std::_Deque_val<std::_Deque_simple_types<Json::Value *> > > >
PUBLIC	??$_Is_checked@V?$_Deque_iterator@V?$_Deque_val@U?$_Deque_simple_types@PAVValue@Json@@@std@@@std@@@std@@@std@@YA?AU?$integral_constant@_N$00@0@V?$_Deque_iterator@V?$_Deque_val@U?$_Deque_simple_types@PAVValue@Json@@@std@@@std@@@0@@Z ; std::_Is_checked<std::_Deque_iterator<std::_Deque_val<std::_Deque_simple_types<Json::Value *> > > >
PUBLIC	??$?8V?$allocator@PAVValue@Json@@@std@@V01@@std@@YA_NABU?$_Wrap_alloc@V?$allocator@PAVValue@Json@@@std@@@0@0@Z ; std::operator==<std::allocator<Json::Value *>,std::allocator<Json::Value *> >
PUBLIC	??$destroy@PAVValue@Json@@@?$allocator_traits@V?$allocator@PAVValue@Json@@@std@@@std@@SAXAAV?$allocator@PAVValue@Json@@@1@PAPAVValue@Json@@@Z ; std::allocator_traits<std::allocator<Json::Value *> >::destroy<Json::Value *>
PUBLIC	??$destroy@PAPAVValue@Json@@@?$allocator_traits@V?$allocator@PAVValue@Json@@@std@@@std@@SAXAAV?$allocator@PAVValue@Json@@@1@PAPAPAVValue@Json@@@Z ; std::allocator_traits<std::allocator<Json::Value *> >::destroy<Json::Value * *>
PUBLIC	??$?0PAVValue@Json@@@?$allocator@PAPAVValue@Json@@@std@@QAE@ABV?$allocator@PAVValue@Json@@@1@@Z ; std::allocator<Json::Value * *>::allocator<Json::Value * *><Json::Value *>
PUBLIC	??$forward@AAU?$_Wrap_alloc@V?$allocator@PAVValue@Json@@@std@@@std@@@std@@YAAAU?$_Wrap_alloc@V?$allocator@PAVValue@Json@@@std@@@0@AAU10@@Z ; std::forward<std::_Wrap_alloc<std::allocator<Json::Value *> > &>
PUBLIC	??$_Pocca@U?$_Wrap_alloc@V?$allocator@VErrorInfo@Reader@Json@@@std@@@std@@@std@@YAXAAU?$_Wrap_alloc@V?$allocator@VErrorInfo@Reader@Json@@@std@@@0@ABU10@U?$integral_constant@_N$0A@@0@@Z ; std::_Pocca<std::_Wrap_alloc<std::allocator<Json::Reader::ErrorInfo> > >
PUBLIC	??$_Pocma@U?$_Wrap_alloc@V?$allocator@VErrorInfo@Reader@Json@@@std@@@std@@@std@@YAXAAU?$_Wrap_alloc@V?$allocator@VErrorInfo@Reader@Json@@@std@@@0@0U?$integral_constant@_N$00@0@@Z ; std::_Pocma<std::_Wrap_alloc<std::allocator<Json::Reader::ErrorInfo> > >
PUBLIC	??$forward@V?$allocator@VErrorInfo@Reader@Json@@@std@@@std@@YA$$QAV?$allocator@VErrorInfo@Reader@Json@@@0@AAV10@@Z ; std::forward<std::allocator<Json::Reader::ErrorInfo> >
PUBLIC	??$?0U?$_Wrap_alloc@V?$allocator@D@std@@@std@@$$V@?$_Compressed_pair@U?$_Wrap_alloc@V?$allocator@D@std@@@std@@V?$_String_val@U?$_Simple_types@D@std@@@2@$00@std@@QAE@U_One_then_variadic_args_t@1@$$QAU?$_Wrap_alloc@V?$allocator@D@std@@@1@@Z ; std::_Compressed_pair<std::_Wrap_alloc<std::allocator<char> >,std::_String_val<std::_Simple_types<char> >,1>::_Compressed_pair<std::_Wrap_alloc<std::allocator<char> >,std::_String_val<std::_Simple_types<char> >,1><std::_Wrap_alloc<std::allocator<char> > >
PUBLIC	??$forward@U?$_Wrap_alloc@V?$allocator@D@std@@@std@@@std@@YA$$QAU?$_Wrap_alloc@V?$allocator@D@std@@@0@AAU10@@Z ; std::forward<std::_Wrap_alloc<std::allocator<char> > >
PUBLIC	??$?8V?$allocator@D@std@@V01@@std@@YA_NABU?$_Wrap_alloc@V?$allocator@D@std@@@0@0@Z ; std::operator==<std::allocator<char>,std::allocator<char> >
PUBLIC	??$emplace_back@ABVErrorInfo@Reader@Json@@@?$deque@VErrorInfo@Reader@Json@@V?$allocator@VErrorInfo@Reader@Json@@@std@@@std@@QAEXABVErrorInfo@Reader@Json@@@Z ; std::deque<Json::Reader::ErrorInfo,std::allocator<Json::Reader::ErrorInfo> >::emplace_back<Json::Reader::ErrorInfo const &>
PUBLIC	??$?0U?$_Wrap_alloc@V?$allocator@VErrorInfo@Reader@Json@@@std@@@std@@$$V@?$_Compressed_pair@U?$_Wrap_alloc@V?$allocator@VErrorInfo@Reader@Json@@@std@@@std@@V?$_Deque_val@U?$_Deque_simple_types@VErrorInfo@Reader@Json@@@std@@@2@$00@std@@QAE@U_One_then_variadic_args_t@1@$$QAU?$_Wrap_alloc@V?$allocator@VErrorInfo@Reader@Json@@@std@@@1@@Z ; std::_Compressed_pair<std::_Wrap_alloc<std::allocator<Json::Reader::ErrorInfo> >,std::_Deque_val<std::_Deque_simple_types<Json::Reader::ErrorInfo> >,1>::_Compressed_pair<std::_Wrap_alloc<std::allocator<Json::Reader::ErrorInfo> >,std::_Deque_val<std::_Deque_simple_types<Json::Reader::ErrorInfo> >,1><std::_Wrap_alloc<std::allocator<Json::Reader::ErrorInfo> > >
PUBLIC	??$forward@U?$_Wrap_alloc@V?$allocator@VErrorInfo@Reader@Json@@@std@@@std@@@std@@YA$$QAU?$_Wrap_alloc@V?$allocator@VErrorInfo@Reader@Json@@@std@@@0@AAU10@@Z ; std::forward<std::_Wrap_alloc<std::allocator<Json::Reader::ErrorInfo> > >
PUBLIC	??$rotate@V?$_Deque_iterator@V?$_Deque_val@U?$_Deque_simple_types@VErrorInfo@Reader@Json@@@std@@@std@@@std@@@std@@YA?AV?$_Deque_iterator@V?$_Deque_val@U?$_Deque_simple_types@VErrorInfo@Reader@Json@@@std@@@std@@@0@V10@00@Z ; std::rotate<std::_Deque_iterator<std::_Deque_val<std::_Deque_simple_types<Json::Reader::ErrorInfo> > > >
PUBLIC	??$reverse@V?$_Deque_iterator@V?$_Deque_val@U?$_Deque_simple_types@VErrorInfo@Reader@Json@@@std@@@std@@@std@@@std@@YAXV?$_Deque_iterator@V?$_Deque_val@U?$_Deque_simple_types@VErrorInfo@Reader@Json@@@std@@@std@@@0@0@Z ; std::reverse<std::_Deque_iterator<std::_Deque_val<std::_Deque_simple_types<Json::Reader::ErrorInfo> > > >
PUBLIC	??$_Copy_no_deprecate@V?$_Deque_const_iterator@V?$_Deque_val@U?$_Deque_simple_types@VErrorInfo@Reader@Json@@@std@@@std@@@std@@V?$_Deque_iterator@V?$_Deque_val@U?$_Deque_simple_types@VErrorInfo@Reader@Json@@@std@@@std@@@2@@std@@YA?AV?$_Deque_iterator@V?$_Deque_val@U?$_Deque_simple_types@VErrorInfo@Reader@Json@@@std@@@std@@@0@V?$_Deque_const_iterator@V?$_Deque_val@U?$_Deque_simple_types@VErrorInfo@Reader@Json@@@std@@@std@@@0@0V10@@Z ; std::_Copy_no_deprecate<std::_Deque_const_iterator<std::_Deque_val<std::_Deque_simple_types<Json::Reader::ErrorInfo> > >,std::_Deque_iterator<std::_Deque_val<std::_Deque_simple_types<Json::Reader::ErrorInfo> > > >
PUBLIC	??$_Is_checked@V?$_Deque_iterator@V?$_Deque_val@U?$_Deque_simple_types@VErrorInfo@Reader@Json@@@std@@@std@@@std@@@std@@YA?AU?$integral_constant@_N$00@0@V?$_Deque_iterator@V?$_Deque_val@U?$_Deque_simple_types@VErrorInfo@Reader@Json@@@std@@@std@@@0@@Z ; std::_Is_checked<std::_Deque_iterator<std::_Deque_val<std::_Deque_simple_types<Json::Reader::ErrorInfo> > > >
PUBLIC	??$?8V?$allocator@VErrorInfo@Reader@Json@@@std@@V01@@std@@YA_NABU?$_Wrap_alloc@V?$allocator@VErrorInfo@Reader@Json@@@std@@@0@0@Z ; std::operator==<std::allocator<Json::Reader::ErrorInfo>,std::allocator<Json::Reader::ErrorInfo> >
PUBLIC	??$construct@VErrorInfo@Reader@Json@@$$V@?$_Wrap_alloc@V?$allocator@VErrorInfo@Reader@Json@@@std@@@std@@QAEXPAVErrorInfo@Reader@Json@@@Z ; std::_Wrap_alloc<std::allocator<Json::Reader::ErrorInfo> >::construct<Json::Reader::ErrorInfo>
PUBLIC	??$construct@VErrorInfo@Reader@Json@@ABV123@@?$allocator_traits@V?$allocator@VErrorInfo@Reader@Json@@@std@@@std@@SAXAAV?$allocator@VErrorInfo@Reader@Json@@@1@PAVErrorInfo@Reader@Json@@ABV345@@Z ; std::allocator_traits<std::allocator<Json::Reader::ErrorInfo> >::construct<Json::Reader::ErrorInfo,Json::Reader::ErrorInfo const &>
PUBLIC	??$forward@ABVErrorInfo@Reader@Json@@@std@@YAABVErrorInfo@Reader@Json@@ABV123@@Z ; std::forward<Json::Reader::ErrorInfo const &>
PUBLIC	??$move@AAV?$basic_string@DU?$char_traits@D@std@@V?$allocator@D@2@@std@@@std@@YA$$QAV?$basic_string@DU?$char_traits@D@std@@V?$allocator@D@2@@0@AAV10@@Z ; std::move<std::basic_string<char,std::char_traits<char>,std::allocator<char> > &>
PUBLIC	??$_Unchecked@PBD@std@@YAPBDPBD@Z		; std::_Unchecked<char const *>
PUBLIC	??$?0ABV?$allocator@D@std@@X@?$_String_alloc@U?$_String_base_types@DV?$allocator@D@std@@@std@@@std@@QAE@ABV?$allocator@D@1@@Z ; std::_String_alloc<std::_String_base_types<char,std::allocator<char> > >::_String_alloc<std::_String_base_types<char,std::allocator<char> > ><std::allocator<char> const &,void>
PUBLIC	??$move@AAV?$basic_istream@DU?$char_traits@D@std@@@std@@@std@@YA$$QAV?$basic_istream@DU?$char_traits@D@std@@@0@AAV10@@Z ; std::move<std::basic_istream<char,std::char_traits<char> > &>
PUBLIC	??$getline@DU?$char_traits@D@std@@V?$allocator@D@2@@std@@YAAAV?$basic_istream@DU?$char_traits@D@std@@@0@$$QAV10@AAV?$basic_string@DU?$char_traits@D@std@@V?$allocator@D@2@@0@D@Z ; std::getline<char,std::char_traits<char>,std::allocator<char> >
PUBLIC	?insert@?$basic_string@DU?$char_traits@D@std@@V?$allocator@D@2@@std@@QAEAAV12@IABV12@II@Z ; std::basic_string<char,std::char_traits<char>,std::allocator<char> >::insert
PUBLIC	?replace@?$basic_string@DU?$char_traits@D@std@@V?$allocator@D@2@@std@@QAEAAV12@IIABV12@II@Z ; std::basic_string<char,std::char_traits<char>,std::allocator<char> >::replace
PUBLIC	??D?$_String_const_iterator@V?$_String_val@U?$_Simple_types@D@std@@@std@@@std@@QBEABDXZ ; std::_String_const_iterator<std::_String_val<std::_Simple_types<char> > >::operator*
PUBLIC	?_Compat@?$_String_const_iterator@V?$_String_val@U?$_Simple_types@D@std@@@std@@@std@@QBEXABV12@@Z ; std::_String_const_iterator<std::_String_val<std::_Simple_types<char> > >::_Compat
PUBLIC	?insert@?$basic_string@DU?$char_traits@D@std@@V?$allocator@D@2@@std@@QAEAAV12@IPBDI@Z ; std::basic_string<char,std::char_traits<char>,std::allocator<char> >::insert
PUBLIC	?replace@?$basic_string@DU?$char_traits@D@std@@V?$allocator@D@2@@std@@QAEAAV12@IIPBDI@Z ; std::basic_string<char,std::char_traits<char>,std::allocator<char> >::replace
PUBLIC	??D?$_String_iterator@V?$_String_val@U?$_Simple_types@D@std@@@std@@@std@@QBEAADXZ ; std::_String_iterator<std::_String_val<std::_Simple_types<char> > >::operator*
PUBLIC	??G?$_String_iterator@V?$_String_val@U?$_Simple_types@D@std@@@std@@@std@@QBEHABV?$_String_const_iterator@V?$_String_val@U?$_Simple_types@D@std@@@std@@@1@@Z ; std::_String_iterator<std::_String_val<std::_Simple_types<char> > >::operator-
PUBLIC	??G?$_String_const_iterator@V?$_String_val@U?$_Simple_types@D@std@@@std@@@std@@QBEHABV01@@Z ; std::_String_const_iterator<std::_String_val<std::_Simple_types<char> > >::operator-
PUBLIC	??8?$_String_const_iterator@V?$_String_val@U?$_Simple_types@D@std@@@std@@@std@@QBE_NABV01@@Z ; std::_String_const_iterator<std::_String_val<std::_Simple_types<char> > >::operator==
PUBLIC	??0_Bxty@?$_String_val@U?$_Simple_types@D@std@@@std@@QAE@XZ ; std::_String_val<std::_Simple_types<char> >::_Bxty::_Bxty
PUBLIC	??0?$allocator@VErrorInfo@Reader@Json@@@std@@QAE@XZ ; std::allocator<Json::Reader::ErrorInfo>::allocator<Json::Reader::ErrorInfo>
PUBLIC	??0?$allocator@PAVValue@Json@@@std@@QAE@XZ	; std::allocator<Json::Value *>::allocator<Json::Value *>
PUBLIC	?_Construct@?$basic_string@DU?$char_traits@D@std@@V?$allocator@D@2@@std@@QAEXPBD0Urandom_access_iterator_tag@2@@Z ; std::basic_string<char,std::char_traits<char>,std::allocator<char> >::_Construct
PUBLIC	?insert@?$basic_string@DU?$char_traits@D@std@@V?$allocator@D@2@@std@@QAEAAV12@IPBD@Z ; std::basic_string<char,std::char_traits<char>,std::allocator<char> >::insert
PUBLIC	?replace@?$basic_string@DU?$char_traits@D@std@@V?$allocator@D@2@@std@@QAEAAV12@V?$_String_const_iterator@V?$_String_val@U?$_Simple_types@D@std@@@std@@@2@0V?$_String_iterator@V?$_String_val@U?$_Simple_types@D@std@@@std@@@2@1@Z ; std::basic_string<char,std::char_traits<char>,std::allocator<char> >::replace
PUBLIC	??0?$_Wrap_alloc@V?$allocator@D@std@@@std@@QAE@XZ ; std::_Wrap_alloc<std::allocator<char> >::_Wrap_alloc<std::allocator<char> >
PUBLIC	??0?$_String_val@U?$_Simple_types@D@std@@@std@@QAE@XZ ; std::_String_val<std::_Simple_types<char> >::_String_val<std::_Simple_types<char> >
PUBLIC	?push_front@?$deque@VErrorInfo@Reader@Json@@V?$allocator@VErrorInfo@Reader@Json@@@std@@@std@@QAEXABVErrorInfo@Reader@Json@@@Z ; std::deque<Json::Reader::ErrorInfo,std::allocator<Json::Reader::ErrorInfo> >::push_front
PUBLIC	?push_front@?$deque@PAVValue@Json@@V?$allocator@PAVValue@Json@@@std@@@std@@QAEXABQAVValue@Json@@@Z ; std::deque<Json::Value *,std::allocator<Json::Value *> >::push_front
PUBLIC	?push_back@?$deque@PAVValue@Json@@V?$allocator@PAVValue@Json@@@std@@@std@@QAEXABQAVValue@Json@@@Z ; std::deque<Json::Value *,std::allocator<Json::Value *> >::push_back
PUBLIC	??0?$_Wrap_alloc@V?$allocator@PAVValue@Json@@@std@@@std@@QAE@XZ ; std::_Wrap_alloc<std::allocator<Json::Value *> >::_Wrap_alloc<std::allocator<Json::Value *> >
PUBLIC	??0?$_Deque_val@U?$_Deque_simple_types@PAVValue@Json@@@std@@@std@@QAE@XZ ; std::_Deque_val<std::_Deque_simple_types<Json::Value *> >::_Deque_val<std::_Deque_simple_types<Json::Value *> >
PUBLIC	??E?$_Deque_const_iterator@V?$_Deque_val@U?$_Deque_simple_types@PAVValue@Json@@@std@@@std@@@std@@QAEAAV01@XZ ; std::_Deque_const_iterator<std::_Deque_val<std::_Deque_simple_types<Json::Value *> > >::operator++
PUBLIC	??8?$_Deque_const_iterator@V?$_Deque_val@U?$_Deque_simple_types@PAVValue@Json@@@std@@@std@@@std@@QBE_NABV01@@Z ; std::_Deque_const_iterator<std::_Deque_val<std::_Deque_simple_types<Json::Value *> > >::operator==
PUBLIC	??9?$_Deque_const_iterator@V?$_Deque_val@U?$_Deque_simple_types@PAVValue@Json@@@std@@@std@@@std@@QBE_NABV01@@Z ; std::_Deque_const_iterator<std::_Deque_val<std::_Deque_simple_types<Json::Value *> > >::operator!=
PUBLIC	??0?$_Wrap_alloc@V?$allocator@VErrorInfo@Reader@Json@@@std@@@std@@QAE@XZ ; std::_Wrap_alloc<std::allocator<Json::Reader::ErrorInfo> >::_Wrap_alloc<std::allocator<Json::Reader::ErrorInfo> >
PUBLIC	??0?$_Deque_val@U?$_Deque_simple_types@VErrorInfo@Reader@Json@@@std@@@std@@QAE@XZ ; std::_Deque_val<std::_Deque_simple_types<Json::Reader::ErrorInfo> >::_Deque_val<std::_Deque_simple_types<Json::Reader::ErrorInfo> >
PUBLIC	??$addressof@U_Container_proxy@std@@@std@@YAPAU_Container_proxy@0@AAU10@@Z ; std::addressof<std::_Container_proxy>
PUBLIC	??$addressof@D@std@@YAPADAAD@Z			; std::addressof<char>
PUBLIC	??$move@V?$_Deque_iterator@V?$_Deque_val@U?$_Deque_simple_types@PAVValue@Json@@@std@@@std@@@std@@V12@@std@@YA?AV?$_Deque_iterator@V?$_Deque_val@U?$_Deque_simple_types@PAVValue@Json@@@std@@@std@@@0@V10@00@Z ; std::move<std::_Deque_iterator<std::_Deque_val<std::_Deque_simple_types<Json::Value *> > >,std::_Deque_iterator<std::_Deque_val<std::_Deque_simple_types<Json::Value *> > > >
PUBLIC	??$move_backward@V?$_Deque_iterator@V?$_Deque_val@U?$_Deque_simple_types@PAVValue@Json@@@std@@@std@@@std@@V12@@std@@YA?AV?$_Deque_iterator@V?$_Deque_val@U?$_Deque_simple_types@PAVValue@Json@@@std@@@std@@@0@V10@00@Z ; std::move_backward<std::_Deque_iterator<std::_Deque_val<std::_Deque_simple_types<Json::Value *> > >,std::_Deque_iterator<std::_Deque_val<std::_Deque_simple_types<Json::Value *> > > >
PUBLIC	??$_Destroy_range@V?$allocator@PAPAVValue@Json@@@std@@PAPAPAVValue@Json@@@std@@YAXPAPAPAVValue@Json@@0AAU?$_Wrap_alloc@V?$allocator@PAPAVValue@Json@@@std@@@0@@Z ; std::_Destroy_range<std::allocator<Json::Value * *>,Json::Value * * *>
PUBLIC	??$_Uninitialized_default_fill_n@PAPAPAVValue@Json@@IV?$allocator@PAPAVValue@Json@@@std@@@std@@YAXPAPAPAVValue@Json@@IAAU?$_Wrap_alloc@V?$allocator@PAPAVValue@Json@@@std@@@0@@Z ; std::_Uninitialized_default_fill_n<Json::Value * * *,unsigned int,std::allocator<Json::Value * *> >
PUBLIC	??$_Uninitialized_copy@PAPAPAVValue@Json@@PAPAPAV12@V?$allocator@PAPAVValue@Json@@@std@@@std@@YAPAPAPAVValue@Json@@PAPAPAV12@00AAU?$_Wrap_alloc@V?$allocator@PAPAVValue@Json@@@std@@@0@@Z ; std::_Uninitialized_copy<Json::Value * * *,Json::Value * * *,std::allocator<Json::Value * *> >
PUBLIC	??$?0$$V@?$_Compressed_pair@U?$_Wrap_alloc@V?$allocator@PAVValue@Json@@@std@@@std@@V?$_Deque_val@U?$_Deque_simple_types@PAVValue@Json@@@std@@@2@$00@std@@QAE@U_Zero_then_variadic_args_t@1@@Z ; std::_Compressed_pair<std::_Wrap_alloc<std::allocator<Json::Value *> >,std::_Deque_val<std::_Deque_simple_types<Json::Value *> >,1>::_Compressed_pair<std::_Wrap_alloc<std::allocator<Json::Value *> >,std::_Deque_val<std::_Deque_simple_types<Json::Value *> >,1><>
PUBLIC	??$_Pocca@U?$_Wrap_alloc@V?$allocator@PAVValue@Json@@@std@@@std@@@std@@YAXAAU?$_Wrap_alloc@V?$allocator@PAVValue@Json@@@std@@@0@ABU10@@Z ; std::_Pocca<std::_Wrap_alloc<std::allocator<Json::Value *> > >
PUBLIC	??$_Pocma@U?$_Wrap_alloc@V?$allocator@PAVValue@Json@@@std@@@std@@@std@@YAXAAU?$_Wrap_alloc@V?$allocator@PAVValue@Json@@@std@@@0@0@Z ; std::_Pocma<std::_Wrap_alloc<std::allocator<Json::Value *> > >
PUBLIC	??$?0AAU?$_Wrap_alloc@V?$allocator@PAVValue@Json@@@std@@@std@@@?$_Wrap_alloc@V?$allocator@U_Container_proxy@std@@@std@@@std@@QAE@AAU?$_Wrap_alloc@V?$allocator@PAVValue@Json@@@std@@@1@@Z ; std::_Wrap_alloc<std::allocator<std::_Container_proxy> >::_Wrap_alloc<std::allocator<std::_Container_proxy> ><std::_Wrap_alloc<std::allocator<Json::Value *> > &>
PUBLIC	??$?0V?$allocator@PAVValue@Json@@@std@@@?$_Wrap_alloc@V?$allocator@PAVValue@Json@@@std@@@std@@QAE@$$QAV?$allocator@PAVValue@Json@@@1@@Z ; std::_Wrap_alloc<std::allocator<Json::Value *> >::_Wrap_alloc<std::allocator<Json::Value *> ><std::allocator<Json::Value *> >
PUBLIC	??$construct@U_Container_proxy@std@@U12@@?$_Wrap_alloc@V?$allocator@U_Container_proxy@std@@@std@@@std@@QAEXPAU_Container_proxy@1@$$QAU21@@Z ; std::_Wrap_alloc<std::allocator<std::_Container_proxy> >::construct<std::_Container_proxy,std::_Container_proxy>
PUBLIC	??$_Unfancy@U_Container_proxy@std@@@std@@YAPAU_Container_proxy@0@PAU10@@Z ; std::_Unfancy<std::_Container_proxy>
PUBLIC	??$destroy@U_Container_proxy@std@@@?$_Wrap_alloc@V?$allocator@U_Container_proxy@std@@@std@@@std@@QAEXPAU_Container_proxy@1@@Z ; std::_Wrap_alloc<std::allocator<std::_Container_proxy> >::destroy<std::_Container_proxy>
PUBLIC	??$?0AAU?$_Wrap_alloc@V?$allocator@VErrorInfo@Reader@Json@@@std@@@std@@@?$_Wrap_alloc@V?$allocator@U_Container_proxy@std@@@std@@@std@@QAE@AAU?$_Wrap_alloc@V?$allocator@VErrorInfo@Reader@Json@@@std@@@1@@Z ; std::_Wrap_alloc<std::allocator<std::_Container_proxy> >::_Wrap_alloc<std::allocator<std::_Container_proxy> ><std::_Wrap_alloc<std::allocator<Json::Reader::ErrorInfo> > &>
PUBLIC	??$construct@PADAAPAD@?$_Wrap_alloc@V?$allocator@D@std@@@std@@QAEXPAPADAAPAD@Z ; std::_Wrap_alloc<std::allocator<char> >::construct<char *,char * &>
PUBLIC	??$_Unfancy@D@std@@YAPADPAD@Z			; std::_Unfancy<char>
PUBLIC	??$destroy@PAD@?$_Wrap_alloc@V?$allocator@D@std@@@std@@QAEXPAPAD@Z ; std::_Wrap_alloc<std::allocator<char> >::destroy<char *>
PUBLIC	??$addressof@PAD@std@@YAPAPADAAPAD@Z		; std::addressof<char *>
PUBLIC	??$?0$$V@?$_Compressed_pair@U?$_Wrap_alloc@V?$allocator@D@std@@@std@@V?$_String_val@U?$_Simple_types@D@std@@@2@$00@std@@QAE@U_Zero_then_variadic_args_t@1@@Z ; std::_Compressed_pair<std::_Wrap_alloc<std::allocator<char> >,std::_String_val<std::_Simple_types<char> >,1>::_Compressed_pair<std::_Wrap_alloc<std::allocator<char> >,std::_String_val<std::_Simple_types<char> >,1><>
PUBLIC	??$_Pocca@U?$_Wrap_alloc@V?$allocator@D@std@@@std@@@std@@YAXAAU?$_Wrap_alloc@V?$allocator@D@std@@@0@ABU10@@Z ; std::_Pocca<std::_Wrap_alloc<std::allocator<char> > >
PUBLIC	??$_Pocma@U?$_Wrap_alloc@V?$allocator@D@std@@@std@@@std@@YAXAAU?$_Wrap_alloc@V?$allocator@D@std@@@0@0@Z ; std::_Pocma<std::_Wrap_alloc<std::allocator<char> > >
PUBLIC	??$?0V?$allocator@D@std@@@?$_Wrap_alloc@V?$allocator@D@std@@@std@@QAE@$$QAV?$allocator@D@1@@Z ; std::_Wrap_alloc<std::allocator<char> >::_Wrap_alloc<std::allocator<char> ><std::allocator<char> >
PUBLIC	??$destroy@VErrorInfo@Reader@Json@@@?$_Wrap_alloc@V?$allocator@VErrorInfo@Reader@Json@@@std@@@std@@QAEXPAVErrorInfo@Reader@Json@@@Z ; std::_Wrap_alloc<std::allocator<Json::Reader::ErrorInfo> >::destroy<Json::Reader::ErrorInfo>
PUBLIC	??$move@V?$_Deque_iterator@V?$_Deque_val@U?$_Deque_simple_types@VErrorInfo@Reader@Json@@@std@@@std@@@std@@V12@@std@@YA?AV?$_Deque_iterator@V?$_Deque_val@U?$_Deque_simple_types@VErrorInfo@Reader@Json@@@std@@@std@@@0@V10@00@Z ; std::move<std::_Deque_iterator<std::_Deque_val<std::_Deque_simple_types<Json::Reader::ErrorInfo> > >,std::_Deque_iterator<std::_Deque_val<std::_Deque_simple_types<Json::Reader::ErrorInfo> > > >
PUBLIC	??$move_backward@V?$_Deque_iterator@V?$_Deque_val@U?$_Deque_simple_types@VErrorInfo@Reader@Json@@@std@@@std@@@std@@V12@@std@@YA?AV?$_Deque_iterator@V?$_Deque_val@U?$_Deque_simple_types@VErrorInfo@Reader@Json@@@std@@@std@@@0@V10@00@Z ; std::move_backward<std::_Deque_iterator<std::_Deque_val<std::_Deque_simple_types<Json::Reader::ErrorInfo> > >,std::_Deque_iterator<std::_Deque_val<std::_Deque_simple_types<Json::Reader::ErrorInfo> > > >
PUBLIC	??$_Destroy_range@V?$allocator@PAVErrorInfo@Reader@Json@@@std@@PAPAVErrorInfo@Reader@Json@@@std@@YAXPAPAVErrorInfo@Reader@Json@@0AAU?$_Wrap_alloc@V?$allocator@PAVErrorInfo@Reader@Json@@@std@@@0@@Z ; std::_Destroy_range<std::allocator<Json::Reader::ErrorInfo *>,Json::Reader::ErrorInfo * *>
PUBLIC	??$_Uninitialized_default_fill_n@PAPAVErrorInfo@Reader@Json@@IV?$allocator@PAVErrorInfo@Reader@Json@@@std@@@std@@YAXPAPAVErrorInfo@Reader@Json@@IAAU?$_Wrap_alloc@V?$allocator@PAVErrorInfo@Reader@Json@@@std@@@0@@Z ; std::_Uninitialized_default_fill_n<Json::Reader::ErrorInfo * *,unsigned int,std::allocator<Json::Reader::ErrorInfo *> >
PUBLIC	??$_Uninitialized_copy@PAPAVErrorInfo@Reader@Json@@PAPAV123@V?$allocator@PAVErrorInfo@Reader@Json@@@std@@@std@@YAPAPAVErrorInfo@Reader@Json@@PAPAV123@00AAU?$_Wrap_alloc@V?$allocator@PAVErrorInfo@Reader@Json@@@std@@@0@@Z ; std::_Uninitialized_copy<Json::Reader::ErrorInfo * *,Json::Reader::ErrorInfo * *,std::allocator<Json::Reader::ErrorInfo *> >
PUBLIC	??$destroy@PAVErrorInfo@Reader@Json@@@?$_Wrap_alloc@V?$allocator@VErrorInfo@Reader@Json@@@std@@@std@@QAEXPAPAVErrorInfo@Reader@Json@@@Z ; std::_Wrap_alloc<std::allocator<Json::Reader::ErrorInfo> >::destroy<Json::Reader::ErrorInfo *>
PUBLIC	??$addressof@PAVErrorInfo@Reader@Json@@@std@@YAPAPAVErrorInfo@Reader@Json@@AAPAV123@@Z ; std::addressof<Json::Reader::ErrorInfo *>
PUBLIC	??$?0AAU?$_Wrap_alloc@V?$allocator@VErrorInfo@Reader@Json@@@std@@@std@@@?$_Wrap_alloc@V?$allocator@PAVErrorInfo@Reader@Json@@@std@@@std@@QAE@AAU?$_Wrap_alloc@V?$allocator@VErrorInfo@Reader@Json@@@std@@@1@@Z ; std::_Wrap_alloc<std::allocator<Json::Reader::ErrorInfo *> >::_Wrap_alloc<std::allocator<Json::Reader::ErrorInfo *> ><std::_Wrap_alloc<std::allocator<Json::Reader::ErrorInfo> > &>
PUBLIC	??$_Construct@V?$_Deque_const_iterator@V?$_Deque_val@U?$_Deque_simple_types@PAVValue@Json@@@std@@@std@@@std@@@?$deque@PAVValue@Json@@V?$allocator@PAVValue@Json@@@std@@@std@@QAEXV?$_Deque_const_iterator@V?$_Deque_val@U?$_Deque_simple_types@PAVValue@Json@@@std@@@std@@@1@0@Z ; std::deque<Json::Value *,std::allocator<Json::Value *> >::_Construct<std::_Deque_const_iterator<std::_Deque_val<std::_Deque_simple_types<Json::Value *> > > >
PUBLIC	??$?0U?$_Wrap_alloc@V?$allocator@PAVValue@Json@@@std@@@std@@X@?$_Deque_alloc@U?$_Deque_base_types@PAVValue@Json@@V?$allocator@PAVValue@Json@@@std@@@std@@@std@@QAE@$$QAU?$_Wrap_alloc@V?$allocator@PAVValue@Json@@@std@@@1@@Z ; std::_Deque_alloc<std::_Deque_base_types<Json::Value *,std::allocator<Json::Value *> > >::_Deque_alloc<std::_Deque_base_types<Json::Value *,std::allocator<Json::Value *> > ><std::_Wrap_alloc<std::allocator<Json::Value *> >,void>
PUBLIC	??$move@AAU?$_Wrap_alloc@V?$allocator@PAVValue@Json@@@std@@@std@@@std@@YA$$QAU?$_Wrap_alloc@V?$allocator@PAVValue@Json@@@std@@@0@AAU10@@Z ; std::move<std::_Wrap_alloc<std::allocator<Json::Value *> > &>
PUBLIC	??$forward@V?$deque@PAVValue@Json@@V?$allocator@PAVValue@Json@@@std@@@std@@@std@@YA$$QAV?$deque@PAVValue@Json@@V?$allocator@PAVValue@Json@@@std@@@0@AAV10@@Z ; std::forward<std::deque<Json::Value *,std::allocator<Json::Value *> > >
PUBLIC	??$construct@PAVValue@Json@@PAV12@@?$_Wrap_alloc@V?$allocator@PAVValue@Json@@@std@@@std@@QAEXPAPAVValue@Json@@$$QAPAV23@@Z ; std::_Wrap_alloc<std::allocator<Json::Value *> >::construct<Json::Value *,Json::Value *>
PUBLIC	??$forward@PAVValue@Json@@@std@@YA$$QAPAVValue@Json@@AAPAV12@@Z ; std::forward<Json::Value *>
PUBLIC	??$insert@V?$_Deque_const_iterator@V?$_Deque_val@U?$_Deque_simple_types@PAVValue@Json@@@std@@@std@@@std@@@?$deque@PAVValue@Json@@V?$allocator@PAVValue@Json@@@std@@@std@@QAE?AV?$_Deque_iterator@V?$_Deque_val@U?$_Deque_simple_types@PAVValue@Json@@@std@@@std@@@1@V?$_Deque_const_iterator@V?$_Deque_val@U?$_Deque_simple_types@PAVValue@Json@@@std@@@std@@@1@00@Z ; std::deque<Json::Value *,std::allocator<Json::Value *> >::insert<std::_Deque_const_iterator<std::_Deque_val<std::_Deque_simple_types<Json::Value *> > > >
PUBLIC	??$copy@V?$_Deque_const_iterator@V?$_Deque_val@U?$_Deque_simple_types@PAVValue@Json@@@std@@@std@@@std@@V?$_Deque_iterator@V?$_Deque_val@U?$_Deque_simple_types@PAVValue@Json@@@std@@@std@@@2@@std@@YA?AV?$_Deque_iterator@V?$_Deque_val@U?$_Deque_simple_types@PAVValue@Json@@@std@@@std@@@0@V?$_Deque_const_iterator@V?$_Deque_val@U?$_Deque_simple_types@PAVValue@Json@@@std@@@std@@@0@0V10@@Z ; std::copy<std::_Deque_const_iterator<std::_Deque_val<std::_Deque_simple_types<Json::Value *> > >,std::_Deque_iterator<std::_Deque_val<std::_Deque_simple_types<Json::Value *> > > >
PUBLIC	??$?9V?$allocator@PAVValue@Json@@@std@@V01@@std@@YA_NABU?$_Wrap_alloc@V?$allocator@PAVValue@Json@@@std@@@0@0@Z ; std::operator!=<std::allocator<Json::Value *>,std::allocator<Json::Value *> >
PUBLIC	??$destroy@PAVValue@Json@@@?$_Wrap_alloc@V?$allocator@PAVValue@Json@@@std@@@std@@QAEXPAPAVValue@Json@@@Z ; std::_Wrap_alloc<std::allocator<Json::Value *> >::destroy<Json::Value *>
PUBLIC	??$_Unfancy@PAVValue@Json@@@std@@YAPAPAVValue@Json@@PAPAV12@@Z ; std::_Unfancy<Json::Value *>
PUBLIC	??$destroy@PAPAVValue@Json@@@?$_Wrap_alloc@V?$allocator@PAVValue@Json@@@std@@@std@@QAEXPAPAPAVValue@Json@@@Z ; std::_Wrap_alloc<std::allocator<Json::Value *> >::destroy<Json::Value * *>
PUBLIC	??$addressof@PAPAVValue@Json@@@std@@YAPAPAPAVValue@Json@@AAPAPAV12@@Z ; std::addressof<Json::Value * *>
PUBLIC	??$?0AAU?$_Wrap_alloc@V?$allocator@PAVValue@Json@@@std@@@std@@@?$_Wrap_alloc@V?$allocator@PAPAVValue@Json@@@std@@@std@@QAE@AAU?$_Wrap_alloc@V?$allocator@PAVValue@Json@@@std@@@1@@Z ; std::_Wrap_alloc<std::allocator<Json::Value * *> >::_Wrap_alloc<std::allocator<Json::Value * *> ><std::_Wrap_alloc<std::allocator<Json::Value *> > &>
PUBLIC	??$?0$$V@?$_Compressed_pair@U?$_Wrap_alloc@V?$allocator@VErrorInfo@Reader@Json@@@std@@@std@@V?$_Deque_val@U?$_Deque_simple_types@VErrorInfo@Reader@Json@@@std@@@2@$00@std@@QAE@U_Zero_then_variadic_args_t@1@@Z ; std::_Compressed_pair<std::_Wrap_alloc<std::allocator<Json::Reader::ErrorInfo> >,std::_Deque_val<std::_Deque_simple_types<Json::Reader::ErrorInfo> >,1>::_Compressed_pair<std::_Wrap_alloc<std::allocator<Json::Reader::ErrorInfo> >,std::_Deque_val<std::_Deque_simple_types<Json::Reader::ErrorInfo> >,1><>
PUBLIC	??$_Pocca@U?$_Wrap_alloc@V?$allocator@VErrorInfo@Reader@Json@@@std@@@std@@@std@@YAXAAU?$_Wrap_alloc@V?$allocator@VErrorInfo@Reader@Json@@@std@@@0@ABU10@@Z ; std::_Pocca<std::_Wrap_alloc<std::allocator<Json::Reader::ErrorInfo> > >
PUBLIC	??$_Pocma@U?$_Wrap_alloc@V?$allocator@VErrorInfo@Reader@Json@@@std@@@std@@@std@@YAXAAU?$_Wrap_alloc@V?$allocator@VErrorInfo@Reader@Json@@@std@@@0@0@Z ; std::_Pocma<std::_Wrap_alloc<std::allocator<Json::Reader::ErrorInfo> > >
PUBLIC	??$?0V?$allocator@VErrorInfo@Reader@Json@@@std@@@?$_Wrap_alloc@V?$allocator@VErrorInfo@Reader@Json@@@std@@@std@@QAE@$$QAV?$allocator@VErrorInfo@Reader@Json@@@1@@Z ; std::_Wrap_alloc<std::allocator<Json::Reader::ErrorInfo> >::_Wrap_alloc<std::allocator<Json::Reader::ErrorInfo> ><std::allocator<Json::Reader::ErrorInfo> >
PUBLIC	??$?0U?$_Wrap_alloc@V?$allocator@D@std@@@std@@X@?$_String_alloc@U?$_String_base_types@DV?$allocator@D@std@@@std@@@std@@QAE@$$QAU?$_Wrap_alloc@V?$allocator@D@std@@@1@@Z ; std::_String_alloc<std::_String_base_types<char,std::allocator<char> > >::_String_alloc<std::_String_base_types<char,std::allocator<char> > ><std::_Wrap_alloc<std::allocator<char> >,void>
PUBLIC	??$move@AAU?$_Wrap_alloc@V?$allocator@D@std@@@std@@@std@@YA$$QAU?$_Wrap_alloc@V?$allocator@D@std@@@0@AAU10@@Z ; std::move<std::_Wrap_alloc<std::allocator<char> > &>
PUBLIC	??$forward@V?$basic_string@DU?$char_traits@D@std@@V?$allocator@D@2@@std@@@std@@YA$$QAV?$basic_string@DU?$char_traits@D@std@@V?$allocator@D@2@@0@AAV10@@Z ; std::forward<std::basic_string<char,std::char_traits<char>,std::allocator<char> > >
PUBLIC	??$assign@V?$_String_iterator@V?$_String_val@U?$_Simple_types@D@std@@@std@@@std@@@?$basic_string@DU?$char_traits@D@std@@V?$allocator@D@2@@std@@QAEAAV01@V?$_String_iterator@V?$_String_val@U?$_Simple_types@D@std@@@std@@@1@0@Z ; std::basic_string<char,std::char_traits<char>,std::allocator<char> >::assign<std::_String_iterator<std::_String_val<std::_Simple_types<char> > > >
PUBLIC	??$?9V?$allocator@D@std@@V01@@std@@YA_NABU?$_Wrap_alloc@V?$allocator@D@std@@@0@0@Z ; std::operator!=<std::allocator<char>,std::allocator<char> >
PUBLIC	??$_Construct@V?$_Deque_const_iterator@V?$_Deque_val@U?$_Deque_simple_types@VErrorInfo@Reader@Json@@@std@@@std@@@std@@@?$deque@VErrorInfo@Reader@Json@@V?$allocator@VErrorInfo@Reader@Json@@@std@@@std@@QAEXV?$_Deque_const_iterator@V?$_Deque_val@U?$_Deque_simple_types@VErrorInfo@Reader@Json@@@std@@@std@@@1@0@Z ; std::deque<Json::Reader::ErrorInfo,std::allocator<Json::Reader::ErrorInfo> >::_Construct<std::_Deque_const_iterator<std::_Deque_val<std::_Deque_simple_types<Json::Reader::ErrorInfo> > > >
PUBLIC	??$?0U?$_Wrap_alloc@V?$allocator@VErrorInfo@Reader@Json@@@std@@@std@@X@?$_Deque_alloc@U?$_Deque_base_types@VErrorInfo@Reader@Json@@V?$allocator@VErrorInfo@Reader@Json@@@std@@@std@@@std@@QAE@$$QAU?$_Wrap_alloc@V?$allocator@VErrorInfo@Reader@Json@@@std@@@1@@Z ; std::_Deque_alloc<std::_Deque_base_types<Json::Reader::ErrorInfo,std::allocator<Json::Reader::ErrorInfo> > >::_Deque_alloc<std::_Deque_base_types<Json::Reader::ErrorInfo,std::allocator<Json::Reader::ErrorInfo> > ><std::_Wrap_alloc<std::allocator<Json::Reader::ErrorInfo> >,void>
PUBLIC	??$move@AAU?$_Wrap_alloc@V?$allocator@VErrorInfo@Reader@Json@@@std@@@std@@@std@@YA$$QAU?$_Wrap_alloc@V?$allocator@VErrorInfo@Reader@Json@@@std@@@0@AAU10@@Z ; std::move<std::_Wrap_alloc<std::allocator<Json::Reader::ErrorInfo> > &>
PUBLIC	??$forward@V?$deque@VErrorInfo@Reader@Json@@V?$allocator@VErrorInfo@Reader@Json@@@std@@@std@@@std@@YA$$QAV?$deque@VErrorInfo@Reader@Json@@V?$allocator@VErrorInfo@Reader@Json@@@std@@@0@AAV10@@Z ; std::forward<std::deque<Json::Reader::ErrorInfo,std::allocator<Json::Reader::ErrorInfo> > >
PUBLIC	??$insert@V?$_Deque_const_iterator@V?$_Deque_val@U?$_Deque_simple_types@VErrorInfo@Reader@Json@@@std@@@std@@@std@@@?$deque@VErrorInfo@Reader@Json@@V?$allocator@VErrorInfo@Reader@Json@@@std@@@std@@QAE?AV?$_Deque_iterator@V?$_Deque_val@U?$_Deque_simple_types@VErrorInfo@Reader@Json@@@std@@@std@@@1@V?$_Deque_const_iterator@V?$_Deque_val@U?$_Deque_simple_types@VErrorInfo@Reader@Json@@@std@@@std@@@1@00@Z ; std::deque<Json::Reader::ErrorInfo,std::allocator<Json::Reader::ErrorInfo> >::insert<std::_Deque_const_iterator<std::_Deque_val<std::_Deque_simple_types<Json::Reader::ErrorInfo> > > >
PUBLIC	??$copy@V?$_Deque_const_iterator@V?$_Deque_val@U?$_Deque_simple_types@VErrorInfo@Reader@Json@@@std@@@std@@@std@@V?$_Deque_iterator@V?$_Deque_val@U?$_Deque_simple_types@VErrorInfo@Reader@Json@@@std@@@std@@@2@@std@@YA?AV?$_Deque_iterator@V?$_Deque_val@U?$_Deque_simple_types@VErrorInfo@Reader@Json@@@std@@@std@@@0@V?$_Deque_const_iterator@V?$_Deque_val@U?$_Deque_simple_types@VErrorInfo@Reader@Json@@@std@@@std@@@0@0V10@@Z ; std::copy<std::_Deque_const_iterator<std::_Deque_val<std::_Deque_simple_types<Json::Reader::ErrorInfo> > >,std::_Deque_iterator<std::_Deque_val<std::_Deque_simple_types<Json::Reader::ErrorInfo> > > >
PUBLIC	??$?9V?$allocator@VErrorInfo@Reader@Json@@@std@@V01@@std@@YA_NABU?$_Wrap_alloc@V?$allocator@VErrorInfo@Reader@Json@@@std@@@0@0@Z ; std::operator!=<std::allocator<Json::Reader::ErrorInfo>,std::allocator<Json::Reader::ErrorInfo> >
PUBLIC	??$emplace_back@$$V@?$deque@VErrorInfo@Reader@Json@@V?$allocator@VErrorInfo@Reader@Json@@@std@@@std@@QAEXXZ ; std::deque<Json::Reader::ErrorInfo,std::allocator<Json::Reader::ErrorInfo> >::emplace_back<>
PUBLIC	??$construct@VErrorInfo@Reader@Json@@ABV123@@?$_Wrap_alloc@V?$allocator@VErrorInfo@Reader@Json@@@std@@@std@@QAEXPAVErrorInfo@Reader@Json@@ABV234@@Z ; std::_Wrap_alloc<std::allocator<Json::Reader::ErrorInfo> >::construct<Json::Reader::ErrorInfo,Json::Reader::ErrorInfo const &>
PUBLIC	??$_Unfancy@VErrorInfo@Reader@Json@@@std@@YAPAVErrorInfo@Reader@Json@@PAV123@@Z ; std::_Unfancy<Json::Reader::ErrorInfo>
PUBLIC	??$move@AAV?$deque@PAVValue@Json@@V?$allocator@PAVValue@Json@@@std@@@std@@@std@@YA$$QAV?$deque@PAVValue@Json@@V?$allocator@PAVValue@Json@@@std@@@0@AAV10@@Z ; std::move<std::deque<Json::Value *,std::allocator<Json::Value *> > &>
PUBLIC	??$move@AAPAVValue@Json@@@std@@YA$$QAPAVValue@Json@@AAPAV12@@Z ; std::move<Json::Value * &>
PUBLIC	??$?HDU?$char_traits@D@std@@V?$allocator@D@1@@std@@YA?AV?$basic_string@DU?$char_traits@D@std@@V?$allocator@D@2@@0@$$QAV10@PBD@Z ; std::operator+<char,std::char_traits<char>,std::allocator<char> >
PUBLIC	??$?HDU?$char_traits@D@std@@V?$allocator@D@1@@std@@YA?AV?$basic_string@DU?$char_traits@D@std@@V?$allocator@D@2@@0@PBD$$QAV10@@Z ; std::operator+<char,std::char_traits<char>,std::allocator<char> >
PUBLIC	??$?HDU?$char_traits@D@std@@V?$allocator@D@1@@std@@YA?AV?$basic_string@DU?$char_traits@D@std@@V?$allocator@D@2@@0@PBDABV10@@Z ; std::operator+<char,std::char_traits<char>,std::allocator<char> >
PUBLIC	??$?0PBDX@?$basic_string@DU?$char_traits@D@std@@V?$allocator@D@2@@std@@QAE@PBD0ABV?$allocator@D@1@@Z ; std::basic_string<char,std::char_traits<char>,std::allocator<char> >::basic_string<char,std::char_traits<char>,std::allocator<char> ><char const *,void>
PUBLIC	??$getline@DU?$char_traits@D@std@@V?$allocator@D@2@@std@@YAAAV?$basic_istream@DU?$char_traits@D@std@@@0@AAV10@AAV?$basic_string@DU?$char_traits@D@std@@V?$allocator@D@2@@0@D@Z ; std::getline<char,std::char_traits<char>,std::allocator<char> >
PUBLIC	??$__vcrt_va_start_verify_argument_type@QBD@@YAXXZ ; __vcrt_va_start_verify_argument_type<char const * const>
PUBLIC	?max_size@?$allocator@PAVValue@Json@@@std@@QBEIXZ ; std::allocator<Json::Value *>::max_size
PUBLIC	?max_size@?$allocator@D@std@@QBEIXZ		; std::allocator<char>::max_size
PUBLIC	?max_size@?$allocator@VErrorInfo@Reader@Json@@@std@@QBEIXZ ; std::allocator<Json::Reader::ErrorInfo>::max_size
PUBLIC	?max_size@?$allocator_traits@V?$allocator@PAVValue@Json@@@std@@@std@@SAIABV?$allocator@PAVValue@Json@@@2@@Z ; std::allocator_traits<std::allocator<Json::Value *> >::max_size
PUBLIC	?_Compat@?$_Deque_const_iterator@V?$_Deque_val@U?$_Deque_simple_types@PAVValue@Json@@@std@@@std@@@std@@QBEXABV12@@Z ; std::_Deque_const_iterator<std::_Deque_val<std::_Deque_simple_types<Json::Value *> > >::_Compat
PUBLIC	?allocate@?$allocator@D@std@@QAEPADI@Z		; std::allocator<char>::allocate
PUBLIC	?max_size@?$allocator_traits@V?$allocator@D@std@@@std@@SAIABV?$allocator@D@2@@Z ; std::allocator_traits<std::allocator<char> >::max_size
PUBLIC	??0?$allocator@PAVValue@Json@@@std@@QAE@ABV01@@Z ; std::allocator<Json::Value *>::allocator<Json::Value *>
PUBLIC	?max_size@?$_Wrap_alloc@V?$allocator@PAVValue@Json@@@std@@@std@@QBEIU_Nil@2@@Z ; std::_Wrap_alloc<std::allocator<Json::Value *> >::max_size
PUBLIC	?allocate@?$allocator@PAPAVValue@Json@@@std@@QAEPAPAPAVValue@Json@@I@Z ; std::allocator<Json::Value * *>::allocate
PUBLIC	??Y?$_Deque_iterator@V?$_Deque_val@U?$_Deque_simple_types@PAVValue@Json@@@std@@@std@@@std@@QAEAAV01@H@Z ; std::_Deque_iterator<std::_Deque_val<std::_Deque_simple_types<Json::Value *> > >::operator+=
PUBLIC	??G?$_Deque_const_iterator@V?$_Deque_val@U?$_Deque_simple_types@PAVValue@Json@@@std@@@std@@@std@@QBEHABV01@@Z ; std::_Deque_const_iterator<std::_Deque_val<std::_Deque_simple_types<Json::Value *> > >::operator-
PUBLIC	?_Setcont@?$_Deque_const_iterator@V?$_Deque_val@U?$_Deque_simple_types@PAVValue@Json@@@std@@@std@@@std@@QAEXPBV?$_Deque_val@U?$_Deque_simple_types@PAVValue@Json@@@std@@@2@@Z ; std::_Deque_const_iterator<std::_Deque_val<std::_Deque_simple_types<Json::Value *> > >::_Setcont
PUBLIC	?_Get_second@?$_Compressed_pair@U?$_Wrap_alloc@V?$allocator@PAVValue@Json@@@std@@@std@@V?$_Deque_val@U?$_Deque_simple_types@PAVValue@Json@@@std@@@2@$00@std@@QAEAAV?$_Deque_val@U?$_Deque_simple_types@PAVValue@Json@@@std@@@2@XZ ; std::_Compressed_pair<std::_Wrap_alloc<std::allocator<Json::Value *> >,std::_Deque_val<std::_Deque_simple_types<Json::Value *> >,1>::_Get_second
PUBLIC	?_Get_second@?$_Compressed_pair@U?$_Wrap_alloc@V?$allocator@PAVValue@Json@@@std@@@std@@V?$_Deque_val@U?$_Deque_simple_types@PAVValue@Json@@@std@@@2@$00@std@@QBEABV?$_Deque_val@U?$_Deque_simple_types@PAVValue@Json@@@std@@@2@XZ ; std::_Compressed_pair<std::_Wrap_alloc<std::allocator<Json::Value *> >,std::_Deque_val<std::_Deque_simple_types<Json::Value *> >,1>::_Get_second
PUBLIC	?max_size@?$allocator_traits@V?$allocator@VErrorInfo@Reader@Json@@@std@@@std@@SAIABV?$allocator@VErrorInfo@Reader@Json@@@2@@Z ; std::allocator_traits<std::allocator<Json::Reader::ErrorInfo> >::max_size
PUBLIC	?deallocate@?$allocator@U_Container_proxy@std@@@std@@QAEXPAU_Container_proxy@2@I@Z ; std::allocator<std::_Container_proxy>::deallocate
PUBLIC	?allocate@?$allocator@U_Container_proxy@std@@@std@@QAEPAU_Container_proxy@2@I@Z ; std::allocator<std::_Container_proxy>::allocate
PUBLIC	?pointer_to@?$pointer_traits@PAU_Container_proxy@std@@@std@@SAPAU_Container_proxy@2@AAU32@@Z ; std::pointer_traits<std::_Container_proxy *>::pointer_to
PUBLIC	??0?$allocator@D@std@@QAE@ABV01@@Z		; std::allocator<char>::allocator<char>
PUBLIC	?deallocate@?$allocator@D@std@@QAEXPADI@Z	; std::allocator<char>::deallocate
PUBLIC	?_Xran@?$basic_string@DU?$char_traits@D@std@@V?$allocator@D@2@@std@@QBEXXZ ; std::basic_string<char,std::char_traits<char>,std::allocator<char> >::_Xran
PUBLIC	?allocate@?$_Wrap_alloc@V?$allocator@D@std@@@std@@QAEPADI@Z ; std::_Wrap_alloc<std::allocator<char> >::allocate
PUBLIC	?max_size@?$_Wrap_alloc@V?$allocator@D@std@@@std@@QBEIU_Nil@2@@Z ; std::_Wrap_alloc<std::allocator<char> >::max_size
PUBLIC	??0?$_String_const_iterator@V?$_String_val@U?$_Simple_types@D@std@@@std@@@std@@QAE@PBDPBU_Container_base0@1@@Z ; std::_String_const_iterator<std::_String_val<std::_Simple_types<char> > >::_String_const_iterator<std::_String_val<std::_Simple_types<char> > >
PUBLIC	?_Get_second@?$_Compressed_pair@U?$_Wrap_alloc@V?$allocator@D@std@@@std@@V?$_String_val@U?$_Simple_types@D@std@@@2@$00@std@@QAEAAV?$_String_val@U?$_Simple_types@D@std@@@2@XZ ; std::_Compressed_pair<std::_Wrap_alloc<std::allocator<char> >,std::_String_val<std::_Simple_types<char> >,1>::_Get_second
PUBLIC	?_Get_second@?$_Compressed_pair@U?$_Wrap_alloc@V?$allocator@D@std@@@std@@V?$_String_val@U?$_Simple_types@D@std@@@2@$00@std@@QBEABV?$_String_val@U?$_Simple_types@D@std@@@2@XZ ; std::_Compressed_pair<std::_Wrap_alloc<std::allocator<char> >,std::_String_val<std::_Simple_types<char> >,1>::_Get_second
PUBLIC	??0?$allocator@VErrorInfo@Reader@Json@@@std@@QAE@ABV01@@Z ; std::allocator<Json::Reader::ErrorInfo>::allocator<Json::Reader::ErrorInfo>
PUBLIC	?deallocate@?$allocator@VErrorInfo@Reader@Json@@@std@@QAEXPAVErrorInfo@Reader@Json@@I@Z ; std::allocator<Json::Reader::ErrorInfo>::deallocate
PUBLIC	?deallocate@?$allocator@PAVValue@Json@@@std@@QAEXPAPAVValue@Json@@I@Z ; std::allocator<Json::Value *>::deallocate
PUBLIC	?allocate@?$allocator@PAVValue@Json@@@std@@QAEPAPAVValue@Json@@I@Z ; std::allocator<Json::Value *>::allocate
PUBLIC	?_Make_iter@?$deque@PAVValue@Json@@V?$allocator@PAVValue@Json@@@std@@@std@@QBE?AV?$_Deque_iterator@V?$_Deque_val@U?$_Deque_simple_types@PAVValue@Json@@@std@@@std@@@2@V?$_Deque_const_iterator@V?$_Deque_val@U?$_Deque_simple_types@PAVValue@Json@@@std@@@std@@@2@@Z ; std::deque<Json::Value *,std::allocator<Json::Value *> >::_Make_iter
PUBLIC	?max_size@?$deque@PAVValue@Json@@V?$allocator@PAVValue@Json@@@std@@@std@@QBEIXZ ; std::deque<Json::Value *,std::allocator<Json::Value *> >::max_size
PUBLIC	?pop_front@?$deque@PAVValue@Json@@V?$allocator@PAVValue@Json@@@std@@@std@@QAEXXZ ; std::deque<Json::Value *,std::allocator<Json::Value *> >::pop_front
PUBLIC	?_Xlen@?$deque@PAVValue@Json@@V?$allocator@PAVValue@Json@@@std@@@std@@IBEXXZ ; std::deque<Json::Value *,std::allocator<Json::Value *> >::_Xlen
PUBLIC	?_Alloc_proxy@?$_Deque_alloc@U?$_Deque_base_types@PAVValue@Json@@V?$allocator@PAVValue@Json@@@std@@@std@@@std@@QAEXXZ ; std::_Deque_alloc<std::_Deque_base_types<Json::Value *,std::allocator<Json::Value *> > >::_Alloc_proxy
PUBLIC	?_Myproxy@?$_Deque_alloc@U?$_Deque_base_types@PAVValue@Json@@V?$allocator@PAVValue@Json@@@std@@@std@@@std@@QAEAAPAU_Container_proxy@2@XZ ; std::_Deque_alloc<std::_Deque_base_types<Json::Value *,std::allocator<Json::Value *> > >::_Myproxy
PUBLIC	?_Swap_all@?$_Deque_alloc@U?$_Deque_base_types@PAVValue@Json@@V?$allocator@PAVValue@Json@@@std@@@std@@@std@@QAEXAAV12@@Z ; std::_Deque_alloc<std::_Deque_base_types<Json::Value *,std::allocator<Json::Value *> > >::_Swap_all
PUBLIC	?_Get_data@?$_Deque_alloc@U?$_Deque_base_types@PAVValue@Json@@V?$allocator@PAVValue@Json@@@std@@@std@@@std@@QAEAAV?$_Deque_val@U?$_Deque_simple_types@PAVValue@Json@@@std@@@2@XZ ; std::_Deque_alloc<std::_Deque_base_types<Json::Value *,std::allocator<Json::Value *> > >::_Get_data
PUBLIC	?_Get_data@?$_Deque_alloc@U?$_Deque_base_types@PAVValue@Json@@V?$allocator@PAVValue@Json@@@std@@@std@@@std@@QBEABV?$_Deque_val@U?$_Deque_simple_types@PAVValue@Json@@@std@@@2@XZ ; std::_Deque_alloc<std::_Deque_base_types<Json::Value *,std::allocator<Json::Value *> > >::_Get_data
PUBLIC	?_Myoff@?$_Deque_alloc@U?$_Deque_base_types@PAVValue@Json@@V?$allocator@PAVValue@Json@@@std@@@std@@@std@@QBEABIXZ ; std::_Deque_alloc<std::_Deque_base_types<Json::Value *,std::allocator<Json::Value *> > >::_Myoff
PUBLIC	?select_on_container_copy_construction@?$allocator_traits@V?$allocator@PAVValue@Json@@@std@@@std@@SA?AV?$allocator@PAVValue@Json@@@2@ABV32@@Z ; std::allocator_traits<std::allocator<Json::Value *> >::select_on_container_copy_construction
PUBLIC	?deallocate@?$allocator@PAPAVValue@Json@@@std@@QAEXPAPAPAVValue@Json@@I@Z ; std::allocator<Json::Value * *>::deallocate
PUBLIC	?allocate@?$_Wrap_alloc@V?$allocator@PAPAVValue@Json@@@std@@@std@@QAEPAPAPAVValue@Json@@I@Z ; std::_Wrap_alloc<std::allocator<Json::Value * *> >::allocate
PUBLIC	?_Getblock@?$_Deque_val@U?$_Deque_simple_types@PAVValue@Json@@@std@@@std@@QBEII@Z ; std::_Deque_val<std::_Deque_simple_types<Json::Value *> >::_Getblock
PUBLIC	??0?$_Deque_iterator@V?$_Deque_val@U?$_Deque_simple_types@PAVValue@Json@@@std@@@std@@@std@@QAE@IPBU_Container_base12@1@@Z ; std::_Deque_iterator<std::_Deque_val<std::_Deque_simple_types<Json::Value *> > >::_Deque_iterator<std::_Deque_val<std::_Deque_simple_types<Json::Value *> > >
PUBLIC	??H?$_Deque_iterator@V?$_Deque_val@U?$_Deque_simple_types@PAVValue@Json@@@std@@@std@@@std@@QBE?AV01@H@Z ; std::_Deque_iterator<std::_Deque_val<std::_Deque_simple_types<Json::Value *> > >::operator+
PUBLIC	??Z?$_Deque_iterator@V?$_Deque_val@U?$_Deque_simple_types@PAVValue@Json@@@std@@@std@@@std@@QAEAAV01@H@Z ; std::_Deque_iterator<std::_Deque_val<std::_Deque_simple_types<Json::Value *> > >::operator-=
PUBLIC	??G?$_Deque_iterator@V?$_Deque_val@U?$_Deque_simple_types@PAVValue@Json@@@std@@@std@@@std@@QBEHABV?$_Deque_const_iterator@V?$_Deque_val@U?$_Deque_simple_types@PAVValue@Json@@@std@@@std@@@1@@Z ; std::_Deque_iterator<std::_Deque_val<std::_Deque_simple_types<Json::Value *> > >::operator-
PUBLIC	??0?$_Deque_const_iterator@V?$_Deque_val@U?$_Deque_simple_types@PAVValue@Json@@@std@@@std@@@std@@QAE@IPBU_Container_base12@1@@Z ; std::_Deque_const_iterator<std::_Deque_val<std::_Deque_simple_types<Json::Value *> > >::_Deque_const_iterator<std::_Deque_val<std::_Deque_simple_types<Json::Value *> > >
PUBLIC	??D?$_Deque_const_iterator@V?$_Deque_val@U?$_Deque_simple_types@PAVValue@Json@@@std@@@std@@@std@@QBEABQAVValue@Json@@XZ ; std::_Deque_const_iterator<std::_Deque_val<std::_Deque_simple_types<Json::Value *> > >::operator*
PUBLIC	??Y?$_Deque_const_iterator@V?$_Deque_val@U?$_Deque_simple_types@PAVValue@Json@@@std@@@std@@@std@@QAEAAV01@H@Z ; std::_Deque_const_iterator<std::_Deque_val<std::_Deque_simple_types<Json::Value *> > >::operator+=
PUBLIC	?_Get_first@?$_Compressed_pair@U?$_Wrap_alloc@V?$allocator@PAVValue@Json@@@std@@@std@@V?$_Deque_val@U?$_Deque_simple_types@PAVValue@Json@@@std@@@2@$00@std@@QAEAAU?$_Wrap_alloc@V?$allocator@PAVValue@Json@@@std@@@2@XZ ; std::_Compressed_pair<std::_Wrap_alloc<std::allocator<Json::Value *> >,std::_Deque_val<std::_Deque_simple_types<Json::Value *> >,1>::_Get_first
PUBLIC	?_Get_first@?$_Compressed_pair@U?$_Wrap_alloc@V?$allocator@PAVValue@Json@@@std@@@std@@V?$_Deque_val@U?$_Deque_simple_types@PAVValue@Json@@@std@@@2@$00@std@@QBEABU?$_Wrap_alloc@V?$allocator@PAVValue@Json@@@std@@@2@XZ ; std::_Compressed_pair<std::_Wrap_alloc<std::allocator<Json::Value *> >,std::_Deque_val<std::_Deque_simple_types<Json::Value *> >,1>::_Get_first
PUBLIC	?_Myproxy@?$_Deque_alloc@U?$_Deque_base_types@VErrorInfo@Reader@Json@@V?$allocator@VErrorInfo@Reader@Json@@@std@@@std@@@std@@QAEAAPAU_Container_proxy@2@XZ ; std::_Deque_alloc<std::_Deque_base_types<Json::Reader::ErrorInfo,std::allocator<Json::Reader::ErrorInfo> > >::_Myproxy
PUBLIC	?max_size@?$_Wrap_alloc@V?$allocator@VErrorInfo@Reader@Json@@@std@@@std@@QBEIU_Nil@2@@Z ; std::_Wrap_alloc<std::allocator<Json::Reader::ErrorInfo> >::max_size
PUBLIC	?deallocate@?$allocator@PAVErrorInfo@Reader@Json@@@std@@QAEXPAPAVErrorInfo@Reader@Json@@I@Z ; std::allocator<Json::Reader::ErrorInfo *>::deallocate
PUBLIC	?allocate@?$allocator@PAVErrorInfo@Reader@Json@@@std@@QAEPAPAVErrorInfo@Reader@Json@@I@Z ; std::allocator<Json::Reader::ErrorInfo *>::allocate
PUBLIC	??Y?$_Deque_iterator@V?$_Deque_val@U?$_Deque_simple_types@VErrorInfo@Reader@Json@@@std@@@std@@@std@@QAEAAV01@H@Z ; std::_Deque_iterator<std::_Deque_val<std::_Deque_simple_types<Json::Reader::ErrorInfo> > >::operator+=
PUBLIC	??G?$_Deque_const_iterator@V?$_Deque_val@U?$_Deque_simple_types@VErrorInfo@Reader@Json@@@std@@@std@@@std@@QBEHABV01@@Z ; std::_Deque_const_iterator<std::_Deque_val<std::_Deque_simple_types<Json::Reader::ErrorInfo> > >::operator-
PUBLIC	?_Get_second@?$_Compressed_pair@U?$_Wrap_alloc@V?$allocator@VErrorInfo@Reader@Json@@@std@@@std@@V?$_Deque_val@U?$_Deque_simple_types@VErrorInfo@Reader@Json@@@std@@@2@$00@std@@QAEAAV?$_Deque_val@U?$_Deque_simple_types@VErrorInfo@Reader@Json@@@std@@@2@XZ ; std::_Compressed_pair<std::_Wrap_alloc<std::allocator<Json::Reader::ErrorInfo> >,std::_Deque_val<std::_Deque_simple_types<Json::Reader::ErrorInfo> >,1>::_Get_second
PUBLIC	?address@?$_Wrap_alloc@V?$allocator@U_Container_proxy@std@@@std@@@std@@QBEPAU_Container_proxy@2@AAU32@@Z ; std::_Wrap_alloc<std::allocator<std::_Container_proxy> >::address
PUBLIC	?allocate@?$_Wrap_alloc@V?$allocator@U_Container_proxy@std@@@std@@@std@@QAEPAU_Container_proxy@2@I@Z ; std::_Wrap_alloc<std::allocator<std::_Container_proxy> >::allocate
PUBLIC	?deallocate@?$_Wrap_alloc@V?$allocator@U_Container_proxy@std@@@std@@@std@@QAEXPAU_Container_proxy@2@I@Z ; std::_Wrap_alloc<std::allocator<std::_Container_proxy> >::deallocate
PUBLIC	?pointer_to@?$pointer_traits@PAD@std@@SAPADAAD@Z ; std::pointer_traits<char *>::pointer_to
PUBLIC	??0?$_Deque_iterator@V?$_Deque_val@U?$_Deque_simple_types@PAVValue@Json@@@std@@@std@@@std@@QAE@ABV01@@Z ; std::_Deque_iterator<std::_Deque_val<std::_Deque_simple_types<Json::Value *> > >::_Deque_iterator<std::_Deque_val<std::_Deque_simple_types<Json::Value *> > >
PUBLIC	?erase@?$basic_string@DU?$char_traits@D@std@@V?$allocator@D@2@@std@@QAEAAV12@I@Z ; std::basic_string<char,std::char_traits<char>,std::allocator<char> >::erase
PUBLIC	?erase@?$basic_string@DU?$char_traits@D@std@@V?$allocator@D@2@@std@@QAEAAV12@II@Z ; std::basic_string<char,std::char_traits<char>,std::allocator<char> >::erase
PUBLIC	?max_size@?$basic_string@DU?$char_traits@D@std@@V?$allocator@D@2@@std@@QBEIXZ ; std::basic_string<char,std::char_traits<char>,std::allocator<char> >::max_size
PUBLIC	?_Clamp_suffix_size@?$basic_string@DU?$char_traits@D@std@@V?$allocator@D@2@@std@@QBEIII@Z ; std::basic_string<char,std::char_traits<char>,std::allocator<char> >::_Clamp_suffix_size
PUBLIC	?_Chassign@?$basic_string@DU?$char_traits@D@std@@V?$allocator@D@2@@std@@QAEXIID@Z ; std::basic_string<char,std::char_traits<char>,std::allocator<char> >::_Chassign
PUBLIC	?_Copy@?$basic_string@DU?$char_traits@D@std@@V?$allocator@D@2@@std@@QAEXII@Z ; std::basic_string<char,std::char_traits<char>,std::allocator<char> >::_Copy
PUBLIC	?_Inside@?$basic_string@DU?$char_traits@D@std@@V?$allocator@D@2@@std@@QAE_NPBD@Z ; std::basic_string<char,std::char_traits<char>,std::allocator<char> >::_Inside
PUBLIC	?_Xlen@?$basic_string@DU?$char_traits@D@std@@V?$allocator@D@2@@std@@QBEXXZ ; std::basic_string<char,std::char_traits<char>,std::allocator<char> >::_Xlen
PUBLIC	?_Check_offset@?$basic_string@DU?$char_traits@D@std@@V?$allocator@D@2@@std@@QBEXI@Z ; std::basic_string<char,std::char_traits<char>,std::allocator<char> >::_Check_offset
PUBLIC	?_Get_data@?$_String_alloc@U?$_String_base_types@DV?$allocator@D@std@@@std@@@std@@QAEAAV?$_String_val@U?$_Simple_types@D@std@@@2@XZ ; std::_String_alloc<std::_String_base_types<char,std::allocator<char> > >::_Get_data
PUBLIC	?_Get_data@?$_String_alloc@U?$_String_base_types@DV?$allocator@D@std@@@std@@@std@@QBEABV?$_String_val@U?$_Simple_types@D@std@@@2@XZ ; std::_String_alloc<std::_String_base_types<char,std::allocator<char> > >::_Get_data
PUBLIC	?_Bx@?$_String_alloc@U?$_String_base_types@DV?$allocator@D@std@@@std@@@std@@QAEAAT_Bxty@?$_String_val@U?$_Simple_types@D@std@@@2@XZ ; std::_String_alloc<std::_String_base_types<char,std::allocator<char> > >::_Bx
PUBLIC	?address@?$_Wrap_alloc@V?$allocator@D@std@@@std@@QBEPADAAD@Z ; std::_Wrap_alloc<std::allocator<char> >::address
PUBLIC	?deallocate@?$_Wrap_alloc@V?$allocator@D@std@@@std@@QAEXPADI@Z ; std::_Wrap_alloc<std::allocator<char> >::deallocate
PUBLIC	?select_on_container_copy_construction@?$allocator_traits@V?$allocator@D@std@@@std@@SA?AV?$allocator@D@2@ABV32@@Z ; std::allocator_traits<std::allocator<char> >::select_on_container_copy_construction
PUBLIC	?_Myptr@?$_String_val@U?$_Simple_types@D@std@@@std@@QAEPADXZ ; std::_String_val<std::_Simple_types<char> >::_Myptr
PUBLIC	?_Myptr@?$_String_val@U?$_Simple_types@D@std@@@std@@QBEPBDXZ ; std::_String_val<std::_Simple_types<char> >::_Myptr
PUBLIC	??0?$_String_iterator@V?$_String_val@U?$_Simple_types@D@std@@@std@@@std@@QAE@PADPBU_Container_base0@1@@Z ; std::_String_iterator<std::_String_val<std::_Simple_types<char> > >::_String_iterator<std::_String_val<std::_Simple_types<char> > >
PUBLIC	?_Get_first@?$_Compressed_pair@U?$_Wrap_alloc@V?$allocator@D@std@@@std@@V?$_String_val@U?$_Simple_types@D@std@@@2@$00@std@@QAEAAU?$_Wrap_alloc@V?$allocator@D@std@@@2@XZ ; std::_Compressed_pair<std::_Wrap_alloc<std::allocator<char> >,std::_String_val<std::_Simple_types<char> >,1>::_Get_first
PUBLIC	?_Get_first@?$_Compressed_pair@U?$_Wrap_alloc@V?$allocator@D@std@@@std@@V?$_String_val@U?$_Simple_types@D@std@@@2@$00@std@@QBEABU?$_Wrap_alloc@V?$allocator@D@std@@@2@XZ ; std::_Compressed_pair<std::_Wrap_alloc<std::allocator<char> >,std::_String_val<std::_Simple_types<char> >,1>::_Get_first
PUBLIC	?allocate@?$allocator@VErrorInfo@Reader@Json@@@std@@QAEPAVErrorInfo@Reader@Json@@I@Z ; std::allocator<Json::Reader::ErrorInfo>::allocate
PUBLIC	?_Make_iter@?$deque@VErrorInfo@Reader@Json@@V?$allocator@VErrorInfo@Reader@Json@@@std@@@std@@QBE?AV?$_Deque_iterator@V?$_Deque_val@U?$_Deque_simple_types@VErrorInfo@Reader@Json@@@std@@@std@@@2@V?$_Deque_const_iterator@V?$_Deque_val@U?$_Deque_simple_types@VErrorInfo@Reader@Json@@@std@@@std@@@2@@Z ; std::deque<Json::Reader::ErrorInfo,std::allocator<Json::Reader::ErrorInfo> >::_Make_iter
PUBLIC	?max_size@?$deque@VErrorInfo@Reader@Json@@V?$allocator@VErrorInfo@Reader@Json@@@std@@@std@@QBEIXZ ; std::deque<Json::Reader::ErrorInfo,std::allocator<Json::Reader::ErrorInfo> >::max_size
PUBLIC	?empty@?$deque@VErrorInfo@Reader@Json@@V?$allocator@VErrorInfo@Reader@Json@@@std@@@std@@QBE_NXZ ; std::deque<Json::Reader::ErrorInfo,std::allocator<Json::Reader::ErrorInfo> >::empty
PUBLIC	?pop_front@?$deque@VErrorInfo@Reader@Json@@V?$allocator@VErrorInfo@Reader@Json@@@std@@@std@@QAEXXZ ; std::deque<Json::Reader::ErrorInfo,std::allocator<Json::Reader::ErrorInfo> >::pop_front
PUBLIC	?_Xlen@?$deque@VErrorInfo@Reader@Json@@V?$allocator@VErrorInfo@Reader@Json@@@std@@@std@@IBEXXZ ; std::deque<Json::Reader::ErrorInfo,std::allocator<Json::Reader::ErrorInfo> >::_Xlen
PUBLIC	?_Assign_rv@?$deque@PAVValue@Json@@V?$allocator@PAVValue@Json@@@std@@@std@@QAEX$$QAV12@U?$integral_constant@_N$00@2@@Z ; std::deque<Json::Value *,std::allocator<Json::Value *> >::_Assign_rv
PUBLIC	?_Assign_rv@?$deque@PAVValue@Json@@V?$allocator@PAVValue@Json@@@std@@@std@@QAEX$$QAV12@@Z ; std::deque<Json::Value *,std::allocator<Json::Value *> >::_Assign_rv
PUBLIC	?begin@?$deque@PAVValue@Json@@V?$allocator@PAVValue@Json@@@std@@@std@@QAE?AV?$_Deque_iterator@V?$_Deque_val@U?$_Deque_simple_types@PAVValue@Json@@@std@@@std@@@2@XZ ; std::deque<Json::Value *,std::allocator<Json::Value *> >::begin
PUBLIC	?begin@?$deque@PAVValue@Json@@V?$allocator@PAVValue@Json@@@std@@@std@@QBE?AV?$_Deque_const_iterator@V?$_Deque_val@U?$_Deque_simple_types@PAVValue@Json@@@std@@@std@@@2@XZ ; std::deque<Json::Value *,std::allocator<Json::Value *> >::begin
PUBLIC	?end@?$deque@PAVValue@Json@@V?$allocator@PAVValue@Json@@@std@@@std@@QAE?AV?$_Deque_iterator@V?$_Deque_val@U?$_Deque_simple_types@PAVValue@Json@@@std@@@std@@@2@XZ ; std::deque<Json::Value *,std::allocator<Json::Value *> >::end
PUBLIC	?end@?$deque@PAVValue@Json@@V?$allocator@PAVValue@Json@@@std@@@std@@QBE?AV?$_Deque_const_iterator@V?$_Deque_val@U?$_Deque_simple_types@PAVValue@Json@@@std@@@std@@@2@XZ ; std::deque<Json::Value *,std::allocator<Json::Value *> >::end
PUBLIC	?erase@?$deque@PAVValue@Json@@V?$allocator@PAVValue@Json@@@std@@@std@@QAE?AV?$_Deque_iterator@V?$_Deque_val@U?$_Deque_simple_types@PAVValue@Json@@@std@@@std@@@2@V?$_Deque_const_iterator@V?$_Deque_val@U?$_Deque_simple_types@PAVValue@Json@@@std@@@std@@@2@0@Z ; std::deque<Json::Value *,std::allocator<Json::Value *> >::erase
PUBLIC	?clear@?$deque@PAVValue@Json@@V?$allocator@PAVValue@Json@@@std@@@std@@QAEXXZ ; std::deque<Json::Value *,std::allocator<Json::Value *> >::clear
PUBLIC	?_Growmap@?$deque@PAVValue@Json@@V?$allocator@PAVValue@Json@@@std@@@std@@IAEXI@Z ; std::deque<Json::Value *,std::allocator<Json::Value *> >::_Growmap
PUBLIC	?_Getblock@?$_Deque_alloc@U?$_Deque_base_types@PAVValue@Json@@V?$allocator@PAVValue@Json@@@std@@@std@@@std@@QBEII@Z ; std::_Deque_alloc<std::_Deque_base_types<Json::Value *,std::allocator<Json::Value *> > >::_Getblock
PUBLIC	??0?$_Deque_alloc@U?$_Deque_base_types@PAVValue@Json@@V?$allocator@PAVValue@Json@@@std@@@std@@@std@@QAE@XZ ; std::_Deque_alloc<std::_Deque_base_types<Json::Value *,std::allocator<Json::Value *> > >::_Deque_alloc<std::_Deque_base_types<Json::Value *,std::allocator<Json::Value *> > >
PUBLIC	?_Copy_alloc@?$_Deque_alloc@U?$_Deque_base_types@PAVValue@Json@@V?$allocator@PAVValue@Json@@@std@@@std@@@std@@QAEXABU?$_Wrap_alloc@V?$allocator@PAVValue@Json@@@std@@@2@@Z ; std::_Deque_alloc<std::_Deque_base_types<Json::Value *,std::allocator<Json::Value *> > >::_Copy_alloc
PUBLIC	?_Move_alloc@?$_Deque_alloc@U?$_Deque_base_types@PAVValue@Json@@V?$allocator@PAVValue@Json@@@std@@@std@@@std@@QAEXAAU?$_Wrap_alloc@V?$allocator@PAVValue@Json@@@std@@@2@@Z ; std::_Deque_alloc<std::_Deque_base_types<Json::Value *,std::allocator<Json::Value *> > >::_Move_alloc
PUBLIC	?_Free_proxy@?$_Deque_alloc@U?$_Deque_base_types@PAVValue@Json@@V?$allocator@PAVValue@Json@@@std@@@std@@@std@@QAEXXZ ; std::_Deque_alloc<std::_Deque_base_types<Json::Value *,std::allocator<Json::Value *> > >::_Free_proxy
PUBLIC	?_Orphan_all@?$_Deque_alloc@U?$_Deque_base_types@PAVValue@Json@@V?$allocator@PAVValue@Json@@@std@@@std@@@std@@QAEXXZ ; std::_Deque_alloc<std::_Deque_base_types<Json::Value *,std::allocator<Json::Value *> > >::_Orphan_all
PUBLIC	?_Getal@?$_Deque_alloc@U?$_Deque_base_types@PAVValue@Json@@V?$allocator@PAVValue@Json@@@std@@@std@@@std@@QAEAAU?$_Wrap_alloc@V?$allocator@PAVValue@Json@@@std@@@2@XZ ; std::_Deque_alloc<std::_Deque_base_types<Json::Value *,std::allocator<Json::Value *> > >::_Getal
PUBLIC	?_Getal@?$_Deque_alloc@U?$_Deque_base_types@PAVValue@Json@@V?$allocator@PAVValue@Json@@@std@@@std@@@std@@QBEABU?$_Wrap_alloc@V?$allocator@PAVValue@Json@@@std@@@2@XZ ; std::_Deque_alloc<std::_Deque_base_types<Json::Value *,std::allocator<Json::Value *> > >::_Getal
PUBLIC	?_Map@?$_Deque_alloc@U?$_Deque_base_types@PAVValue@Json@@V?$allocator@PAVValue@Json@@@std@@@std@@@std@@QAEAAPAPAPAVValue@Json@@XZ ; std::_Deque_alloc<std::_Deque_base_types<Json::Value *,std::allocator<Json::Value *> > >::_Map
PUBLIC	?_Mapsize@?$_Deque_alloc@U?$_Deque_base_types@PAVValue@Json@@V?$allocator@PAVValue@Json@@@std@@@std@@@std@@QAEAAIXZ ; std::_Deque_alloc<std::_Deque_base_types<Json::Value *,std::allocator<Json::Value *> > >::_Mapsize
PUBLIC	?_Myoff@?$_Deque_alloc@U?$_Deque_base_types@PAVValue@Json@@V?$allocator@PAVValue@Json@@@std@@@std@@@std@@QAEAAIXZ ; std::_Deque_alloc<std::_Deque_base_types<Json::Value *,std::allocator<Json::Value *> > >::_Myoff
PUBLIC	?_Mysize@?$_Deque_alloc@U?$_Deque_base_types@PAVValue@Json@@V?$allocator@PAVValue@Json@@@std@@@std@@@std@@QAEAAIXZ ; std::_Deque_alloc<std::_Deque_base_types<Json::Value *,std::allocator<Json::Value *> > >::_Mysize
PUBLIC	?_Mysize@?$_Deque_alloc@U?$_Deque_base_types@PAVValue@Json@@V?$allocator@PAVValue@Json@@@std@@@std@@@std@@QBEABIXZ ; std::_Deque_alloc<std::_Deque_base_types<Json::Value *,std::allocator<Json::Value *> > >::_Mysize
PUBLIC	?select_on_container_copy_construction@?$_Wrap_alloc@V?$allocator@PAVValue@Json@@@std@@@std@@QBE?AU12@U_Nil@2@@Z ; std::_Wrap_alloc<std::allocator<Json::Value *> >::select_on_container_copy_construction
PUBLIC	?allocate@?$_Wrap_alloc@V?$allocator@PAVValue@Json@@@std@@@std@@QAEPAPAVValue@Json@@I@Z ; std::_Wrap_alloc<std::allocator<Json::Value *> >::allocate
PUBLIC	?deallocate@?$_Wrap_alloc@V?$allocator@PAVValue@Json@@@std@@@std@@QAEXPAPAVValue@Json@@I@Z ; std::_Wrap_alloc<std::allocator<Json::Value *> >::deallocate
PUBLIC	?deallocate@?$_Wrap_alloc@V?$allocator@PAPAVValue@Json@@@std@@@std@@QAEXPAPAPAVValue@Json@@I@Z ; std::_Wrap_alloc<std::allocator<Json::Value * *> >::deallocate
PUBLIC	??D?$_Deque_iterator@V?$_Deque_val@U?$_Deque_simple_types@PAVValue@Json@@@std@@@std@@@std@@QBEAAPAVValue@Json@@XZ ; std::_Deque_iterator<std::_Deque_val<std::_Deque_simple_types<Json::Value *> > >::operator*
PUBLIC	??G?$_Deque_iterator@V?$_Deque_val@U?$_Deque_simple_types@PAVValue@Json@@@std@@@std@@@std@@QBE?AV01@H@Z ; std::_Deque_iterator<std::_Deque_val<std::_Deque_simple_types<Json::Value *> > >::operator-
PUBLIC	??H?$_Deque_const_iterator@V?$_Deque_val@U?$_Deque_simple_types@PAVValue@Json@@@std@@@std@@@std@@QBE?AV01@H@Z ; std::_Deque_const_iterator<std::_Deque_val<std::_Deque_simple_types<Json::Value *> > >::operator+
PUBLIC	?_Alloc_proxy@?$_Deque_alloc@U?$_Deque_base_types@VErrorInfo@Reader@Json@@V?$allocator@VErrorInfo@Reader@Json@@@std@@@std@@@std@@QAEXXZ ; std::_Deque_alloc<std::_Deque_base_types<Json::Reader::ErrorInfo,std::allocator<Json::Reader::ErrorInfo> > >::_Alloc_proxy
PUBLIC	?_Free_proxy@?$_Deque_alloc@U?$_Deque_base_types@VErrorInfo@Reader@Json@@V?$allocator@VErrorInfo@Reader@Json@@@std@@@std@@@std@@QAEXXZ ; std::_Deque_alloc<std::_Deque_base_types<Json::Reader::ErrorInfo,std::allocator<Json::Reader::ErrorInfo> > >::_Free_proxy
PUBLIC	?_Swap_all@?$_Deque_alloc@U?$_Deque_base_types@VErrorInfo@Reader@Json@@V?$allocator@VErrorInfo@Reader@Json@@@std@@@std@@@std@@QAEXAAV12@@Z ; std::_Deque_alloc<std::_Deque_base_types<Json::Reader::ErrorInfo,std::allocator<Json::Reader::ErrorInfo> > >::_Swap_all
PUBLIC	?_Get_data@?$_Deque_alloc@U?$_Deque_base_types@VErrorInfo@Reader@Json@@V?$allocator@VErrorInfo@Reader@Json@@@std@@@std@@@std@@QAEAAV?$_Deque_val@U?$_Deque_simple_types@VErrorInfo@Reader@Json@@@std@@@2@XZ ; std::_Deque_alloc<std::_Deque_base_types<Json::Reader::ErrorInfo,std::allocator<Json::Reader::ErrorInfo> > >::_Get_data
PUBLIC	?deallocate@?$_Wrap_alloc@V?$allocator@VErrorInfo@Reader@Json@@@std@@@std@@QAEXPAVErrorInfo@Reader@Json@@I@Z ; std::_Wrap_alloc<std::allocator<Json::Reader::ErrorInfo> >::deallocate
PUBLIC	?select_on_container_copy_construction@?$allocator_traits@V?$allocator@VErrorInfo@Reader@Json@@@std@@@std@@SA?AV?$allocator@VErrorInfo@Reader@Json@@@2@ABV32@@Z ; std::allocator_traits<std::allocator<Json::Reader::ErrorInfo> >::select_on_container_copy_construction
PUBLIC	?allocate@?$_Wrap_alloc@V?$allocator@PAVErrorInfo@Reader@Json@@@std@@@std@@QAEPAPAVErrorInfo@Reader@Json@@I@Z ; std::_Wrap_alloc<std::allocator<Json::Reader::ErrorInfo *> >::allocate
PUBLIC	?deallocate@?$_Wrap_alloc@V?$allocator@PAVErrorInfo@Reader@Json@@@std@@@std@@QAEXPAPAVErrorInfo@Reader@Json@@I@Z ; std::_Wrap_alloc<std::allocator<Json::Reader::ErrorInfo *> >::deallocate
PUBLIC	??0?$_Deque_iterator@V?$_Deque_val@U?$_Deque_simple_types@VErrorInfo@Reader@Json@@@std@@@std@@@std@@QAE@IPBU_Container_base12@1@@Z ; std::_Deque_iterator<std::_Deque_val<std::_Deque_simple_types<Json::Reader::ErrorInfo> > >::_Deque_iterator<std::_Deque_val<std::_Deque_simple_types<Json::Reader::ErrorInfo> > >
PUBLIC	??H?$_Deque_iterator@V?$_Deque_val@U?$_Deque_simple_types@VErrorInfo@Reader@Json@@@std@@@std@@@std@@QBE?AV01@H@Z ; std::_Deque_iterator<std::_Deque_val<std::_Deque_simple_types<Json::Reader::ErrorInfo> > >::operator+
PUBLIC	??G?$_Deque_iterator@V?$_Deque_val@U?$_Deque_simple_types@VErrorInfo@Reader@Json@@@std@@@std@@@std@@QBEHABV?$_Deque_const_iterator@V?$_Deque_val@U?$_Deque_simple_types@VErrorInfo@Reader@Json@@@std@@@std@@@1@@Z ; std::_Deque_iterator<std::_Deque_val<std::_Deque_simple_types<Json::Reader::ErrorInfo> > >::operator-
PUBLIC	??Y?$_Deque_const_iterator@V?$_Deque_val@U?$_Deque_simple_types@VErrorInfo@Reader@Json@@@std@@@std@@@std@@QAEAAV01@H@Z ; std::_Deque_const_iterator<std::_Deque_val<std::_Deque_simple_types<Json::Reader::ErrorInfo> > >::operator+=
PUBLIC	?_Compat@?$_Deque_const_iterator@V?$_Deque_val@U?$_Deque_simple_types@VErrorInfo@Reader@Json@@@std@@@std@@@std@@QBEXABV12@@Z ; std::_Deque_const_iterator<std::_Deque_val<std::_Deque_simple_types<Json::Reader::ErrorInfo> > >::_Compat
PUBLIC	?_Setcont@?$_Deque_const_iterator@V?$_Deque_val@U?$_Deque_simple_types@VErrorInfo@Reader@Json@@@std@@@std@@@std@@QAEXPBV?$_Deque_val@U?$_Deque_simple_types@VErrorInfo@Reader@Json@@@std@@@2@@Z ; std::_Deque_const_iterator<std::_Deque_val<std::_Deque_simple_types<Json::Reader::ErrorInfo> > >::_Setcont
PUBLIC	?_Get_first@?$_Compressed_pair@U?$_Wrap_alloc@V?$allocator@VErrorInfo@Reader@Json@@@std@@@std@@V?$_Deque_val@U?$_Deque_simple_types@VErrorInfo@Reader@Json@@@std@@@2@$00@std@@QAEAAU?$_Wrap_alloc@V?$allocator@VErrorInfo@Reader@Json@@@std@@@2@XZ ; std::_Compressed_pair<std::_Wrap_alloc<std::allocator<Json::Reader::ErrorInfo> >,std::_Deque_val<std::_Deque_simple_types<Json::Reader::ErrorInfo> >,1>::_Get_first
PUBLIC	?_Get_first@?$_Compressed_pair@U?$_Wrap_alloc@V?$allocator@VErrorInfo@Reader@Json@@@std@@@std@@V?$_Deque_val@U?$_Deque_simple_types@VErrorInfo@Reader@Json@@@std@@@2@$00@std@@QBEABU?$_Wrap_alloc@V?$allocator@VErrorInfo@Reader@Json@@@std@@@2@XZ ; std::_Compressed_pair<std::_Wrap_alloc<std::allocator<Json::Reader::ErrorInfo> >,std::_Deque_val<std::_Deque_simple_types<Json::Reader::ErrorInfo> >,1>::_Get_first
PUBLIC	?_Get_second@?$_Compressed_pair@U?$_Wrap_alloc@V?$allocator@VErrorInfo@Reader@Json@@@std@@@std@@V?$_Deque_val@U?$_Deque_simple_types@VErrorInfo@Reader@Json@@@std@@@2@$00@std@@QBEABV?$_Deque_val@U?$_Deque_simple_types@VErrorInfo@Reader@Json@@@std@@@2@XZ ; std::_Compressed_pair<std::_Wrap_alloc<std::allocator<Json::Reader::ErrorInfo> >,std::_Deque_val<std::_Deque_simple_types<Json::Reader::ErrorInfo> >,1>::_Get_second
PUBLIC	??1?$_Deque_val@U?$_Deque_simple_types@PAVValue@Json@@@std@@@std@@QAE@XZ ; std::_Deque_val<std::_Deque_simple_types<Json::Value *> >::~_Deque_val<std::_Deque_simple_types<Json::Value *> >
PUBLIC	??1?$_Deque_val@U?$_Deque_simple_types@VErrorInfo@Reader@Json@@@std@@@std@@QAE@XZ ; std::_Deque_val<std::_Deque_simple_types<Json::Reader::ErrorInfo> >::~_Deque_val<std::_Deque_simple_types<Json::Reader::ErrorInfo> >
PUBLIC	??0?$_Deque_iterator@V?$_Deque_val@U?$_Deque_simple_types@VErrorInfo@Reader@Json@@@std@@@std@@@std@@QAE@ABV01@@Z ; std::_Deque_iterator<std::_Deque_val<std::_Deque_simple_types<Json::Reader::ErrorInfo> > >::_Deque_iterator<std::_Deque_val<std::_Deque_simple_types<Json::Reader::ErrorInfo> > >
PUBLIC	??0?$_Deque_const_iterator@V?$_Deque_val@U?$_Deque_simple_types@PAVValue@Json@@@std@@@std@@@std@@QAE@ABV01@@Z ; std::_Deque_const_iterator<std::_Deque_val<std::_Deque_simple_types<Json::Value *> > >::_Deque_const_iterator<std::_Deque_val<std::_Deque_simple_types<Json::Value *> > >
PUBLIC	??0?$_Deque_const_iterator@V?$_Deque_val@U?$_Deque_simple_types@PAVValue@Json@@@std@@@std@@@std@@QAE@$$QAV01@@Z ; std::_Deque_const_iterator<std::_Deque_val<std::_Deque_simple_types<Json::Value *> > >::_Deque_const_iterator<std::_Deque_val<std::_Deque_simple_types<Json::Value *> > >
PUBLIC	??1?$_Deque_const_iterator@V?$_Deque_val@U?$_Deque_simple_types@PAVValue@Json@@@std@@@std@@@std@@QAE@XZ ; std::_Deque_const_iterator<std::_Deque_val<std::_Deque_simple_types<Json::Value *> > >::~_Deque_const_iterator<std::_Deque_val<std::_Deque_simple_types<Json::Value *> > >
PUBLIC	??1?$_Deque_iterator@V?$_Deque_val@U?$_Deque_simple_types@PAVValue@Json@@@std@@@std@@@std@@QAE@XZ ; std::_Deque_iterator<std::_Deque_val<std::_Deque_simple_types<Json::Value *> > >::~_Deque_iterator<std::_Deque_val<std::_Deque_simple_types<Json::Value *> > >
PUBLIC	??1?$_Compressed_pair@U?$_Wrap_alloc@V?$allocator@PAVValue@Json@@@std@@@std@@V?$_Deque_val@U?$_Deque_simple_types@PAVValue@Json@@@std@@@2@$00@std@@QAE@XZ ; std::_Compressed_pair<std::_Wrap_alloc<std::allocator<Json::Value *> >,std::_Deque_val<std::_Deque_simple_types<Json::Value *> >,1>::~_Compressed_pair<std::_Wrap_alloc<std::allocator<Json::Value *> >,std::_Deque_val<std::_Deque_simple_types<Json::Value *> >,1>
PUBLIC	??1?$_Compressed_pair@U?$_Wrap_alloc@V?$allocator@VErrorInfo@Reader@Json@@@std@@@std@@V?$_Deque_val@U?$_Deque_simple_types@VErrorInfo@Reader@Json@@@std@@@2@$00@std@@QAE@XZ ; std::_Compressed_pair<std::_Wrap_alloc<std::allocator<Json::Reader::ErrorInfo> >,std::_Deque_val<std::_Deque_simple_types<Json::Reader::ErrorInfo> >,1>::~_Compressed_pair<std::_Wrap_alloc<std::allocator<Json::Reader::ErrorInfo> >,std::_Deque_val<std::_Deque_simple_types<Json::Reader::ErrorInfo> >,1>
PUBLIC	?_Assign_rv@?$basic_string@DU?$char_traits@D@std@@V?$allocator@D@2@@std@@QAEX$$QAV12@@Z ; std::basic_string<char,std::char_traits<char>,std::allocator<char> >::_Assign_rv
PUBLIC	?append@?$basic_string@DU?$char_traits@D@std@@V?$allocator@D@2@@std@@QAEAAV12@ABV12@II@Z ; std::basic_string<char,std::char_traits<char>,std::allocator<char> >::append
PUBLIC	?append@?$basic_string@DU?$char_traits@D@std@@V?$allocator@D@2@@std@@QAEAAV12@PBDI@Z ; std::basic_string<char,std::char_traits<char>,std::allocator<char> >::append
PUBLIC	?append@?$basic_string@DU?$char_traits@D@std@@V?$allocator@D@2@@std@@QAEAAV12@ID@Z ; std::basic_string<char,std::char_traits<char>,std::allocator<char> >::append
PUBLIC	?assign@?$basic_string@DU?$char_traits@D@std@@V?$allocator@D@2@@std@@QAEAAV12@ABV12@@Z ; std::basic_string<char,std::char_traits<char>,std::allocator<char> >::assign
PUBLIC	?assign@?$basic_string@DU?$char_traits@D@std@@V?$allocator@D@2@@std@@QAEAAV12@ABV12@II@Z ; std::basic_string<char,std::char_traits<char>,std::allocator<char> >::assign
PUBLIC	?assign@?$basic_string@DU?$char_traits@D@std@@V?$allocator@D@2@@std@@QAEAAV12@PBDI@Z ; std::basic_string<char,std::char_traits<char>,std::allocator<char> >::assign
PUBLIC	?assign@?$basic_string@DU?$char_traits@D@std@@V?$allocator@D@2@@std@@QAEAAV12@PBD@Z ; std::basic_string<char,std::char_traits<char>,std::allocator<char> >::assign
PUBLIC	?begin@?$basic_string@DU?$char_traits@D@std@@V?$allocator@D@2@@std@@QAE?AV?$_String_iterator@V?$_String_val@U?$_Simple_types@D@std@@@std@@@2@XZ ; std::basic_string<char,std::char_traits<char>,std::allocator<char> >::begin
PUBLIC	?end@?$basic_string@DU?$char_traits@D@std@@V?$allocator@D@2@@std@@QAE?AV?$_String_iterator@V?$_String_val@U?$_Simple_types@D@std@@@std@@@2@XZ ; std::basic_string<char,std::char_traits<char>,std::allocator<char> >::end
PUBLIC	?size@?$basic_string@DU?$char_traits@D@std@@V?$allocator@D@2@@std@@QBEIXZ ; std::basic_string<char,std::char_traits<char>,std::allocator<char> >::size
PUBLIC	?resize@?$basic_string@DU?$char_traits@D@std@@V?$allocator@D@2@@std@@QAEXID@Z ; std::basic_string<char,std::char_traits<char>,std::allocator<char> >::resize
PUBLIC	?_Eos@?$basic_string@DU?$char_traits@D@std@@V?$allocator@D@2@@std@@QAEXI@Z ; std::basic_string<char,std::char_traits<char>,std::allocator<char> >::_Eos
PUBLIC	?_Grow@?$basic_string@DU?$char_traits@D@std@@V?$allocator@D@2@@std@@QAE_NI_N@Z ; std::basic_string<char,std::char_traits<char>,std::allocator<char> >::_Grow
PUBLIC	?_Tidy@?$basic_string@DU?$char_traits@D@std@@V?$allocator@D@2@@std@@QAEX_NI@Z ; std::basic_string<char,std::char_traits<char>,std::allocator<char> >::_Tidy
PUBLIC	?_Myptr@?$_String_alloc@U?$_String_base_types@DV?$allocator@D@std@@@std@@@std@@QAEPADXZ ; std::_String_alloc<std::_String_base_types<char,std::allocator<char> > >::_Myptr
PUBLIC	?_Myptr@?$_String_alloc@U?$_String_base_types@DV?$allocator@D@std@@@std@@@std@@QBEPBDXZ ; std::_String_alloc<std::_String_base_types<char,std::allocator<char> > >::_Myptr
PUBLIC	??0?$_String_alloc@U?$_String_base_types@DV?$allocator@D@std@@@std@@@std@@QAE@XZ ; std::_String_alloc<std::_String_base_types<char,std::allocator<char> > >::_String_alloc<std::_String_base_types<char,std::allocator<char> > >
PUBLIC	?_Copy_alloc@?$_String_alloc@U?$_String_base_types@DV?$allocator@D@std@@@std@@@std@@QAEXABU?$_Wrap_alloc@V?$allocator@D@std@@@2@@Z ; std::_String_alloc<std::_String_base_types<char,std::allocator<char> > >::_Copy_alloc
PUBLIC	?_Move_alloc@?$_String_alloc@U?$_String_base_types@DV?$allocator@D@std@@@std@@@std@@QAEXAAU?$_Wrap_alloc@V?$allocator@D@std@@@2@@Z ; std::_String_alloc<std::_String_base_types<char,std::allocator<char> > >::_Move_alloc
PUBLIC	?_Getal@?$_String_alloc@U?$_String_base_types@DV?$allocator@D@std@@@std@@@std@@QAEAAU?$_Wrap_alloc@V?$allocator@D@std@@@2@XZ ; std::_String_alloc<std::_String_base_types<char,std::allocator<char> > >::_Getal
PUBLIC	?_Getal@?$_String_alloc@U?$_String_base_types@DV?$allocator@D@std@@@std@@@std@@QBEABU?$_Wrap_alloc@V?$allocator@D@std@@@2@XZ ; std::_String_alloc<std::_String_base_types<char,std::allocator<char> > >::_Getal
PUBLIC	?_Mysize@?$_String_alloc@U?$_String_base_types@DV?$allocator@D@std@@@std@@@std@@QAEAAIXZ ; std::_String_alloc<std::_String_base_types<char,std::allocator<char> > >::_Mysize
PUBLIC	?_Mysize@?$_String_alloc@U?$_String_base_types@DV?$allocator@D@std@@@std@@@std@@QBEABIXZ ; std::_String_alloc<std::_String_base_types<char,std::allocator<char> > >::_Mysize
PUBLIC	?_Myres@?$_String_alloc@U?$_String_base_types@DV?$allocator@D@std@@@std@@@std@@QAEAAIXZ ; std::_String_alloc<std::_String_base_types<char,std::allocator<char> > >::_Myres
PUBLIC	?select_on_container_copy_construction@?$_Wrap_alloc@V?$allocator@D@std@@@std@@QBE?AU12@U_Nil@2@@Z ; std::_Wrap_alloc<std::allocator<char> >::select_on_container_copy_construction
PUBLIC	??1_Bxty@?$_String_val@U?$_Simple_types@D@std@@@std@@QAE@XZ ; std::_String_val<std::_Simple_types<char> >::_Bxty::~_Bxty
PUBLIC	?_Assign_rv@?$deque@VErrorInfo@Reader@Json@@V?$allocator@VErrorInfo@Reader@Json@@@std@@@std@@QAEX$$QAV12@U?$integral_constant@_N$00@2@@Z ; std::deque<Json::Reader::ErrorInfo,std::allocator<Json::Reader::ErrorInfo> >::_Assign_rv
PUBLIC	?_Assign_rv@?$deque@VErrorInfo@Reader@Json@@V?$allocator@VErrorInfo@Reader@Json@@@std@@@std@@QAEX$$QAV12@@Z ; std::deque<Json::Reader::ErrorInfo,std::allocator<Json::Reader::ErrorInfo> >::_Assign_rv
PUBLIC	?begin@?$deque@VErrorInfo@Reader@Json@@V?$allocator@VErrorInfo@Reader@Json@@@std@@@std@@QAE?AV?$_Deque_iterator@V?$_Deque_val@U?$_Deque_simple_types@VErrorInfo@Reader@Json@@@std@@@std@@@2@XZ ; std::deque<Json::Reader::ErrorInfo,std::allocator<Json::Reader::ErrorInfo> >::begin
PUBLIC	?end@?$deque@VErrorInfo@Reader@Json@@V?$allocator@VErrorInfo@Reader@Json@@@std@@@std@@QAE?AV?$_Deque_iterator@V?$_Deque_val@U?$_Deque_simple_types@VErrorInfo@Reader@Json@@@std@@@std@@@2@XZ ; std::deque<Json::Reader::ErrorInfo,std::allocator<Json::Reader::ErrorInfo> >::end
PUBLIC	?pop_back@?$deque@VErrorInfo@Reader@Json@@V?$allocator@VErrorInfo@Reader@Json@@@std@@@std@@QAEXXZ ; std::deque<Json::Reader::ErrorInfo,std::allocator<Json::Reader::ErrorInfo> >::pop_back
PUBLIC	?erase@?$deque@VErrorInfo@Reader@Json@@V?$allocator@VErrorInfo@Reader@Json@@@std@@@std@@QAE?AV?$_Deque_iterator@V?$_Deque_val@U?$_Deque_simple_types@VErrorInfo@Reader@Json@@@std@@@std@@@2@V?$_Deque_const_iterator@V?$_Deque_val@U?$_Deque_simple_types@VErrorInfo@Reader@Json@@@std@@@std@@@2@0@Z ; std::deque<Json::Reader::ErrorInfo,std::allocator<Json::Reader::ErrorInfo> >::erase
PUBLIC	?_Growmap@?$deque@VErrorInfo@Reader@Json@@V?$allocator@VErrorInfo@Reader@Json@@@std@@@std@@IAEXI@Z ; std::deque<Json::Reader::ErrorInfo,std::allocator<Json::Reader::ErrorInfo> >::_Growmap
PUBLIC	?_Tidy@?$deque@VErrorInfo@Reader@Json@@V?$allocator@VErrorInfo@Reader@Json@@@std@@@std@@IAEXXZ ; std::deque<Json::Reader::ErrorInfo,std::allocator<Json::Reader::ErrorInfo> >::_Tidy
PUBLIC	??0?$deque@PAVValue@Json@@V?$allocator@PAVValue@Json@@@std@@@std@@QAE@XZ ; std::deque<Json::Value *,std::allocator<Json::Value *> >::deque<Json::Value *,std::allocator<Json::Value *> >
PUBLIC	??0?$deque@PAVValue@Json@@V?$allocator@PAVValue@Json@@@std@@@std@@QAE@ABV01@@Z ; std::deque<Json::Value *,std::allocator<Json::Value *> >::deque<Json::Value *,std::allocator<Json::Value *> >
PUBLIC	??0?$deque@PAVValue@Json@@V?$allocator@PAVValue@Json@@@std@@@std@@QAE@$$QAV01@@Z ; std::deque<Json::Value *,std::allocator<Json::Value *> >::deque<Json::Value *,std::allocator<Json::Value *> >
PUBLIC	??4?$deque@PAVValue@Json@@V?$allocator@PAVValue@Json@@@std@@@std@@QAEAAV01@$$QAV01@@Z ; std::deque<Json::Value *,std::allocator<Json::Value *> >::operator=
PUBLIC	?push_back@?$deque@PAVValue@Json@@V?$allocator@PAVValue@Json@@@std@@@std@@QAEX$$QAPAVValue@Json@@@Z ; std::deque<Json::Value *,std::allocator<Json::Value *> >::push_back
PUBLIC	??4?$deque@PAVValue@Json@@V?$allocator@PAVValue@Json@@@std@@@std@@QAEAAV01@ABV01@@Z ; std::deque<Json::Value *,std::allocator<Json::Value *> >::operator=
PUBLIC	?empty@?$deque@PAVValue@Json@@V?$allocator@PAVValue@Json@@@std@@@std@@QBE_NXZ ; std::deque<Json::Value *,std::allocator<Json::Value *> >::empty
PUBLIC	?back@?$deque@PAVValue@Json@@V?$allocator@PAVValue@Json@@@std@@@std@@QAEAAPAVValue@Json@@XZ ; std::deque<Json::Value *,std::allocator<Json::Value *> >::back
PUBLIC	?pop_back@?$deque@PAVValue@Json@@V?$allocator@PAVValue@Json@@@std@@@std@@QAEXXZ ; std::deque<Json::Value *,std::allocator<Json::Value *> >::pop_back
PUBLIC	?_Tidy@?$deque@PAVValue@Json@@V?$allocator@PAVValue@Json@@@std@@@std@@IAEXXZ ; std::deque<Json::Value *,std::allocator<Json::Value *> >::_Tidy
PUBLIC	??1?$_Deque_alloc@U?$_Deque_base_types@PAVValue@Json@@V?$allocator@PAVValue@Json@@@std@@@std@@@std@@QAE@XZ ; std::_Deque_alloc<std::_Deque_base_types<Json::Value *,std::allocator<Json::Value *> > >::~_Deque_alloc<std::_Deque_base_types<Json::Value *,std::allocator<Json::Value *> > >
PUBLIC	?_Getblock@?$_Deque_alloc@U?$_Deque_base_types@VErrorInfo@Reader@Json@@V?$allocator@VErrorInfo@Reader@Json@@@std@@@std@@@std@@QBEII@Z ; std::_Deque_alloc<std::_Deque_base_types<Json::Reader::ErrorInfo,std::allocator<Json::Reader::ErrorInfo> > >::_Getblock
PUBLIC	??0?$_Deque_alloc@U?$_Deque_base_types@VErrorInfo@Reader@Json@@V?$allocator@VErrorInfo@Reader@Json@@@std@@@std@@@std@@QAE@XZ ; std::_Deque_alloc<std::_Deque_base_types<Json::Reader::ErrorInfo,std::allocator<Json::Reader::ErrorInfo> > >::_Deque_alloc<std::_Deque_base_types<Json::Reader::ErrorInfo,std::allocator<Json::Reader::ErrorInfo> > >
PUBLIC	??1?$_Deque_alloc@U?$_Deque_base_types@VErrorInfo@Reader@Json@@V?$allocator@VErrorInfo@Reader@Json@@@std@@@std@@@std@@QAE@XZ ; std::_Deque_alloc<std::_Deque_base_types<Json::Reader::ErrorInfo,std::allocator<Json::Reader::ErrorInfo> > >::~_Deque_alloc<std::_Deque_base_types<Json::Reader::ErrorInfo,std::allocator<Json::Reader::ErrorInfo> > >
PUBLIC	?_Copy_alloc@?$_Deque_alloc@U?$_Deque_base_types@VErrorInfo@Reader@Json@@V?$allocator@VErrorInfo@Reader@Json@@@std@@@std@@@std@@QAEXABU?$_Wrap_alloc@V?$allocator@VErrorInfo@Reader@Json@@@std@@@2@@Z ; std::_Deque_alloc<std::_Deque_base_types<Json::Reader::ErrorInfo,std::allocator<Json::Reader::ErrorInfo> > >::_Copy_alloc
PUBLIC	?_Move_alloc@?$_Deque_alloc@U?$_Deque_base_types@VErrorInfo@Reader@Json@@V?$allocator@VErrorInfo@Reader@Json@@@std@@@std@@@std@@QAEXAAU?$_Wrap_alloc@V?$allocator@VErrorInfo@Reader@Json@@@std@@@2@@Z ; std::_Deque_alloc<std::_Deque_base_types<Json::Reader::ErrorInfo,std::allocator<Json::Reader::ErrorInfo> > >::_Move_alloc
PUBLIC	?_Orphan_all@?$_Deque_alloc@U?$_Deque_base_types@VErrorInfo@Reader@Json@@V?$allocator@VErrorInfo@Reader@Json@@@std@@@std@@@std@@QAEXXZ ; std::_Deque_alloc<std::_Deque_base_types<Json::Reader::ErrorInfo,std::allocator<Json::Reader::ErrorInfo> > >::_Orphan_all
PUBLIC	?_Getal@?$_Deque_alloc@U?$_Deque_base_types@VErrorInfo@Reader@Json@@V?$allocator@VErrorInfo@Reader@Json@@@std@@@std@@@std@@QAEAAU?$_Wrap_alloc@V?$allocator@VErrorInfo@Reader@Json@@@std@@@2@XZ ; std::_Deque_alloc<std::_Deque_base_types<Json::Reader::ErrorInfo,std::allocator<Json::Reader::ErrorInfo> > >::_Getal
PUBLIC	?_Getal@?$_Deque_alloc@U?$_Deque_base_types@VErrorInfo@Reader@Json@@V?$allocator@VErrorInfo@Reader@Json@@@std@@@std@@@std@@QBEABU?$_Wrap_alloc@V?$allocator@VErrorInfo@Reader@Json@@@std@@@2@XZ ; std::_Deque_alloc<std::_Deque_base_types<Json::Reader::ErrorInfo,std::allocator<Json::Reader::ErrorInfo> > >::_Getal
PUBLIC	?_Get_data@?$_Deque_alloc@U?$_Deque_base_types@VErrorInfo@Reader@Json@@V?$allocator@VErrorInfo@Reader@Json@@@std@@@std@@@std@@QBEABV?$_Deque_val@U?$_Deque_simple_types@VErrorInfo@Reader@Json@@@std@@@2@XZ ; std::_Deque_alloc<std::_Deque_base_types<Json::Reader::ErrorInfo,std::allocator<Json::Reader::ErrorInfo> > >::_Get_data
PUBLIC	?_Map@?$_Deque_alloc@U?$_Deque_base_types@VErrorInfo@Reader@Json@@V?$allocator@VErrorInfo@Reader@Json@@@std@@@std@@@std@@QAEAAPAPAVErrorInfo@Reader@Json@@XZ ; std::_Deque_alloc<std::_Deque_base_types<Json::Reader::ErrorInfo,std::allocator<Json::Reader::ErrorInfo> > >::_Map
PUBLIC	?_Mapsize@?$_Deque_alloc@U?$_Deque_base_types@VErrorInfo@Reader@Json@@V?$allocator@VErrorInfo@Reader@Json@@@std@@@std@@@std@@QAEAAIXZ ; std::_Deque_alloc<std::_Deque_base_types<Json::Reader::ErrorInfo,std::allocator<Json::Reader::ErrorInfo> > >::_Mapsize
PUBLIC	?_Myoff@?$_Deque_alloc@U?$_Deque_base_types@VErrorInfo@Reader@Json@@V?$allocator@VErrorInfo@Reader@Json@@@std@@@std@@@std@@QAEAAIXZ ; std::_Deque_alloc<std::_Deque_base_types<Json::Reader::ErrorInfo,std::allocator<Json::Reader::ErrorInfo> > >::_Myoff
PUBLIC	?_Myoff@?$_Deque_alloc@U?$_Deque_base_types@VErrorInfo@Reader@Json@@V?$allocator@VErrorInfo@Reader@Json@@@std@@@std@@@std@@QBEABIXZ ; std::_Deque_alloc<std::_Deque_base_types<Json::Reader::ErrorInfo,std::allocator<Json::Reader::ErrorInfo> > >::_Myoff
PUBLIC	?_Mysize@?$_Deque_alloc@U?$_Deque_base_types@VErrorInfo@Reader@Json@@V?$allocator@VErrorInfo@Reader@Json@@@std@@@std@@@std@@QAEAAIXZ ; std::_Deque_alloc<std::_Deque_base_types<Json::Reader::ErrorInfo,std::allocator<Json::Reader::ErrorInfo> > >::_Mysize
PUBLIC	?_Mysize@?$_Deque_alloc@U?$_Deque_base_types@VErrorInfo@Reader@Json@@V?$allocator@VErrorInfo@Reader@Json@@@std@@@std@@@std@@QBEABIXZ ; std::_Deque_alloc<std::_Deque_base_types<Json::Reader::ErrorInfo,std::allocator<Json::Reader::ErrorInfo> > >::_Mysize
PUBLIC	?select_on_container_copy_construction@?$_Wrap_alloc@V?$allocator@VErrorInfo@Reader@Json@@@std@@@std@@QBE?AU12@U_Nil@2@@Z ; std::_Wrap_alloc<std::allocator<Json::Reader::ErrorInfo> >::select_on_container_copy_construction
PUBLIC	?allocate@?$_Wrap_alloc@V?$allocator@VErrorInfo@Reader@Json@@@std@@@std@@QAEPAVErrorInfo@Reader@Json@@I@Z ; std::_Wrap_alloc<std::allocator<Json::Reader::ErrorInfo> >::allocate
PUBLIC	?_Getblock@?$_Deque_val@U?$_Deque_simple_types@VErrorInfo@Reader@Json@@@std@@@std@@QBEII@Z ; std::_Deque_val<std::_Deque_simple_types<Json::Reader::ErrorInfo> >::_Getblock
PUBLIC	??0?$_Deque_const_iterator@V?$_Deque_val@U?$_Deque_simple_types@VErrorInfo@Reader@Json@@@std@@@std@@@std@@QAE@IPBU_Container_base12@1@@Z ; std::_Deque_const_iterator<std::_Deque_val<std::_Deque_simple_types<Json::Reader::ErrorInfo> > >::_Deque_const_iterator<std::_Deque_val<std::_Deque_simple_types<Json::Reader::ErrorInfo> > >
PUBLIC	??H?$_Deque_const_iterator@V?$_Deque_val@U?$_Deque_simple_types@VErrorInfo@Reader@Json@@@std@@@std@@@std@@QBE?AV01@H@Z ; std::_Deque_const_iterator<std::_Deque_val<std::_Deque_simple_types<Json::Reader::ErrorInfo> > >::operator+
PUBLIC	??8?$_Deque_const_iterator@V?$_Deque_val@U?$_Deque_simple_types@VErrorInfo@Reader@Json@@@std@@@std@@@std@@QBE_NABV01@@Z ; std::_Deque_const_iterator<std::_Deque_val<std::_Deque_simple_types<Json::Reader::ErrorInfo> > >::operator==
PUBLIC	??1?$_String_val@U?$_Simple_types@D@std@@@std@@QAE@XZ ; std::_String_val<std::_Simple_types<char> >::~_String_val<std::_Simple_types<char> >
PUBLIC	??1?$_Compressed_pair@U?$_Wrap_alloc@V?$allocator@D@std@@@std@@V?$_String_val@U?$_Simple_types@D@std@@@2@$00@std@@QAE@XZ ; std::_Compressed_pair<std::_Wrap_alloc<std::allocator<char> >,std::_String_val<std::_Simple_types<char> >,1>::~_Compressed_pair<std::_Wrap_alloc<std::allocator<char> >,std::_String_val<std::_Simple_types<char> >,1>
PUBLIC	??1?$_String_alloc@U?$_String_base_types@DV?$allocator@D@std@@@std@@@std@@QAE@XZ ; std::_String_alloc<std::_String_base_types<char,std::allocator<char> > >::~_String_alloc<std::_String_base_types<char,std::allocator<char> > >
PUBLIC	??0?$_Deque_const_iterator@V?$_Deque_val@U?$_Deque_simple_types@VErrorInfo@Reader@Json@@@std@@@std@@@std@@QAE@ABV01@@Z ; std::_Deque_const_iterator<std::_Deque_val<std::_Deque_simple_types<Json::Reader::ErrorInfo> > >::_Deque_const_iterator<std::_Deque_val<std::_Deque_simple_types<Json::Reader::ErrorInfo> > >
PUBLIC	??0?$_Deque_const_iterator@V?$_Deque_val@U?$_Deque_simple_types@VErrorInfo@Reader@Json@@@std@@@std@@@std@@QAE@$$QAV01@@Z ; std::_Deque_const_iterator<std::_Deque_val<std::_Deque_simple_types<Json::Reader::ErrorInfo> > >::_Deque_const_iterator<std::_Deque_val<std::_Deque_simple_types<Json::Reader::ErrorInfo> > >
PUBLIC	??1?$_Deque_iterator@V?$_Deque_val@U?$_Deque_simple_types@VErrorInfo@Reader@Json@@@std@@@std@@@std@@QAE@XZ ; std::_Deque_iterator<std::_Deque_val<std::_Deque_simple_types<Json::Reader::ErrorInfo> > >::~_Deque_iterator<std::_Deque_val<std::_Deque_simple_types<Json::Reader::ErrorInfo> > >
PUBLIC	??0?$allocator@D@std@@QAE@XZ			; std::allocator<char>::allocator<char>
PUBLIC	??0?$basic_string@DU?$char_traits@D@std@@V?$allocator@D@2@@std@@QAE@ABV01@@Z ; std::basic_string<char,std::char_traits<char>,std::allocator<char> >::basic_string<char,std::char_traits<char>,std::allocator<char> >
PUBLIC	??0?$basic_string@DU?$char_traits@D@std@@V?$allocator@D@2@@std@@QAE@XZ ; std::basic_string<char,std::char_traits<char>,std::allocator<char> >::basic_string<char,std::char_traits<char>,std::allocator<char> >
PUBLIC	??0?$basic_string@DU?$char_traits@D@std@@V?$allocator@D@2@@std@@QAE@PBD@Z ; std::basic_string<char,std::char_traits<char>,std::allocator<char> >::basic_string<char,std::char_traits<char>,std::allocator<char> >
PUBLIC	??0?$basic_string@DU?$char_traits@D@std@@V?$allocator@D@2@@std@@QAE@$$QAV01@@Z ; std::basic_string<char,std::char_traits<char>,std::allocator<char> >::basic_string<char,std::char_traits<char>,std::allocator<char> >
PUBLIC	??4?$basic_string@DU?$char_traits@D@std@@V?$allocator@D@2@@std@@QAEAAV01@$$QAV01@@Z ; std::basic_string<char,std::char_traits<char>,std::allocator<char> >::operator=
PUBLIC	??1?$basic_string@DU?$char_traits@D@std@@V?$allocator@D@2@@std@@QAE@XZ ; std::basic_string<char,std::char_traits<char>,std::allocator<char> >::~basic_string<char,std::char_traits<char>,std::allocator<char> >
PUBLIC	??4?$basic_string@DU?$char_traits@D@std@@V?$allocator@D@2@@std@@QAEAAV01@ABV01@@Z ; std::basic_string<char,std::char_traits<char>,std::allocator<char> >::operator=
PUBLIC	??4?$basic_string@DU?$char_traits@D@std@@V?$allocator@D@2@@std@@QAEAAV01@PBD@Z ; std::basic_string<char,std::char_traits<char>,std::allocator<char> >::operator=
PUBLIC	??Y?$basic_string@DU?$char_traits@D@std@@V?$allocator@D@2@@std@@QAEAAV01@ABV01@@Z ; std::basic_string<char,std::char_traits<char>,std::allocator<char> >::operator+=
PUBLIC	??Y?$basic_string@DU?$char_traits@D@std@@V?$allocator@D@2@@std@@QAEAAV01@PBD@Z ; std::basic_string<char,std::char_traits<char>,std::allocator<char> >::operator+=
PUBLIC	??Y?$basic_string@DU?$char_traits@D@std@@V?$allocator@D@2@@std@@QAEAAV01@D@Z ; std::basic_string<char,std::char_traits<char>,std::allocator<char> >::operator+=
PUBLIC	?append@?$basic_string@DU?$char_traits@D@std@@V?$allocator@D@2@@std@@QAEAAV12@ABV12@@Z ; std::basic_string<char,std::char_traits<char>,std::allocator<char> >::append
PUBLIC	?append@?$basic_string@DU?$char_traits@D@std@@V?$allocator@D@2@@std@@QAEAAV12@PBD@Z ; std::basic_string<char,std::char_traits<char>,std::allocator<char> >::append
PUBLIC	??A?$basic_string@DU?$char_traits@D@std@@V?$allocator@D@2@@std@@QAEAADI@Z ; std::basic_string<char,std::char_traits<char>,std::allocator<char> >::operator[]
PUBLIC	?c_str@?$basic_string@DU?$char_traits@D@std@@V?$allocator@D@2@@std@@QBEPBDXZ ; std::basic_string<char,std::char_traits<char>,std::allocator<char> >::c_str
PUBLIC	?length@?$basic_string@DU?$char_traits@D@std@@V?$allocator@D@2@@std@@QBEIXZ ; std::basic_string<char,std::char_traits<char>,std::allocator<char> >::length
PUBLIC	?resize@?$basic_string@DU?$char_traits@D@std@@V?$allocator@D@2@@std@@QAEXI@Z ; std::basic_string<char,std::char_traits<char>,std::allocator<char> >::resize
PUBLIC	?reserve@?$basic_string@DU?$char_traits@D@std@@V?$allocator@D@2@@std@@QAEXI@Z ; std::basic_string<char,std::char_traits<char>,std::allocator<char> >::reserve
PUBLIC	?empty@?$basic_string@DU?$char_traits@D@std@@V?$allocator@D@2@@std@@QBE_NXZ ; std::basic_string<char,std::char_traits<char>,std::allocator<char> >::empty
PUBLIC	??0?$deque@VErrorInfo@Reader@Json@@V?$allocator@VErrorInfo@Reader@Json@@@std@@@std@@QAE@XZ ; std::deque<Json::Reader::ErrorInfo,std::allocator<Json::Reader::ErrorInfo> >::deque<Json::Reader::ErrorInfo,std::allocator<Json::Reader::ErrorInfo> >
PUBLIC	??0?$deque@VErrorInfo@Reader@Json@@V?$allocator@VErrorInfo@Reader@Json@@@std@@@std@@QAE@ABV01@@Z ; std::deque<Json::Reader::ErrorInfo,std::allocator<Json::Reader::ErrorInfo> >::deque<Json::Reader::ErrorInfo,std::allocator<Json::Reader::ErrorInfo> >
PUBLIC	??0?$deque@VErrorInfo@Reader@Json@@V?$allocator@VErrorInfo@Reader@Json@@@std@@@std@@QAE@$$QAV01@@Z ; std::deque<Json::Reader::ErrorInfo,std::allocator<Json::Reader::ErrorInfo> >::deque<Json::Reader::ErrorInfo,std::allocator<Json::Reader::ErrorInfo> >
PUBLIC	??4?$deque@VErrorInfo@Reader@Json@@V?$allocator@VErrorInfo@Reader@Json@@@std@@@std@@QAEAAV01@$$QAV01@@Z ; std::deque<Json::Reader::ErrorInfo,std::allocator<Json::Reader::ErrorInfo> >::operator=
PUBLIC	??1?$deque@VErrorInfo@Reader@Json@@V?$allocator@VErrorInfo@Reader@Json@@@std@@@std@@QAE@XZ ; std::deque<Json::Reader::ErrorInfo,std::allocator<Json::Reader::ErrorInfo> >::~deque<Json::Reader::ErrorInfo,std::allocator<Json::Reader::ErrorInfo> >
PUBLIC	??4?$deque@VErrorInfo@Reader@Json@@V?$allocator@VErrorInfo@Reader@Json@@@std@@@std@@QAEAAV01@ABV01@@Z ; std::deque<Json::Reader::ErrorInfo,std::allocator<Json::Reader::ErrorInfo> >::operator=
PUBLIC	?begin@?$deque@VErrorInfo@Reader@Json@@V?$allocator@VErrorInfo@Reader@Json@@@std@@@std@@QBE?AV?$_Deque_const_iterator@V?$_Deque_val@U?$_Deque_simple_types@VErrorInfo@Reader@Json@@@std@@@std@@@2@XZ ; std::deque<Json::Reader::ErrorInfo,std::allocator<Json::Reader::ErrorInfo> >::begin
PUBLIC	?end@?$deque@VErrorInfo@Reader@Json@@V?$allocator@VErrorInfo@Reader@Json@@@std@@@std@@QBE?AV?$_Deque_const_iterator@V?$_Deque_val@U?$_Deque_simple_types@VErrorInfo@Reader@Json@@@std@@@std@@@2@XZ ; std::deque<Json::Reader::ErrorInfo,std::allocator<Json::Reader::ErrorInfo> >::end
PUBLIC	?resize@?$deque@VErrorInfo@Reader@Json@@V?$allocator@VErrorInfo@Reader@Json@@@std@@@std@@QAEXI@Z ; std::deque<Json::Reader::ErrorInfo,std::allocator<Json::Reader::ErrorInfo> >::resize
PUBLIC	?size@?$deque@VErrorInfo@Reader@Json@@V?$allocator@VErrorInfo@Reader@Json@@@std@@@std@@QBEIXZ ; std::deque<Json::Reader::ErrorInfo,std::allocator<Json::Reader::ErrorInfo> >::size
PUBLIC	?push_back@?$deque@VErrorInfo@Reader@Json@@V?$allocator@VErrorInfo@Reader@Json@@@std@@@std@@QAEXABVErrorInfo@Reader@Json@@@Z ; std::deque<Json::Reader::ErrorInfo,std::allocator<Json::Reader::ErrorInfo> >::push_back
PUBLIC	?clear@?$deque@VErrorInfo@Reader@Json@@V?$allocator@VErrorInfo@Reader@Json@@@std@@@std@@QAEXXZ ; std::deque<Json::Reader::ErrorInfo,std::allocator<Json::Reader::ErrorInfo> >::clear
PUBLIC	??1?$deque@PAVValue@Json@@V?$allocator@PAVValue@Json@@@std@@@std@@QAE@XZ ; std::deque<Json::Value *,std::allocator<Json::Value *> >::~deque<Json::Value *,std::allocator<Json::Value *> >
PUBLIC	??0?$stack@PAVValue@Json@@V?$deque@PAVValue@Json@@V?$allocator@PAVValue@Json@@@std@@@std@@@std@@QAE@XZ ; std::stack<Json::Value *,std::deque<Json::Value *,std::allocator<Json::Value *> > >::stack<Json::Value *,std::deque<Json::Value *,std::allocator<Json::Value *> > >
PUBLIC	??0?$stack@PAVValue@Json@@V?$deque@PAVValue@Json@@V?$allocator@PAVValue@Json@@@std@@@std@@@std@@QAE@ABV01@@Z ; std::stack<Json::Value *,std::deque<Json::Value *,std::allocator<Json::Value *> > >::stack<Json::Value *,std::deque<Json::Value *,std::allocator<Json::Value *> > >
PUBLIC	??4?$stack@PAVValue@Json@@V?$deque@PAVValue@Json@@V?$allocator@PAVValue@Json@@@std@@@std@@@std@@QAEAAV01@ABV01@@Z ; std::stack<Json::Value *,std::deque<Json::Value *,std::allocator<Json::Value *> > >::operator=
PUBLIC	??0?$stack@PAVValue@Json@@V?$deque@PAVValue@Json@@V?$allocator@PAVValue@Json@@@std@@@std@@@std@@QAE@$$QAV01@@Z ; std::stack<Json::Value *,std::deque<Json::Value *,std::allocator<Json::Value *> > >::stack<Json::Value *,std::deque<Json::Value *,std::allocator<Json::Value *> > >
PUBLIC	??4?$stack@PAVValue@Json@@V?$deque@PAVValue@Json@@V?$allocator@PAVValue@Json@@@std@@@std@@@std@@QAEAAV01@$$QAV01@@Z ; std::stack<Json::Value *,std::deque<Json::Value *,std::allocator<Json::Value *> > >::operator=
PUBLIC	?push@?$stack@PAVValue@Json@@V?$deque@PAVValue@Json@@V?$allocator@PAVValue@Json@@@std@@@std@@@std@@QAEX$$QAPAVValue@Json@@@Z ; std::stack<Json::Value *,std::deque<Json::Value *,std::allocator<Json::Value *> > >::push
PUBLIC	?empty@?$stack@PAVValue@Json@@V?$deque@PAVValue@Json@@V?$allocator@PAVValue@Json@@@std@@@std@@@std@@QBE_NXZ ; std::stack<Json::Value *,std::deque<Json::Value *,std::allocator<Json::Value *> > >::empty
PUBLIC	?top@?$stack@PAVValue@Json@@V?$deque@PAVValue@Json@@V?$allocator@PAVValue@Json@@@std@@@std@@@std@@QAEAAPAVValue@Json@@XZ ; std::stack<Json::Value *,std::deque<Json::Value *,std::allocator<Json::Value *> > >::top
PUBLIC	?pop@?$stack@PAVValue@Json@@V?$deque@PAVValue@Json@@V?$allocator@PAVValue@Json@@@std@@@std@@@std@@QAEXXZ ; std::stack<Json::Value *,std::deque<Json::Value *,std::allocator<Json::Value *> > >::pop
PUBLIC	??D?$_Deque_const_iterator@V?$_Deque_val@U?$_Deque_simple_types@VErrorInfo@Reader@Json@@@std@@@std@@@std@@QBEABVErrorInfo@Reader@Json@@XZ ; std::_Deque_const_iterator<std::_Deque_val<std::_Deque_simple_types<Json::Reader::ErrorInfo> > >::operator*
PUBLIC	??E?$_Deque_const_iterator@V?$_Deque_val@U?$_Deque_simple_types@VErrorInfo@Reader@Json@@@std@@@std@@@std@@QAEAAV01@XZ ; std::_Deque_const_iterator<std::_Deque_val<std::_Deque_simple_types<Json::Reader::ErrorInfo> > >::operator++
PUBLIC	??9?$_Deque_const_iterator@V?$_Deque_val@U?$_Deque_simple_types@VErrorInfo@Reader@Json@@@std@@@std@@@std@@QBE_NABV01@@Z ; std::_Deque_const_iterator<std::_Deque_val<std::_Deque_simple_types<Json::Reader::ErrorInfo> > >::operator!=
PUBLIC	??1?$_Deque_const_iterator@V?$_Deque_val@U?$_Deque_simple_types@VErrorInfo@Reader@Json@@@std@@@std@@@std@@QAE@XZ ; std::_Deque_const_iterator<std::_Deque_val<std::_Deque_simple_types<Json::Reader::ErrorInfo> > >::~_Deque_const_iterator<std::_Deque_val<std::_Deque_simple_types<Json::Reader::ErrorInfo> > >
PUBLIC	?getFormatedErrorMessages@Reader@Json@@QBE?AV?$basic_string@DU?$char_traits@D@std@@V?$allocator@D@2@@std@@XZ ; Json::Reader::getFormatedErrorMessages
PUBLIC	?getLocationLineAndColumn@Reader@Json@@ABE?AV?$basic_string@DU?$char_traits@D@std@@V?$allocator@D@2@@std@@PBD@Z ; Json::Reader::getLocationLineAndColumn
PUBLIC	?getLocationLineAndColumn@Reader@Json@@ABEXPBDAAH1@Z ; Json::Reader::getLocationLineAndColumn
PUBLIC	?getNextChar@Reader@Json@@AAEDXZ		; Json::Reader::getNextChar
PUBLIC	?currentValue@Reader@Json@@AAEAAVValue@2@XZ	; Json::Reader::currentValue
PUBLIC	?addErrorAndRecover@Reader@Json@@AAE_NABV?$basic_string@DU?$char_traits@D@std@@V?$allocator@D@2@@std@@AAVToken@12@W4TokenType@12@@Z ; Json::Reader::addErrorAndRecover
PUBLIC	?recoverFromError@Reader@Json@@AAE_NW4TokenType@12@@Z ; Json::Reader::recoverFromError
PUBLIC	??1ErrorInfo@Reader@Json@@QAE@XZ		; Json::Reader::ErrorInfo::~ErrorInfo
PUBLIC	??0ErrorInfo@Reader@Json@@QAE@XZ		; Json::Reader::ErrorInfo::ErrorInfo
PUBLIC	?addError@Reader@Json@@AAE_NABV?$basic_string@DU?$char_traits@D@std@@V?$allocator@D@2@@std@@AAVToken@12@PBD@Z ; Json::Reader::addError
PUBLIC	?decodeUnicodeEscapeSequence@Reader@Json@@AAE_NAAVToken@12@AAPBDPBDAAI@Z ; Json::Reader::decodeUnicodeEscapeSequence
PUBLIC	?decodeUnicodeCodePoint@Reader@Json@@AAE_NAAVToken@12@AAPBDPBDAAI@Z ; Json::Reader::decodeUnicodeCodePoint
PUBLIC	?decodeString@Reader@Json@@AAE_NAAVToken@12@AAV?$basic_string@DU?$char_traits@D@std@@V?$allocator@D@2@@std@@@Z ; Json::Reader::decodeString
PUBLIC	?decodeString@Reader@Json@@AAE_NAAVToken@12@@Z	; Json::Reader::decodeString
PUBLIC	?decodeDouble@Reader@Json@@AAE_NAAVToken@12@@Z	; Json::Reader::decodeDouble
PUBLIC	?decodeNumber@Reader@Json@@AAE_NAAVToken@12@@Z	; Json::Reader::decodeNumber
PUBLIC	?readArray@Reader@Json@@AAE_NAAVToken@12@@Z	; Json::Reader::readArray
PUBLIC	?readObject@Reader@Json@@AAE_NAAVToken@12@@Z	; Json::Reader::readObject
PUBLIC	?readString@Reader@Json@@AAE_NXZ		; Json::Reader::readString
PUBLIC	?readNumber@Reader@Json@@AAEXXZ			; Json::Reader::readNumber
PUBLIC	?readCppStyleComment@Reader@Json@@AAE_NXZ	; Json::Reader::readCppStyleComment
PUBLIC	?readCStyleComment@Reader@Json@@AAE_NXZ		; Json::Reader::readCStyleComment
PUBLIC	?addComment@Reader@Json@@AAEXPBD0W4CommentPlacement@2@@Z ; Json::Reader::addComment
PUBLIC	?readComment@Reader@Json@@AAE_NXZ		; Json::Reader::readComment
PUBLIC	?match@Reader@Json@@AAE_NPBDH@Z			; Json::Reader::match
PUBLIC	?skipSpaces@Reader@Json@@AAEXXZ			; Json::Reader::skipSpaces
PUBLIC	?readToken@Reader@Json@@AAE_NAAVToken@12@@Z	; Json::Reader::readToken
PUBLIC	?expectToken@Reader@Json@@AAE_NW4TokenType@12@AAVToken@12@PBD@Z ; Json::Reader::expectToken
PUBLIC	?skipCommentTokens@Reader@Json@@AAEXAAVToken@12@@Z ; Json::Reader::skipCommentTokens
PUBLIC	?readValue@Reader@Json@@AAE_NXZ			; Json::Reader::readValue
PUBLIC	?parse@Reader@Json@@QAE_NPBD0AAVValue@2@_N@Z	; Json::Reader::parse
PUBLIC	?parse@Reader@Json@@QAE_NAAV?$basic_istream@DU?$char_traits@D@std@@@std@@AAVValue@2@_N@Z ; Json::Reader::parse
PUBLIC	?parse@Reader@Json@@QAE_NABV?$basic_string@DU?$char_traits@D@std@@V?$allocator@D@2@@std@@AAVValue@2@_N@Z ; Json::Reader::parse
PUBLIC	??0Reader@Json@@QAE@ABVFeatures@1@@Z		; Json::Reader::Reader
PUBLIC	??0Reader@Json@@QAE@XZ				; Json::Reader::Reader
PUBLIC	?strictMode@Features@Json@@SA?AV12@XZ		; Json::Features::strictMode
PUBLIC	?all@Features@Json@@SA?AV12@XZ			; Json::Features::all
PUBLIC	??0Features@Json@@QAE@XZ			; Json::Features::Features
PUBLIC	??1?$stack@PAVValue@Json@@V?$deque@PAVValue@Json@@V?$allocator@PAVValue@Json@@@std@@@std@@@std@@QAE@XZ ; std::stack<Json::Value *,std::deque<Json::Value *,std::allocator<Json::Value *> > >::~stack<Json::Value *,std::deque<Json::Value *,std::allocator<Json::Value *> > >
PUBLIC	??4Reader@Json@@QAEAAV01@$$QAV01@@Z		; Json::Reader::operator=
PUBLIC	??4Reader@Json@@QAEAAV01@ABV01@@Z		; Json::Reader::operator=
PUBLIC	??0Reader@Json@@QAE@$$QAV01@@Z			; Json::Reader::Reader
PUBLIC	??0Reader@Json@@QAE@ABV01@@Z			; Json::Reader::Reader
PUBLIC	??1Reader@Json@@QAE@XZ				; Json::Reader::~Reader
PUBLIC	??_FValue@Json@@QAEXXZ				; Json::Value::`default constructor closure'
PUBLIC	??4StaticString@Json@@QAEAAV01@$$QAV01@@Z	; Json::StaticString::operator=
PUBLIC	??4StaticString@Json@@QAEAAV01@ABV01@@Z		; Json::StaticString::operator=
PUBLIC	?c_str@StaticString@Json@@QBEPBDXZ		; Json::StaticString::c_str
PUBLIC	??BStaticString@Json@@QBEPBDXZ			; Json::StaticString::operator char const *
PUBLIC	??0StaticString@Json@@QAE@PBD@Z			; Json::StaticString::StaticString
PUBLIC	??0runtime_error@std@@QAE@ABV01@@Z		; std::runtime_error::runtime_error
PUBLIC	??1runtime_error@std@@UAE@XZ			; std::runtime_error::~runtime_error
PUBLIC	??_Gruntime_error@std@@UAEPAXI@Z		; std::runtime_error::`scalar deleting destructor'
PUBLIC	?_Deallocate@std@@YAXPAXII@Z			; std::_Deallocate
PUBLIC	?_Allocate@std@@YAPAXII_N@Z			; std::_Allocate
PUBLIC	?_Swap_all@_Container_base12@std@@QAEXAAU12@@Z	; std::_Container_base12::_Swap_all
PUBLIC	?_Orphan_all@_Container_base12@std@@QAEXXZ	; std::_Container_base12::_Orphan_all
PUBLIC	?_Getcont@_Iterator_base12@std@@QBEPBU_Container_base12@2@XZ ; std::_Iterator_base12::_Getcont
PUBLIC	?_Adopt@_Iterator_base12@std@@QAEXPBU_Container_base12@2@@Z ; std::_Iterator_base12::_Adopt
PUBLIC	??1_Iterator_base12@std@@QAE@XZ			; std::_Iterator_base12::~_Iterator_base12
PUBLIC	??4_Iterator_base12@std@@QAEAAU01@ABU01@@Z	; std::_Iterator_base12::operator=
PUBLIC	??0_Iterator_base12@std@@QAE@ABU01@@Z		; std::_Iterator_base12::_Iterator_base12
PUBLIC	??0_Iterator_base12@std@@QAE@XZ			; std::_Iterator_base12::_Iterator_base12
PUBLIC	??1_Container_base12@std@@QAE@XZ		; std::_Container_base12::~_Container_base12
PUBLIC	??0_Container_base12@std@@QAE@XZ		; std::_Container_base12::_Container_base12
PUBLIC	??0_Container_proxy@std@@QAE@XZ			; std::_Container_proxy::_Container_proxy
PUBLIC	?_Adopt@_Iterator_base0@std@@QAEXPBX@Z		; std::_Iterator_base0::_Adopt
PUBLIC	?eof@?$char_traits@D@std@@SAHXZ			; std::char_traits<char>::eof
PUBLIC	?eq_int_type@?$char_traits@D@std@@SA_NABH0@Z	; std::char_traits<char>::eq_int_type
PUBLIC	?to_int_type@?$char_traits@D@std@@SAHABD@Z	; std::char_traits<char>::to_int_type
PUBLIC	?to_char_type@?$char_traits@D@std@@SADABH@Z	; std::char_traits<char>::to_char_type
PUBLIC	?assign@?$char_traits@D@std@@SAXAADABD@Z	; std::char_traits<char>::assign
PUBLIC	?assign@?$char_traits@D@std@@SAPADPADID@Z	; std::char_traits<char>::assign
PUBLIC	?move@?$char_traits@D@std@@SAPADPADPBDI@Z	; std::char_traits<char>::move
PUBLIC	?copy@?$char_traits@D@std@@SAPADPADPBDI@Z	; std::char_traits<char>::copy
PUBLIC	?length@?$char_traits@D@std@@SAIPBD@Z		; std::char_traits<char>::length
PUBLIC	??3@YAXPAX0@Z					; operator delete
PUBLIC	??2@YAPAXIPAX@Z					; operator new
PUBLIC	??_Gexception@std@@UAEPAXI@Z			; std::exception::`scalar deleting destructor'
PUBLIC	?what@exception@std@@UBEPBDXZ			; std::exception::what
PUBLIC	??1exception@std@@UAE@XZ			; std::exception::~exception
PUBLIC	??0exception@std@@QAE@ABV01@@Z			; std::exception::exception
PUBLIC	??0exception@std@@QAE@QBD@Z			; std::exception::exception
PUBLIC	_sscanf
PUBLIC	__vsscanf_l
PUBLIC	_sprintf
PUBLIC	__vsprintf_l
PUBLIC	__vsnprintf_l
PUBLIC	___local_stdio_scanf_options
PUBLIC	___local_stdio_printf_options
PUBLIC	??4Features@Json@@QAEAAV01@$$QAV01@@Z		; Json::Features::operator=
PUBLIC	??4Features@Json@@QAEAAV01@ABV01@@Z		; Json::Features::operator=
PUBLIC	__real@0000000000000000
PUBLIC	__real@3ff0000000000000
PUBLIC	__real@41dfffffffc00000
PUBLIC	__real@41efffffffe00000
PUBLIC	__real@c1e0000000000000
PUBLIC	__xmm@41f00000000000000000000000000000
EXTRN	??_Eexception@std@@UAEPAXI@Z:PROC		; std::exception::`vector deleting destructor'
EXTRN	??_Eruntime_error@std@@UAEPAXI@Z:PROC		; std::runtime_error::`vector deleting destructor'
EXTRN	__CxxThrowException@8:PROC
EXTRN	___CxxFrameHandler3:PROC
EXTRN	__dtoui3:PROC
EXTRN	_memcpy:PROC
EXTRN	_memset:PROC
EXTRN	___security_cookie:DWORD
EXTRN	__fltused:DWORD
EXTRN	__tls_array:DWORD
EXTRN	__tls_index:DWORD
;	COMDAT __xmm@41f00000000000000000000000000000
CONST	SEGMENT
__xmm@41f00000000000000000000000000000 DB 00H, 00H, 00H, 00H, 00H, 00H, 00H
	DB	00H, 00H, 00H, 00H, 00H, 00H, 00H, 0f0H, 'A'
CONST	ENDS
;	COMDAT __real@c1e0000000000000
CONST	SEGMENT
__real@c1e0000000000000 DQ 0c1e0000000000000r	; -2.14748e+09
CONST	ENDS
;	COMDAT __real@41efffffffe00000
CONST	SEGMENT
__real@41efffffffe00000 DQ 041efffffffe00000r	; 4.29497e+09
CONST	ENDS
;	COMDAT __real@41dfffffffc00000
CONST	SEGMENT
__real@41dfffffffc00000 DQ 041dfffffffc00000r	; 2.14748e+09
CONST	ENDS
;	COMDAT __real@3ff0000000000000
CONST	SEGMENT
__real@3ff0000000000000 DQ 03ff0000000000000r	; 1
CONST	ENDS
;	COMDAT __real@0000000000000000
CONST	SEGMENT
__real@0000000000000000 DQ 00000000000000000r	; 0
CONST	ENDS
;	COMDAT xdata$x
xdata$x	SEGMENT
__ehfuncinfo$??0Reader@Json@@QAE@ABV01@@Z DD 019930522H
	DD	03H
	DD	FLAT:__unwindtable$??0Reader@Json@@QAE@ABV01@@Z
	DD	2 DUP(00H)
	DD	2 DUP(00H)
	DD	00H
	DD	01H
__unwindtable$??0Reader@Json@@QAE@ABV01@@Z DD 0ffffffffH
	DD	FLAT:__unwindfunclet$??0Reader@Json@@QAE@ABV01@@Z$0
	DD	00H
	DD	FLAT:__unwindfunclet$??0Reader@Json@@QAE@ABV01@@Z$1
	DD	01H
	DD	FLAT:__unwindfunclet$??0Reader@Json@@QAE@ABV01@@Z$2
xdata$x	ENDS
;	COMDAT xdata$x
xdata$x	SEGMENT
__ehfuncinfo$??0Reader@Json@@QAE@$$QAV01@@Z DD 019930522H
	DD	01H
	DD	FLAT:__unwindtable$??0Reader@Json@@QAE@$$QAV01@@Z
	DD	2 DUP(00H)
	DD	2 DUP(00H)
	DD	00H
	DD	01H
__unwindtable$??0Reader@Json@@QAE@$$QAV01@@Z DD 0ffffffffH
	DD	FLAT:__unwindfunclet$??0Reader@Json@@QAE@$$QAV01@@Z$0
xdata$x	ENDS
;	COMDAT xdata$x
xdata$x	SEGMENT
__ehfuncinfo$??4Reader@Json@@QAEAAV01@$$QAV01@@Z DD 019930522H
	DD	04H
	DD	FLAT:__unwindtable$??4Reader@Json@@QAEAAV01@$$QAV01@@Z
	DD	2 DUP(00H)
	DD	2 DUP(00H)
	DD	00H
	DD	05H
__unwindtable$??4Reader@Json@@QAEAAV01@$$QAV01@@Z DD 0ffffffffH
	DD	FLAT:__unwindfunclet$??4Reader@Json@@QAEAAV01@$$QAV01@@Z$2
	DD	0ffffffffH
	DD	FLAT:__unwindfunclet$??4Reader@Json@@QAEAAV01@$$QAV01@@Z$84
	DD	0ffffffffH
	DD	FLAT:__unwindfunclet$??4Reader@Json@@QAEAAV01@$$QAV01@@Z$166
	DD	0ffffffffH
	DD	FLAT:__unwindfunclet$??4Reader@Json@@QAEAAV01@$$QAV01@@Z$222
xdata$x	ENDS
;	COMDAT xdata$x
xdata$x	SEGMENT
__ehfuncinfo$?codePointToUTF8@Json@@YA?AV?$basic_string@DU?$char_traits@D@std@@V?$allocator@D@2@@std@@I@Z DD 019930522H
	DD	01H
	DD	FLAT:__unwindtable$?codePointToUTF8@Json@@YA?AV?$basic_string@DU?$char_traits@D@std@@V?$allocator@D@2@@std@@I@Z
	DD	2 DUP(00H)
	DD	2 DUP(00H)
	DD	00H
	DD	01H
__unwindtable$?codePointToUTF8@Json@@YA?AV?$basic_string@DU?$char_traits@D@std@@V?$allocator@D@2@@std@@I@Z DD 0ffffffffH
	DD	FLAT:__unwindfunclet$?codePointToUTF8@Json@@YA?AV?$basic_string@DU?$char_traits@D@std@@V?$allocator@D@2@@std@@I@Z$0
xdata$x	ENDS
;	COMDAT xdata$x
xdata$x	SEGMENT
__ehfuncinfo$??0Reader@Json@@QAE@XZ DD 019930522H
	DD	01H
	DD	FLAT:__unwindtable$??0Reader@Json@@QAE@XZ
	DD	2 DUP(00H)
	DD	2 DUP(00H)
	DD	00H
	DD	01H
__unwindtable$??0Reader@Json@@QAE@XZ DD 0ffffffffH
	DD	FLAT:__unwindfunclet$??0Reader@Json@@QAE@XZ$0
xdata$x	ENDS
;	COMDAT xdata$x
xdata$x	SEGMENT
__ehfuncinfo$??0Reader@Json@@QAE@ABVFeatures@1@@Z DD 019930522H
	DD	01H
	DD	FLAT:__unwindtable$??0Reader@Json@@QAE@ABVFeatures@1@@Z
	DD	2 DUP(00H)
	DD	2 DUP(00H)
	DD	00H
	DD	01H
__unwindtable$??0Reader@Json@@QAE@ABVFeatures@1@@Z DD 0ffffffffH
	DD	FLAT:__unwindfunclet$??0Reader@Json@@QAE@ABVFeatures@1@@Z$0
xdata$x	ENDS
;	COMDAT xdata$x
xdata$x	SEGMENT
__ehfuncinfo$?parse@Reader@Json@@QAE_NAAV?$basic_istream@DU?$char_traits@D@std@@@std@@AAVValue@2@_N@Z DD 019930522H
	DD	01H
	DD	FLAT:__unwindtable$?parse@Reader@Json@@QAE_NAAV?$basic_istream@DU?$char_traits@D@std@@@std@@AAVValue@2@_N@Z
	DD	2 DUP(00H)
	DD	2 DUP(00H)
	DD	00H
	DD	01H
__unwindtable$?parse@Reader@Json@@QAE_NAAV?$basic_istream@DU?$char_traits@D@std@@@std@@AAVValue@2@_N@Z DD 0ffffffffH
	DD	FLAT:__unwindfunclet$?parse@Reader@Json@@QAE_NAAV?$basic_istream@DU?$char_traits@D@std@@@std@@AAVValue@2@_N@Z$0
xdata$x	ENDS
;	COMDAT xdata$x
xdata$x	SEGMENT
__ehfuncinfo$?parse@Reader@Json@@QAE_NPBD0AAVValue@2@_N@Z DD 019930522H
	DD	01H
	DD	FLAT:__unwindtable$?parse@Reader@Json@@QAE_NPBD0AAVValue@2@_N@Z
	DD	2 DUP(00H)
	DD	2 DUP(00H)
	DD	00H
	DD	01H
__unwindtable$?parse@Reader@Json@@QAE_NPBD0AAVValue@2@_N@Z DD 0ffffffffH
	DD	FLAT:__unwindfunclet$?parse@Reader@Json@@QAE_NPBD0AAVValue@2@_N@Z$0
xdata$x	ENDS
;	COMDAT xdata$x
xdata$x	SEGMENT
__ehfuncinfo$?readValue@Reader@Json@@AAE_NXZ DD 019930522H
	DD	05H
	DD	FLAT:__unwindtable$?readValue@Reader@Json@@AAE_NXZ
	DD	2 DUP(00H)
	DD	2 DUP(00H)
	DD	00H
	DD	01H
__unwindtable$?readValue@Reader@Json@@AAE_NXZ DD 0ffffffffH
	DD	FLAT:__unwindfunclet$?readValue@Reader@Json@@AAE_NXZ$0
	DD	0ffffffffH
	DD	FLAT:__unwindfunclet$?readValue@Reader@Json@@AAE_NXZ$1
	DD	0ffffffffH
	DD	00H
	DD	0ffffffffH
	DD	FLAT:__unwindfunclet$?readValue@Reader@Json@@AAE_NXZ$2
	DD	0ffffffffH
	DD	FLAT:__unwindfunclet$?readValue@Reader@Json@@AAE_NXZ$3
xdata$x	ENDS
;	COMDAT xdata$x
xdata$x	SEGMENT
__ehfuncinfo$?expectToken@Reader@Json@@AAE_NW4TokenType@12@AAVToken@12@PBD@Z DD 019930522H
	DD	01H
	DD	FLAT:__unwindtable$?expectToken@Reader@Json@@AAE_NW4TokenType@12@AAVToken@12@PBD@Z
	DD	2 DUP(00H)
	DD	2 DUP(00H)
	DD	00H
	DD	01H
__unwindtable$?expectToken@Reader@Json@@AAE_NW4TokenType@12@AAVToken@12@PBD@Z DD 0ffffffffH
	DD	FLAT:__unwindfunclet$?expectToken@Reader@Json@@AAE_NW4TokenType@12@AAVToken@12@PBD@Z$0
xdata$x	ENDS
;	COMDAT xdata$x
xdata$x	SEGMENT
__ehfuncinfo$?addComment@Reader@Json@@AAEXPBD0W4CommentPlacement@2@@Z DD 019930522H
	DD	02H
	DD	FLAT:__unwindtable$?addComment@Reader@Json@@AAEXPBD0W4CommentPlacement@2@@Z
	DD	2 DUP(00H)
	DD	2 DUP(00H)
	DD	00H
	DD	01H
__unwindtable$?addComment@Reader@Json@@AAEXPBD0W4CommentPlacement@2@@Z DD 0ffffffffH
	DD	FLAT:__unwindfunclet$?addComment@Reader@Json@@AAEXPBD0W4CommentPlacement@2@@Z$0
	DD	0ffffffffH
	DD	FLAT:__unwindfunclet$?addComment@Reader@Json@@AAEXPBD0W4CommentPlacement@2@@Z$1
xdata$x	ENDS
;	COMDAT xdata$x
xdata$x	SEGMENT
__ehfuncinfo$?readObject@Reader@Json@@AAE_NAAVToken@12@@Z DD 019930522H
	DD	06H
	DD	FLAT:__unwindtable$?readObject@Reader@Json@@AAE_NAAVToken@12@@Z
	DD	2 DUP(00H)
	DD	2 DUP(00H)
	DD	00H
	DD	01H
__unwindtable$?readObject@Reader@Json@@AAE_NAAVToken@12@@Z DD 0ffffffffH
	DD	FLAT:__unwindfunclet$?readObject@Reader@Json@@AAE_NAAVToken@12@@Z$0
	DD	00H
	DD	FLAT:__unwindfunclet$?readObject@Reader@Json@@AAE_NAAVToken@12@@Z$32
	DD	00H
	DD	FLAT:__unwindfunclet$?readObject@Reader@Json@@AAE_NAAVToken@12@@Z$1
	DD	00H
	DD	FLAT:__unwindfunclet$?readObject@Reader@Json@@AAE_NAAVToken@12@@Z$2
	DD	00H
	DD	FLAT:__unwindfunclet$?readObject@Reader@Json@@AAE_NAAVToken@12@@Z$3
	DD	00H
	DD	FLAT:__unwindfunclet$?readObject@Reader@Json@@AAE_NAAVToken@12@@Z$4
xdata$x	ENDS
;	COMDAT xdata$x
xdata$x	SEGMENT
__ehfuncinfo$?readArray@Reader@Json@@AAE_NAAVToken@12@@Z DD 019930522H
	DD	03H
	DD	FLAT:__unwindtable$?readArray@Reader@Json@@AAE_NAAVToken@12@@Z
	DD	2 DUP(00H)
	DD	2 DUP(00H)
	DD	00H
	DD	01H
__unwindtable$?readArray@Reader@Json@@AAE_NAAVToken@12@@Z DD 0ffffffffH
	DD	FLAT:__unwindfunclet$?readArray@Reader@Json@@AAE_NAAVToken@12@@Z$2
	DD	0ffffffffH
	DD	FLAT:__unwindfunclet$?readArray@Reader@Json@@AAE_NAAVToken@12@@Z$0
	DD	0ffffffffH
	DD	FLAT:__unwindfunclet$?readArray@Reader@Json@@AAE_NAAVToken@12@@Z$1
xdata$x	ENDS
;	COMDAT xdata$x
xdata$x	SEGMENT
__ehfuncinfo$?decodeNumber@Reader@Json@@AAE_NAAVToken@12@@Z DD 019930522H
	DD	07H
	DD	FLAT:__unwindtable$?decodeNumber@Reader@Json@@AAE_NAAVToken@12@@Z
	DD	2 DUP(00H)
	DD	2 DUP(00H)
	DD	00H
	DD	01H
__unwindtable$?decodeNumber@Reader@Json@@AAE_NAAVToken@12@@Z DD 0ffffffffH
	DD	FLAT:__unwindfunclet$?decodeNumber@Reader@Json@@AAE_NAAVToken@12@@Z$0
	DD	00H
	DD	FLAT:__unwindfunclet$?decodeNumber@Reader@Json@@AAE_NAAVToken@12@@Z$1
	DD	01H
	DD	FLAT:__unwindfunclet$?decodeNumber@Reader@Json@@AAE_NAAVToken@12@@Z$2
	DD	02H
	DD	FLAT:__unwindfunclet$?decodeNumber@Reader@Json@@AAE_NAAVToken@12@@Z$35
	DD	0ffffffffH
	DD	FLAT:__unwindfunclet$?decodeNumber@Reader@Json@@AAE_NAAVToken@12@@Z$3
	DD	0ffffffffH
	DD	FLAT:__unwindfunclet$?decodeNumber@Reader@Json@@AAE_NAAVToken@12@@Z$4
	DD	0ffffffffH
	DD	FLAT:__unwindfunclet$?decodeNumber@Reader@Json@@AAE_NAAVToken@12@@Z$5
xdata$x	ENDS
;	COMDAT xdata$x
xdata$x	SEGMENT
__ehfuncinfo$?decodeDouble@Reader@Json@@AAE_NAAVToken@12@@Z DD 019930522H
	DD	04H
	DD	FLAT:__unwindtable$?decodeDouble@Reader@Json@@AAE_NAAVToken@12@@Z
	DD	2 DUP(00H)
	DD	2 DUP(00H)
	DD	00H
	DD	01H
__unwindtable$?decodeDouble@Reader@Json@@AAE_NAAVToken@12@@Z DD 0ffffffffH
	DD	FLAT:__unwindfunclet$?decodeDouble@Reader@Json@@AAE_NAAVToken@12@@Z$1
	DD	00H
	DD	FLAT:__unwindfunclet$?decodeDouble@Reader@Json@@AAE_NAAVToken@12@@Z$2
	DD	01H
	DD	FLAT:__unwindfunclet$?decodeDouble@Reader@Json@@AAE_NAAVToken@12@@Z$3
	DD	0ffffffffH
	DD	FLAT:__unwindfunclet$?decodeDouble@Reader@Json@@AAE_NAAVToken@12@@Z$4
xdata$x	ENDS
;	COMDAT xdata$x
xdata$x	SEGMENT
__ehfuncinfo$?decodeString@Reader@Json@@AAE_NAAVToken@12@@Z DD 019930522H
	DD	02H
	DD	FLAT:__unwindtable$?decodeString@Reader@Json@@AAE_NAAVToken@12@@Z
	DD	2 DUP(00H)
	DD	2 DUP(00H)
	DD	00H
	DD	01H
__unwindtable$?decodeString@Reader@Json@@AAE_NAAVToken@12@@Z DD 0ffffffffH
	DD	FLAT:__unwindfunclet$?decodeString@Reader@Json@@AAE_NAAVToken@12@@Z$0
	DD	00H
	DD	FLAT:__unwindfunclet$?decodeString@Reader@Json@@AAE_NAAVToken@12@@Z$1
xdata$x	ENDS
;	COMDAT xdata$x
xdata$x	SEGMENT
__ehfuncinfo$?decodeString@Reader@Json@@AAE_NAAVToken@12@AAV?$basic_string@DU?$char_traits@D@std@@V?$allocator@D@2@@std@@@Z DD 019930522H
	DD	03H
	DD	FLAT:__unwindtable$?decodeString@Reader@Json@@AAE_NAAVToken@12@AAV?$basic_string@DU?$char_traits@D@std@@V?$allocator@D@2@@std@@@Z
	DD	2 DUP(00H)
	DD	2 DUP(00H)
	DD	00H
	DD	01H
__unwindtable$?decodeString@Reader@Json@@AAE_NAAVToken@12@AAV?$basic_string@DU?$char_traits@D@std@@V?$allocator@D@2@@std@@@Z DD 0ffffffffH
	DD	FLAT:__unwindfunclet$?decodeString@Reader@Json@@AAE_NAAVToken@12@AAV?$basic_string@DU?$char_traits@D@std@@V?$allocator@D@2@@std@@@Z$0
	DD	0ffffffffH
	DD	FLAT:__unwindfunclet$?decodeString@Reader@Json@@AAE_NAAVToken@12@AAV?$basic_string@DU?$char_traits@D@std@@V?$allocator@D@2@@std@@@Z$1
	DD	0ffffffffH
	DD	FLAT:__unwindfunclet$?decodeString@Reader@Json@@AAE_NAAVToken@12@AAV?$basic_string@DU?$char_traits@D@std@@V?$allocator@D@2@@std@@@Z$2
xdata$x	ENDS
;	COMDAT xdata$x
xdata$x	SEGMENT
__ehfuncinfo$?decodeUnicodeCodePoint@Reader@Json@@AAE_NAAVToken@12@AAPBDPBDAAI@Z DD 019930522H
	DD	02H
	DD	FLAT:__unwindtable$?decodeUnicodeCodePoint@Reader@Json@@AAE_NAAVToken@12@AAPBDPBDAAI@Z
	DD	2 DUP(00H)
	DD	2 DUP(00H)
	DD	00H
	DD	01H
__unwindtable$?decodeUnicodeCodePoint@Reader@Json@@AAE_NAAVToken@12@AAPBDPBDAAI@Z DD 0ffffffffH
	DD	FLAT:__unwindfunclet$?decodeUnicodeCodePoint@Reader@Json@@AAE_NAAVToken@12@AAPBDPBDAAI@Z$0
	DD	0ffffffffH
	DD	FLAT:__unwindfunclet$?decodeUnicodeCodePoint@Reader@Json@@AAE_NAAVToken@12@AAPBDPBDAAI@Z$1
xdata$x	ENDS
;	COMDAT xdata$x
xdata$x	SEGMENT
__ehfuncinfo$?decodeUnicodeEscapeSequence@Reader@Json@@AAE_NAAVToken@12@AAPBDPBDAAI@Z DD 019930522H
	DD	03H
	DD	FLAT:__unwindtable$?decodeUnicodeEscapeSequence@Reader@Json@@AAE_NAAVToken@12@AAPBDPBDAAI@Z
	DD	2 DUP(00H)
	DD	2 DUP(00H)
	DD	00H
	DD	01H
__unwindtable$?decodeUnicodeEscapeSequence@Reader@Json@@AAE_NAAVToken@12@AAPBDPBDAAI@Z DD 0ffffffffH
	DD	FLAT:__unwindfunclet$?decodeUnicodeEscapeSequence@Reader@Json@@AAE_NAAVToken@12@AAPBDPBDAAI@Z$0
	DD	0ffffffffH
	DD	FLAT:__unwindfunclet$?decodeUnicodeEscapeSequence@Reader@Json@@AAE_NAAVToken@12@AAPBDPBDAAI@Z$1
	DD	01H
	DD	FLAT:__unwindfunclet$?decodeUnicodeEscapeSequence@Reader@Json@@AAE_NAAVToken@12@AAPBDPBDAAI@Z$81
xdata$x	ENDS
;	COMDAT xdata$x
xdata$x	SEGMENT
__ehfuncinfo$?addError@Reader@Json@@AAE_NABV?$basic_string@DU?$char_traits@D@std@@V?$allocator@D@2@@std@@AAVToken@12@PBD@Z DD 019930522H
	DD	01H
	DD	FLAT:__unwindtable$?addError@Reader@Json@@AAE_NABV?$basic_string@DU?$char_traits@D@std@@V?$allocator@D@2@@std@@AAVToken@12@PBD@Z
	DD	2 DUP(00H)
	DD	2 DUP(00H)
	DD	00H
	DD	01H
__unwindtable$?addError@Reader@Json@@AAE_NABV?$basic_string@DU?$char_traits@D@std@@V?$allocator@D@2@@std@@AAVToken@12@PBD@Z DD 0ffffffffH
	DD	FLAT:__unwindfunclet$?addError@Reader@Json@@AAE_NABV?$basic_string@DU?$char_traits@D@std@@V?$allocator@D@2@@std@@AAVToken@12@PBD@Z$0
xdata$x	ENDS
;	COMDAT xdata$x
xdata$x	SEGMENT
__ehfuncinfo$?addErrorAndRecover@Reader@Json@@AAE_NABV?$basic_string@DU?$char_traits@D@std@@V?$allocator@D@2@@std@@AAVToken@12@W4TokenType@12@@Z DD 019930522H
	DD	01H
	DD	FLAT:__unwindtable$?addErrorAndRecover@Reader@Json@@AAE_NABV?$basic_string@DU?$char_traits@D@std@@V?$allocator@D@2@@std@@AAVToken@12@W4TokenType@12@@Z
	DD	2 DUP(00H)
	DD	2 DUP(00H)
	DD	00H
	DD	01H
__unwindtable$?addErrorAndRecover@Reader@Json@@AAE_NABV?$basic_string@DU?$char_traits@D@std@@V?$allocator@D@2@@std@@AAVToken@12@W4TokenType@12@@Z DD 0ffffffffH
	DD	FLAT:__unwindfunclet$?addErrorAndRecover@Reader@Json@@AAE_NABV?$basic_string@DU?$char_traits@D@std@@V?$allocator@D@2@@std@@AAVToken@12@W4TokenType@12@@Z$0
xdata$x	ENDS
;	COMDAT xdata$x
xdata$x	SEGMENT
__ehfuncinfo$?getFormatedErrorMessages@Reader@Json@@QBE?AV?$basic_string@DU?$char_traits@D@std@@V?$allocator@D@2@@std@@XZ DD 019930522H
	DD	09H
	DD	FLAT:__unwindtable$?getFormatedErrorMessages@Reader@Json@@QBE?AV?$basic_string@DU?$char_traits@D@std@@V?$allocator@D@2@@std@@XZ
	DD	2 DUP(00H)
	DD	2 DUP(00H)
	DD	00H
	DD	01H
	ORG $+4
__unwindtable$?getFormatedErrorMessages@Reader@Json@@QBE?AV?$basic_string@DU?$char_traits@D@std@@V?$allocator@D@2@@std@@XZ DD 0ffffffffH
	DD	FLAT:__unwindfunclet$?getFormatedErrorMessages@Reader@Json@@QBE?AV?$basic_string@DU?$char_traits@D@std@@V?$allocator@D@2@@std@@XZ$0
	DD	00H
	DD	FLAT:__unwindfunclet$?getFormatedErrorMessages@Reader@Json@@QBE?AV?$basic_string@DU?$char_traits@D@std@@V?$allocator@D@2@@std@@XZ$1
	DD	01H
	DD	FLAT:__unwindfunclet$?getFormatedErrorMessages@Reader@Json@@QBE?AV?$basic_string@DU?$char_traits@D@std@@V?$allocator@D@2@@std@@XZ$2
	DD	02H
	DD	FLAT:__unwindfunclet$?getFormatedErrorMessages@Reader@Json@@QBE?AV?$basic_string@DU?$char_traits@D@std@@V?$allocator@D@2@@std@@XZ$3
	DD	00H
	DD	FLAT:__unwindfunclet$?getFormatedErrorMessages@Reader@Json@@QBE?AV?$basic_string@DU?$char_traits@D@std@@V?$allocator@D@2@@std@@XZ$4
	DD	04H
	DD	FLAT:__unwindfunclet$?getFormatedErrorMessages@Reader@Json@@QBE?AV?$basic_string@DU?$char_traits@D@std@@V?$allocator@D@2@@std@@XZ$5
	DD	00H
	DD	FLAT:__unwindfunclet$?getFormatedErrorMessages@Reader@Json@@QBE?AV?$basic_string@DU?$char_traits@D@std@@V?$allocator@D@2@@std@@XZ$6
	DD	06H
	DD	FLAT:__unwindfunclet$?getFormatedErrorMessages@Reader@Json@@QBE?AV?$basic_string@DU?$char_traits@D@std@@V?$allocator@D@2@@std@@XZ$7
	DD	07H
	DD	FLAT:__unwindfunclet$?getFormatedErrorMessages@Reader@Json@@QBE?AV?$basic_string@DU?$char_traits@D@std@@V?$allocator@D@2@@std@@XZ$8
xdata$x	ENDS
;	COMDAT xdata$x
xdata$x	SEGMENT
__ehfuncinfo$??4?$stack@PAVValue@Json@@V?$deque@PAVValue@Json@@V?$allocator@PAVValue@Json@@@std@@@std@@@std@@QAEAAV01@$$QAV01@@Z DD 019930522H
	DD	01H
	DD	FLAT:__unwindtable$??4?$stack@PAVValue@Json@@V?$deque@PAVValue@Json@@V?$allocator@PAVValue@Json@@@std@@@std@@@std@@QAEAAV01@$$QAV01@@Z
	DD	2 DUP(00H)
	DD	2 DUP(00H)
	DD	00H
	DD	05H
__unwindtable$??4?$stack@PAVValue@Json@@V?$deque@PAVValue@Json@@V?$allocator@PAVValue@Json@@@std@@@std@@@std@@QAEAAV01@$$QAV01@@Z DD 0ffffffffH
	DD	FLAT:__unwindfunclet$??4?$stack@PAVValue@Json@@V?$deque@PAVValue@Json@@V?$allocator@PAVValue@Json@@@std@@@std@@@std@@QAEAAV01@$$QAV01@@Z$1
xdata$x	ENDS
;	COMDAT xdata$x
xdata$x	SEGMENT
__ehfuncinfo$?push_back@?$deque@VErrorInfo@Reader@Json@@V?$allocator@VErrorInfo@Reader@Json@@@std@@@std@@QAEXABVErrorInfo@Reader@Json@@@Z DD 019930522H
	DD	01H
	DD	FLAT:__unwindtable$?push_back@?$deque@VErrorInfo@Reader@Json@@V?$allocator@VErrorInfo@Reader@Json@@@std@@@std@@QAEXABVErrorInfo@Reader@Json@@@Z
	DD	2 DUP(00H)
	DD	2 DUP(00H)
	DD	00H
	DD	01H
__unwindtable$?push_back@?$deque@VErrorInfo@Reader@Json@@V?$allocator@VErrorInfo@Reader@Json@@@std@@@std@@QAEXABVErrorInfo@Reader@Json@@@Z DD 0ffffffffH
	DD	FLAT:__unwindfunclet$?push_back@?$deque@VErrorInfo@Reader@Json@@V?$allocator@VErrorInfo@Reader@Json@@@std@@@std@@QAEXABVErrorInfo@Reader@Json@@@Z$41
xdata$x	ENDS
;	COMDAT xdata$x
xdata$x	SEGMENT
__ehfuncinfo$??4?$deque@VErrorInfo@Reader@Json@@V?$allocator@VErrorInfo@Reader@Json@@@std@@@std@@QAEAAV01@$$QAV01@@Z DD 019930522H
	DD	00H
	DD	00H
	DD	2 DUP(00H)
	DD	2 DUP(00H)
	DD	00H
	DD	05H
xdata$x	ENDS
;	COMDAT xdata$x
xdata$x	SEGMENT
__ehfuncinfo$??0?$deque@VErrorInfo@Reader@Json@@V?$allocator@VErrorInfo@Reader@Json@@@std@@@std@@QAE@ABV01@@Z DD 019930522H
	DD	01H
	DD	FLAT:__unwindtable$??0?$deque@VErrorInfo@Reader@Json@@V?$allocator@VErrorInfo@Reader@Json@@@std@@@std@@QAE@ABV01@@Z
	DD	2 DUP(00H)
	DD	2 DUP(00H)
	DD	00H
	DD	01H
__unwindtable$??0?$deque@VErrorInfo@Reader@Json@@V?$allocator@VErrorInfo@Reader@Json@@@std@@@std@@QAE@ABV01@@Z DD 0ffffffffH
	DD	FLAT:__unwindfunclet$??0?$deque@VErrorInfo@Reader@Json@@V?$allocator@VErrorInfo@Reader@Json@@@std@@@std@@QAE@ABV01@@Z$0
xdata$x	ENDS
;	COMDAT xdata$x
xdata$x	SEGMENT
__ehfuncinfo$??4?$basic_string@DU?$char_traits@D@std@@V?$allocator@D@2@@std@@QAEAAV01@$$QAV01@@Z DD 019930522H
	DD	00H
	DD	00H
	DD	2 DUP(00H)
	DD	2 DUP(00H)
	DD	00H
	DD	05H
xdata$x	ENDS
;	COMDAT xdata$x
xdata$x	SEGMENT
__ehfuncinfo$??4?$deque@PAVValue@Json@@V?$allocator@PAVValue@Json@@@std@@@std@@QAEAAV01@$$QAV01@@Z DD 019930522H
	DD	00H
	DD	00H
	DD	2 DUP(00H)
	DD	2 DUP(00H)
	DD	00H
	DD	05H
xdata$x	ENDS
;	COMDAT xdata$x
xdata$x	SEGMENT
__ehfuncinfo$??0?$deque@PAVValue@Json@@V?$allocator@PAVValue@Json@@@std@@@std@@QAE@ABV01@@Z DD 019930522H
	DD	01H
	DD	FLAT:__unwindtable$??0?$deque@PAVValue@Json@@V?$allocator@PAVValue@Json@@@std@@@std@@QAE@ABV01@@Z
	DD	2 DUP(00H)
	DD	2 DUP(00H)
	DD	00H
	DD	01H
__unwindtable$??0?$deque@PAVValue@Json@@V?$allocator@PAVValue@Json@@@std@@@std@@QAE@ABV01@@Z DD 0ffffffffH
	DD	FLAT:__unwindfunclet$??0?$deque@PAVValue@Json@@V?$allocator@PAVValue@Json@@@std@@@std@@QAE@ABV01@@Z$0
xdata$x	ENDS
;	COMDAT xdata$x
xdata$x	SEGMENT
__ehfuncinfo$?_Copy@?$basic_string@DU?$char_traits@D@std@@V?$allocator@D@2@@std@@QAEXII@Z DD 019930522H
	DD	04H
	DD	FLAT:__unwindtable$?_Copy@?$basic_string@DU?$char_traits@D@std@@V?$allocator@D@2@@std@@QAEXII@Z
	DD	02H
	DD	FLAT:__tryblocktable$?_Copy@?$basic_string@DU?$char_traits@D@std@@V?$allocator@D@2@@std@@QAEXII@Z
	DD	2 DUP(00H)
	DD	00H
	DD	01H
__unwindtable$?_Copy@?$basic_string@DU?$char_traits@D@std@@V?$allocator@D@2@@std@@QAEXII@Z DD 0ffffffffH
	DD	00H
	DD	0ffffffffH
	DD	00H
	DD	01H
	DD	00H
	DD	01H
	DD	00H
__tryblocktable$?_Copy@?$basic_string@DU?$char_traits@D@std@@V?$allocator@D@2@@std@@QAEXII@Z DD 02H
	DD	02H
	DD	03H
	DD	01H
	DD	FLAT:__catchsym$?_Copy@?$basic_string@DU?$char_traits@D@std@@V?$allocator@D@2@@std@@QAEXII@Z$110
	DD	00H
	DD	00H
	DD	03H
	DD	01H
	DD	FLAT:__catchsym$?_Copy@?$basic_string@DU?$char_traits@D@std@@V?$allocator@D@2@@std@@QAEXII@Z$111
__catchsym$?_Copy@?$basic_string@DU?$char_traits@D@std@@V?$allocator@D@2@@std@@QAEXII@Z$110 DD 040H
	DD	00H
	DD	00H
	DD	FLAT:__catch$?_Copy@?$basic_string@DU?$char_traits@D@std@@V?$allocator@D@2@@std@@QAEXII@Z$1
__catchsym$?_Copy@?$basic_string@DU?$char_traits@D@std@@V?$allocator@D@2@@std@@QAEXII@Z$111 DD 040H
	DD	00H
	DD	00H
	DD	FLAT:__catch$?_Copy@?$basic_string@DU?$char_traits@D@std@@V?$allocator@D@2@@std@@QAEXII@Z$0
xdata$x	ENDS
;	COMDAT xdata$x
xdata$x	SEGMENT
__ehfuncinfo$??$?HDU?$char_traits@D@std@@V?$allocator@D@1@@std@@YA?AV?$basic_string@DU?$char_traits@D@std@@V?$allocator@D@2@@0@PBDABV10@@Z DD 019930522H
	DD	01H
	DD	FLAT:__unwindtable$??$?HDU?$char_traits@D@std@@V?$allocator@D@1@@std@@YA?AV?$basic_string@DU?$char_traits@D@std@@V?$allocator@D@2@@0@PBDABV10@@Z
	DD	2 DUP(00H)
	DD	2 DUP(00H)
	DD	00H
	DD	01H
__unwindtable$??$?HDU?$char_traits@D@std@@V?$allocator@D@1@@std@@YA?AV?$basic_string@DU?$char_traits@D@std@@V?$allocator@D@2@@0@PBDABV10@@Z DD 0ffffffffH
	DD	FLAT:__unwindfunclet$??$?HDU?$char_traits@D@std@@V?$allocator@D@1@@std@@YA?AV?$basic_string@DU?$char_traits@D@std@@V?$allocator@D@2@@0@PBDABV10@@Z$0
xdata$x	ENDS
;	COMDAT xdata$x
xdata$x	SEGMENT
__ehfuncinfo$??$construct@VErrorInfo@Reader@Json@@ABV123@@?$_Wrap_alloc@V?$allocator@VErrorInfo@Reader@Json@@@std@@@std@@QAEXPAVErrorInfo@Reader@Json@@ABV234@@Z DD 019930522H
	DD	01H
	DD	FLAT:__unwindtable$??$construct@VErrorInfo@Reader@Json@@ABV123@@?$_Wrap_alloc@V?$allocator@VErrorInfo@Reader@Json@@@std@@@std@@QAEXPAVErrorInfo@Reader@Json@@ABV234@@Z
	DD	2 DUP(00H)
	DD	2 DUP(00H)
	DD	00H
	DD	01H
__unwindtable$??$construct@VErrorInfo@Reader@Json@@ABV123@@?$_Wrap_alloc@V?$allocator@VErrorInfo@Reader@Json@@@std@@@std@@QAEXPAVErrorInfo@Reader@Json@@ABV234@@Z DD 0ffffffffH
	DD	FLAT:__unwindfunclet$??$construct@VErrorInfo@Reader@Json@@ABV123@@?$_Wrap_alloc@V?$allocator@VErrorInfo@Reader@Json@@@std@@@std@@QAEXPAVErrorInfo@Reader@Json@@ABV234@@Z$2
xdata$x	ENDS
;	COMDAT xdata$x
xdata$x	SEGMENT
__ehfuncinfo$??$insert@V?$_Deque_const_iterator@V?$_Deque_val@U?$_Deque_simple_types@VErrorInfo@Reader@Json@@@std@@@std@@@std@@@?$deque@VErrorInfo@Reader@Json@@V?$allocator@VErrorInfo@Reader@Json@@@std@@@std@@QAE?AV?$_Deque_iterator@V?$_Deque_val@U?$_Deque_simple_types@VErrorInfo@Reader@Json@@@std@@@std@@@1@V?$_Deque_const_iterator@V?$_Deque_val@U?$_Deque_simple_types@VErrorInfo@Reader@Json@@@std@@@std@@@1@00@Z DD 019930522H
	DD	04H
	DD	FLAT:__unwindtable$??$insert@V?$_Deque_const_iterator@V?$_Deque_val@U?$_Deque_simple_types@VErrorInfo@Reader@Json@@@std@@@std@@@std@@@?$deque@VErrorInfo@Reader@Json@@V?$allocator@VErrorInfo@Reader@Json@@@std@@@std@@QAE?AV?$_Deque_iterator@V?$_Deque_val@U?$_Deque_simple_types@VErrorInfo@Reader@Json@@@std@@@std@@@1@V?$_Deque_const_iterator@V?$_Deque_val@U?$_Deque_simple_types@VErrorInfo@Reader@Json@@@std@@@std@@@1@00@Z
	DD	02H
	DD	FLAT:__tryblocktable$??$insert@V?$_Deque_const_iterator@V?$_Deque_val@U?$_Deque_simple_types@VErrorInfo@Reader@Json@@@std@@@std@@@std@@@?$deque@VErrorInfo@Reader@Json@@V?$allocator@VErrorInfo@Reader@Json@@@std@@@std@@QAE?AV?$_Deque_iterator@V?$_Deque_val@U?$_Deque_simple_types@VErrorInfo@Reader@Json@@@std@@@std@@@1@V?$_Deque_const_iterator@V?$_Deque_val@U?$_Deque_simple_types@VErrorInfo@Reader@Json@@@std@@@std@@@1@00@Z
	DD	2 DUP(00H)
	DD	00H
	DD	01H
__unwindtable$??$insert@V?$_Deque_const_iterator@V?$_Deque_val@U?$_Deque_simple_types@VErrorInfo@Reader@Json@@@std@@@std@@@std@@@?$deque@VErrorInfo@Reader@Json@@V?$allocator@VErrorInfo@Reader@Json@@@std@@@std@@QAE?AV?$_Deque_iterator@V?$_Deque_val@U?$_Deque_simple_types@VErrorInfo@Reader@Json@@@std@@@std@@@1@V?$_Deque_const_iterator@V?$_Deque_val@U?$_Deque_simple_types@VErrorInfo@Reader@Json@@@std@@@std@@@1@00@Z DD 0ffffffffH
	DD	00H
	DD	0ffffffffH
	DD	00H
	DD	0ffffffffH
	DD	00H
	DD	0ffffffffH
	DD	00H
__tryblocktable$??$insert@V?$_Deque_const_iterator@V?$_Deque_val@U?$_Deque_simple_types@VErrorInfo@Reader@Json@@@std@@@std@@@std@@@?$deque@VErrorInfo@Reader@Json@@V?$allocator@VErrorInfo@Reader@Json@@@std@@@std@@QAE?AV?$_Deque_iterator@V?$_Deque_val@U?$_Deque_simple_types@VErrorInfo@Reader@Json@@@std@@@std@@@1@V?$_Deque_const_iterator@V?$_Deque_val@U?$_Deque_simple_types@VErrorInfo@Reader@Json@@@std@@@std@@@1@00@Z DD 00H
	DD	00H
	DD	01H
	DD	01H
	DD	FLAT:__catchsym$??$insert@V?$_Deque_const_iterator@V?$_Deque_val@U?$_Deque_simple_types@VErrorInfo@Reader@Json@@@std@@@std@@@std@@@?$deque@VErrorInfo@Reader@Json@@V?$allocator@VErrorInfo@Reader@Json@@@std@@@std@@QAE?AV?$_Deque_iterator@V?$_Deque_val@U?$_Deque_simple_types@VErrorInfo@Reader@Json@@@std@@@std@@@1@V?$_Deque_const_iterator@V?$_Deque_val@U?$_Deque_simple_types@VErrorInfo@Reader@Json@@@std@@@std@@@1@00@Z$126
	DD	02H
	DD	02H
	DD	03H
	DD	01H
	DD	FLAT:__catchsym$??$insert@V?$_Deque_const_iterator@V?$_Deque_val@U?$_Deque_simple_types@VErrorInfo@Reader@Json@@@std@@@std@@@std@@@?$deque@VErrorInfo@Reader@Json@@V?$allocator@VErrorInfo@Reader@Json@@@std@@@std@@QAE?AV?$_Deque_iterator@V?$_Deque_val@U?$_Deque_simple_types@VErrorInfo@Reader@Json@@@std@@@std@@@1@V?$_Deque_const_iterator@V?$_Deque_val@U?$_Deque_simple_types@VErrorInfo@Reader@Json@@@std@@@std@@@1@00@Z$127
__catchsym$??$insert@V?$_Deque_const_iterator@V?$_Deque_val@U?$_Deque_simple_types@VErrorInfo@Reader@Json@@@std@@@std@@@std@@@?$deque@VErrorInfo@Reader@Json@@V?$allocator@VErrorInfo@Reader@Json@@@std@@@std@@QAE?AV?$_Deque_iterator@V?$_Deque_val@U?$_Deque_simple_types@VErrorInfo@Reader@Json@@@std@@@std@@@1@V?$_Deque_const_iterator@V?$_Deque_val@U?$_Deque_simple_types@VErrorInfo@Reader@Json@@@std@@@std@@@1@00@Z$126 DD 040H
	DD	00H
	DD	00H
	DD	FLAT:__catch$??$insert@V?$_Deque_const_iterator@V?$_Deque_val@U?$_Deque_simple_types@VErrorInfo@Reader@Json@@@std@@@std@@@std@@@?$deque@VErrorInfo@Reader@Json@@V?$allocator@VErrorInfo@Reader@Json@@@std@@@std@@QAE?AV?$_Deque_iterator@V?$_Deque_val@U?$_Deque_simple_types@VErrorInfo@Reader@Json@@@std@@@std@@@1@V?$_Deque_const_iterator@V?$_Deque_val@U?$_Deque_simple_types@VErrorInfo@Reader@Json@@@std@@@std@@@1@00@Z$0
__catchsym$??$insert@V?$_Deque_const_iterator@V?$_Deque_val@U?$_Deque_simple_types@VErrorInfo@Reader@Json@@@std@@@std@@@std@@@?$deque@VErrorInfo@Reader@Json@@V?$allocator@VErrorInfo@Reader@Json@@@std@@@std@@QAE?AV?$_Deque_iterator@V?$_Deque_val@U?$_Deque_simple_types@VErrorInfo@Reader@Json@@@std@@@std@@@1@V?$_Deque_const_iterator@V?$_Deque_val@U?$_Deque_simple_types@VErrorInfo@Reader@Json@@@std@@@std@@@1@00@Z$127 DD 040H
	DD	00H
	DD	00H
	DD	FLAT:__catch$??$insert@V?$_Deque_const_iterator@V?$_Deque_val@U?$_Deque_simple_types@VErrorInfo@Reader@Json@@@std@@@std@@@std@@@?$deque@VErrorInfo@Reader@Json@@V?$allocator@VErrorInfo@Reader@Json@@@std@@@std@@QAE?AV?$_Deque_iterator@V?$_Deque_val@U?$_Deque_simple_types@VErrorInfo@Reader@Json@@@std@@@std@@@1@V?$_Deque_const_iterator@V?$_Deque_val@U?$_Deque_simple_types@VErrorInfo@Reader@Json@@@std@@@std@@@1@00@Z$2
xdata$x	ENDS
;	COMDAT xdata$x
xdata$x	SEGMENT
__ehfuncinfo$??$_Construct@V?$_Deque_const_iterator@V?$_Deque_val@U?$_Deque_simple_types@VErrorInfo@Reader@Json@@@std@@@std@@@std@@@?$deque@VErrorInfo@Reader@Json@@V?$allocator@VErrorInfo@Reader@Json@@@std@@@std@@QAEXV?$_Deque_const_iterator@V?$_Deque_val@U?$_Deque_simple_types@VErrorInfo@Reader@Json@@@std@@@std@@@1@0@Z DD 019930522H
	DD	02H
	DD	FLAT:__unwindtable$??$_Construct@V?$_Deque_const_iterator@V?$_Deque_val@U?$_Deque_simple_types@VErrorInfo@Reader@Json@@@std@@@std@@@std@@@?$deque@VErrorInfo@Reader@Json@@V?$allocator@VErrorInfo@Reader@Json@@@std@@@std@@QAEXV?$_Deque_const_iterator@V?$_Deque_val@U?$_Deque_simple_types@VErrorInfo@Reader@Json@@@std@@@std@@@1@0@Z
	DD	01H
	DD	FLAT:__tryblocktable$??$_Construct@V?$_Deque_const_iterator@V?$_Deque_val@U?$_Deque_simple_types@VErrorInfo@Reader@Json@@@std@@@std@@@std@@@?$deque@VErrorInfo@Reader@Json@@V?$allocator@VErrorInfo@Reader@Json@@@std@@@std@@QAEXV?$_Deque_const_iterator@V?$_Deque_val@U?$_Deque_simple_types@VErrorInfo@Reader@Json@@@std@@@std@@@1@0@Z
	DD	2 DUP(00H)
	DD	00H
	DD	01H
__unwindtable$??$_Construct@V?$_Deque_const_iterator@V?$_Deque_val@U?$_Deque_simple_types@VErrorInfo@Reader@Json@@@std@@@std@@@std@@@?$deque@VErrorInfo@Reader@Json@@V?$allocator@VErrorInfo@Reader@Json@@@std@@@std@@QAEXV?$_Deque_const_iterator@V?$_Deque_val@U?$_Deque_simple_types@VErrorInfo@Reader@Json@@@std@@@std@@@1@0@Z DD 0ffffffffH
	DD	00H
	DD	0ffffffffH
	DD	00H
__tryblocktable$??$_Construct@V?$_Deque_const_iterator@V?$_Deque_val@U?$_Deque_simple_types@VErrorInfo@Reader@Json@@@std@@@std@@@std@@@?$deque@VErrorInfo@Reader@Json@@V?$allocator@VErrorInfo@Reader@Json@@@std@@@std@@QAEXV?$_Deque_const_iterator@V?$_Deque_val@U?$_Deque_simple_types@VErrorInfo@Reader@Json@@@std@@@std@@@1@0@Z DD 00H
	DD	00H
	DD	01H
	DD	01H
	DD	FLAT:__catchsym$??$_Construct@V?$_Deque_const_iterator@V?$_Deque_val@U?$_Deque_simple_types@VErrorInfo@Reader@Json@@@std@@@std@@@std@@@?$deque@VErrorInfo@Reader@Json@@V?$allocator@VErrorInfo@Reader@Json@@@std@@@std@@QAEXV?$_Deque_const_iterator@V?$_Deque_val@U?$_Deque_simple_types@VErrorInfo@Reader@Json@@@std@@@std@@@1@0@Z$2
__catchsym$??$_Construct@V?$_Deque_const_iterator@V?$_Deque_val@U?$_Deque_simple_types@VErrorInfo@Reader@Json@@@std@@@std@@@std@@@?$deque@VErrorInfo@Reader@Json@@V?$allocator@VErrorInfo@Reader@Json@@@std@@@std@@QAEXV?$_Deque_const_iterator@V?$_Deque_val@U?$_Deque_simple_types@VErrorInfo@Reader@Json@@@std@@@std@@@1@0@Z$2 DD 040H
	DD	00H
	DD	00H
	DD	FLAT:__catch$??$_Construct@V?$_Deque_const_iterator@V?$_Deque_val@U?$_Deque_simple_types@VErrorInfo@Reader@Json@@@std@@@std@@@std@@@?$deque@VErrorInfo@Reader@Json@@V?$allocator@VErrorInfo@Reader@Json@@@std@@@std@@QAEXV?$_Deque_const_iterator@V?$_Deque_val@U?$_Deque_simple_types@VErrorInfo@Reader@Json@@@std@@@std@@@1@0@Z$0
xdata$x	ENDS
;	COMDAT xdata$x
xdata$x	SEGMENT
__ehfuncinfo$??$insert@V?$_Deque_const_iterator@V?$_Deque_val@U?$_Deque_simple_types@PAVValue@Json@@@std@@@std@@@std@@@?$deque@PAVValue@Json@@V?$allocator@PAVValue@Json@@@std@@@std@@QAE?AV?$_Deque_iterator@V?$_Deque_val@U?$_Deque_simple_types@PAVValue@Json@@@std@@@std@@@1@V?$_Deque_const_iterator@V?$_Deque_val@U?$_Deque_simple_types@PAVValue@Json@@@std@@@std@@@1@00@Z DD 019930522H
	DD	04H
	DD	FLAT:__unwindtable$??$insert@V?$_Deque_const_iterator@V?$_Deque_val@U?$_Deque_simple_types@PAVValue@Json@@@std@@@std@@@std@@@?$deque@PAVValue@Json@@V?$allocator@PAVValue@Json@@@std@@@std@@QAE?AV?$_Deque_iterator@V?$_Deque_val@U?$_Deque_simple_types@PAVValue@Json@@@std@@@std@@@1@V?$_Deque_const_iterator@V?$_Deque_val@U?$_Deque_simple_types@PAVValue@Json@@@std@@@std@@@1@00@Z
	DD	02H
	DD	FLAT:__tryblocktable$??$insert@V?$_Deque_const_iterator@V?$_Deque_val@U?$_Deque_simple_types@PAVValue@Json@@@std@@@std@@@std@@@?$deque@PAVValue@Json@@V?$allocator@PAVValue@Json@@@std@@@std@@QAE?AV?$_Deque_iterator@V?$_Deque_val@U?$_Deque_simple_types@PAVValue@Json@@@std@@@std@@@1@V?$_Deque_const_iterator@V?$_Deque_val@U?$_Deque_simple_types@PAVValue@Json@@@std@@@std@@@1@00@Z
	DD	2 DUP(00H)
	DD	00H
	DD	01H
__unwindtable$??$insert@V?$_Deque_const_iterator@V?$_Deque_val@U?$_Deque_simple_types@PAVValue@Json@@@std@@@std@@@std@@@?$deque@PAVValue@Json@@V?$allocator@PAVValue@Json@@@std@@@std@@QAE?AV?$_Deque_iterator@V?$_Deque_val@U?$_Deque_simple_types@PAVValue@Json@@@std@@@std@@@1@V?$_Deque_const_iterator@V?$_Deque_val@U?$_Deque_simple_types@PAVValue@Json@@@std@@@std@@@1@00@Z DD 0ffffffffH
	DD	00H
	DD	0ffffffffH
	DD	00H
	DD	0ffffffffH
	DD	00H
	DD	0ffffffffH
	DD	00H
__tryblocktable$??$insert@V?$_Deque_const_iterator@V?$_Deque_val@U?$_Deque_simple_types@PAVValue@Json@@@std@@@std@@@std@@@?$deque@PAVValue@Json@@V?$allocator@PAVValue@Json@@@std@@@std@@QAE?AV?$_Deque_iterator@V?$_Deque_val@U?$_Deque_simple_types@PAVValue@Json@@@std@@@std@@@1@V?$_Deque_const_iterator@V?$_Deque_val@U?$_Deque_simple_types@PAVValue@Json@@@std@@@std@@@1@00@Z DD 00H
	DD	00H
	DD	01H
	DD	01H
	DD	FLAT:__catchsym$??$insert@V?$_Deque_const_iterator@V?$_Deque_val@U?$_Deque_simple_types@PAVValue@Json@@@std@@@std@@@std@@@?$deque@PAVValue@Json@@V?$allocator@PAVValue@Json@@@std@@@std@@QAE?AV?$_Deque_iterator@V?$_Deque_val@U?$_Deque_simple_types@PAVValue@Json@@@std@@@std@@@1@V?$_Deque_const_iterator@V?$_Deque_val@U?$_Deque_simple_types@PAVValue@Json@@@std@@@std@@@1@00@Z$161
	DD	02H
	DD	02H
	DD	03H
	DD	01H
	DD	FLAT:__catchsym$??$insert@V?$_Deque_const_iterator@V?$_Deque_val@U?$_Deque_simple_types@PAVValue@Json@@@std@@@std@@@std@@@?$deque@PAVValue@Json@@V?$allocator@PAVValue@Json@@@std@@@std@@QAE?AV?$_Deque_iterator@V?$_Deque_val@U?$_Deque_simple_types@PAVValue@Json@@@std@@@std@@@1@V?$_Deque_const_iterator@V?$_Deque_val@U?$_Deque_simple_types@PAVValue@Json@@@std@@@std@@@1@00@Z$162
__catchsym$??$insert@V?$_Deque_const_iterator@V?$_Deque_val@U?$_Deque_simple_types@PAVValue@Json@@@std@@@std@@@std@@@?$deque@PAVValue@Json@@V?$allocator@PAVValue@Json@@@std@@@std@@QAE?AV?$_Deque_iterator@V?$_Deque_val@U?$_Deque_simple_types@PAVValue@Json@@@std@@@std@@@1@V?$_Deque_const_iterator@V?$_Deque_val@U?$_Deque_simple_types@PAVValue@Json@@@std@@@std@@@1@00@Z$161 DD 040H
	DD	00H
	DD	00H
	DD	FLAT:__catch$??$insert@V?$_Deque_const_iterator@V?$_Deque_val@U?$_Deque_simple_types@PAVValue@Json@@@std@@@std@@@std@@@?$deque@PAVValue@Json@@V?$allocator@PAVValue@Json@@@std@@@std@@QAE?AV?$_Deque_iterator@V?$_Deque_val@U?$_Deque_simple_types@PAVValue@Json@@@std@@@std@@@1@V?$_Deque_const_iterator@V?$_Deque_val@U?$_Deque_simple_types@PAVValue@Json@@@std@@@std@@@1@00@Z$0
__catchsym$??$insert@V?$_Deque_const_iterator@V?$_Deque_val@U?$_Deque_simple_types@PAVValue@Json@@@std@@@std@@@std@@@?$deque@PAVValue@Json@@V?$allocator@PAVValue@Json@@@std@@@std@@QAE?AV?$_Deque_iterator@V?$_Deque_val@U?$_Deque_simple_types@PAVValue@Json@@@std@@@std@@@1@V?$_Deque_const_iterator@V?$_Deque_val@U?$_Deque_simple_types@PAVValue@Json@@@std@@@std@@@1@00@Z$162 DD 040H
	DD	00H
	DD	00H
	DD	FLAT:__catch$??$insert@V?$_Deque_const_iterator@V?$_Deque_val@U?$_Deque_simple_types@PAVValue@Json@@@std@@@std@@@std@@@?$deque@PAVValue@Json@@V?$allocator@PAVValue@Json@@@std@@@std@@QAE?AV?$_Deque_iterator@V?$_Deque_val@U?$_Deque_simple_types@PAVValue@Json@@@std@@@std@@@1@V?$_Deque_const_iterator@V?$_Deque_val@U?$_Deque_simple_types@PAVValue@Json@@@std@@@std@@@1@00@Z$2
xdata$x	ENDS
;	COMDAT xdata$x
xdata$x	SEGMENT
__ehfuncinfo$??$_Construct@V?$_Deque_const_iterator@V?$_Deque_val@U?$_Deque_simple_types@PAVValue@Json@@@std@@@std@@@std@@@?$deque@PAVValue@Json@@V?$allocator@PAVValue@Json@@@std@@@std@@QAEXV?$_Deque_const_iterator@V?$_Deque_val@U?$_Deque_simple_types@PAVValue@Json@@@std@@@std@@@1@0@Z DD 019930522H
	DD	02H
	DD	FLAT:__unwindtable$??$_Construct@V?$_Deque_const_iterator@V?$_Deque_val@U?$_Deque_simple_types@PAVValue@Json@@@std@@@std@@@std@@@?$deque@PAVValue@Json@@V?$allocator@PAVValue@Json@@@std@@@std@@QAEXV?$_Deque_const_iterator@V?$_Deque_val@U?$_Deque_simple_types@PAVValue@Json@@@std@@@std@@@1@0@Z
	DD	01H
	DD	FLAT:__tryblocktable$??$_Construct@V?$_Deque_const_iterator@V?$_Deque_val@U?$_Deque_simple_types@PAVValue@Json@@@std@@@std@@@std@@@?$deque@PAVValue@Json@@V?$allocator@PAVValue@Json@@@std@@@std@@QAEXV?$_Deque_const_iterator@V?$_Deque_val@U?$_Deque_simple_types@PAVValue@Json@@@std@@@std@@@1@0@Z
	DD	2 DUP(00H)
	DD	00H
	DD	01H
__unwindtable$??$_Construct@V?$_Deque_const_iterator@V?$_Deque_val@U?$_Deque_simple_types@PAVValue@Json@@@std@@@std@@@std@@@?$deque@PAVValue@Json@@V?$allocator@PAVValue@Json@@@std@@@std@@QAEXV?$_Deque_const_iterator@V?$_Deque_val@U?$_Deque_simple_types@PAVValue@Json@@@std@@@std@@@1@0@Z DD 0ffffffffH
	DD	00H
	DD	0ffffffffH
	DD	00H
__tryblocktable$??$_Construct@V?$_Deque_const_iterator@V?$_Deque_val@U?$_Deque_simple_types@PAVValue@Json@@@std@@@std@@@std@@@?$deque@PAVValue@Json@@V?$allocator@PAVValue@Json@@@std@@@std@@QAEXV?$_Deque_const_iterator@V?$_Deque_val@U?$_Deque_simple_types@PAVValue@Json@@@std@@@std@@@1@0@Z DD 00H
	DD	00H
	DD	01H
	DD	01H
	DD	FLAT:__catchsym$??$_Construct@V?$_Deque_const_iterator@V?$_Deque_val@U?$_Deque_simple_types@PAVValue@Json@@@std@@@std@@@std@@@?$deque@PAVValue@Json@@V?$allocator@PAVValue@Json@@@std@@@std@@QAEXV?$_Deque_const_iterator@V?$_Deque_val@U?$_Deque_simple_types@PAVValue@Json@@@std@@@std@@@1@0@Z$48
__catchsym$??$_Construct@V?$_Deque_const_iterator@V?$_Deque_val@U?$_Deque_simple_types@PAVValue@Json@@@std@@@std@@@std@@@?$deque@PAVValue@Json@@V?$allocator@PAVValue@Json@@@std@@@std@@QAEXV?$_Deque_const_iterator@V?$_Deque_val@U?$_Deque_simple_types@PAVValue@Json@@@std@@@std@@@1@0@Z$48 DD 040H
	DD	00H
	DD	00H
	DD	FLAT:__catch$??$_Construct@V?$_Deque_const_iterator@V?$_Deque_val@U?$_Deque_simple_types@PAVValue@Json@@@std@@@std@@@std@@@?$deque@PAVValue@Json@@V?$allocator@PAVValue@Json@@@std@@@std@@QAEXV?$_Deque_const_iterator@V?$_Deque_val@U?$_Deque_simple_types@PAVValue@Json@@@std@@@std@@@1@0@Z$0
xdata$x	ENDS
;	COMDAT xdata$x
xdata$x	SEGMENT
__ehfuncinfo$?push_front@?$deque@VErrorInfo@Reader@Json@@V?$allocator@VErrorInfo@Reader@Json@@@std@@@std@@QAEXABVErrorInfo@Reader@Json@@@Z DD 019930522H
	DD	01H
	DD	FLAT:__unwindtable$?push_front@?$deque@VErrorInfo@Reader@Json@@V?$allocator@VErrorInfo@Reader@Json@@@std@@@std@@QAEXABVErrorInfo@Reader@Json@@@Z
	DD	2 DUP(00H)
	DD	2 DUP(00H)
	DD	00H
	DD	01H
__unwindtable$?push_front@?$deque@VErrorInfo@Reader@Json@@V?$allocator@VErrorInfo@Reader@Json@@@std@@@std@@QAEXABVErrorInfo@Reader@Json@@@Z DD 0ffffffffH
	DD	FLAT:__unwindfunclet$?push_front@?$deque@VErrorInfo@Reader@Json@@V?$allocator@VErrorInfo@Reader@Json@@@std@@@std@@QAEXABVErrorInfo@Reader@Json@@@Z$41
xdata$x	ENDS
;	COMDAT xdata$x
xdata$x	SEGMENT
__ehfuncinfo$??$getline@DU?$char_traits@D@std@@V?$allocator@D@2@@std@@YAAAV?$basic_istream@DU?$char_traits@D@std@@@0@$$QAV10@AAV?$basic_string@DU?$char_traits@D@std@@V?$allocator@D@2@@0@D@Z DD 019930522H
	DD	05H
	DD	FLAT:__unwindtable$??$getline@DU?$char_traits@D@std@@V?$allocator@D@2@@std@@YAAAV?$basic_istream@DU?$char_traits@D@std@@@0@$$QAV10@AAV?$basic_string@DU?$char_traits@D@std@@V?$allocator@D@2@@0@D@Z
	DD	01H
	DD	FLAT:__tryblocktable$??$getline@DU?$char_traits@D@std@@V?$allocator@D@2@@std@@YAAAV?$basic_istream@DU?$char_traits@D@std@@@0@$$QAV10@AAV?$basic_string@DU?$char_traits@D@std@@V?$allocator@D@2@@0@D@Z
	DD	2 DUP(00H)
	DD	00H
	DD	01H
__unwindtable$??$getline@DU?$char_traits@D@std@@V?$allocator@D@2@@std@@YAAAV?$basic_istream@DU?$char_traits@D@std@@@0@$$QAV10@AAV?$basic_string@DU?$char_traits@D@std@@V?$allocator@D@2@@0@D@Z DD 0ffffffffH
	DD	FLAT:__unwindfunclet$??$getline@DU?$char_traits@D@std@@V?$allocator@D@2@@std@@YAAAV?$basic_istream@DU?$char_traits@D@std@@@0@$$QAV10@AAV?$basic_string@DU?$char_traits@D@std@@V?$allocator@D@2@@0@D@Z$3
	DD	0ffffffffH
	DD	FLAT:__unwindfunclet$??$getline@DU?$char_traits@D@std@@V?$allocator@D@2@@std@@YAAAV?$basic_istream@DU?$char_traits@D@std@@@0@$$QAV10@AAV?$basic_string@DU?$char_traits@D@std@@V?$allocator@D@2@@0@D@Z$2
	DD	01H
	DD	00H
	DD	01H
	DD	00H
	DD	0ffffffffH
	DD	FLAT:__unwindfunclet$??$getline@DU?$char_traits@D@std@@V?$allocator@D@2@@std@@YAAAV?$basic_istream@DU?$char_traits@D@std@@@0@$$QAV10@AAV?$basic_string@DU?$char_traits@D@std@@V?$allocator@D@2@@0@D@Z$26
__tryblocktable$??$getline@DU?$char_traits@D@std@@V?$allocator@D@2@@std@@YAAAV?$basic_istream@DU?$char_traits@D@std@@@0@$$QAV10@AAV?$basic_string@DU?$char_traits@D@std@@V?$allocator@D@2@@0@D@Z DD 02H
	DD	02H
	DD	03H
	DD	01H
	DD	FLAT:__catchsym$??$getline@DU?$char_traits@D@std@@V?$allocator@D@2@@std@@YAAAV?$basic_istream@DU?$char_traits@D@std@@@0@$$QAV10@AAV?$basic_string@DU?$char_traits@D@std@@V?$allocator@D@2@@0@D@Z$27
__catchsym$??$getline@DU?$char_traits@D@std@@V?$allocator@D@2@@std@@YAAAV?$basic_istream@DU?$char_traits@D@std@@@0@$$QAV10@AAV?$basic_string@DU?$char_traits@D@std@@V?$allocator@D@2@@0@D@Z$27 DD 040H
	DD	00H
	DD	00H
	DD	FLAT:__catch$??$getline@DU?$char_traits@D@std@@V?$allocator@D@2@@std@@YAAAV?$basic_istream@DU?$char_traits@D@std@@@0@$$QAV10@AAV?$basic_string@DU?$char_traits@D@std@@V?$allocator@D@2@@0@D@Z$0
xdata$x	ENDS
;	COMDAT xdata$x
xdata$x	SEGMENT
__ehfuncinfo$??$construct@VErrorInfo@Reader@Json@@ABV123@@?$allocator_traits@V?$allocator@VErrorInfo@Reader@Json@@@std@@@std@@SAXAAV?$allocator@VErrorInfo@Reader@Json@@@1@PAVErrorInfo@Reader@Json@@ABV345@@Z DD 019930522H
	DD	01H
	DD	FLAT:__unwindtable$??$construct@VErrorInfo@Reader@Json@@ABV123@@?$allocator_traits@V?$allocator@VErrorInfo@Reader@Json@@@std@@@std@@SAXAAV?$allocator@VErrorInfo@Reader@Json@@@1@PAVErrorInfo@Reader@Json@@ABV345@@Z
	DD	2 DUP(00H)
	DD	2 DUP(00H)
	DD	00H
	DD	01H
__unwindtable$??$construct@VErrorInfo@Reader@Json@@ABV123@@?$allocator_traits@V?$allocator@VErrorInfo@Reader@Json@@@std@@@std@@SAXAAV?$allocator@VErrorInfo@Reader@Json@@@1@PAVErrorInfo@Reader@Json@@ABV345@@Z DD 0ffffffffH
	DD	FLAT:__unwindfunclet$??$construct@VErrorInfo@Reader@Json@@ABV123@@?$allocator_traits@V?$allocator@VErrorInfo@Reader@Json@@@std@@@std@@SAXAAV?$allocator@VErrorInfo@Reader@Json@@@1@PAVErrorInfo@Reader@Json@@ABV345@@Z$1
xdata$x	ENDS
;	COMDAT xdata$x
xdata$x	SEGMENT
__ehfuncinfo$??$emplace_back@ABVErrorInfo@Reader@Json@@@?$deque@VErrorInfo@Reader@Json@@V?$allocator@VErrorInfo@Reader@Json@@@std@@@std@@QAEXABVErrorInfo@Reader@Json@@@Z DD 019930522H
	DD	01H
	DD	FLAT:__unwindtable$??$emplace_back@ABVErrorInfo@Reader@Json@@@?$deque@VErrorInfo@Reader@Json@@V?$allocator@VErrorInfo@Reader@Json@@@std@@@std@@QAEXABVErrorInfo@Reader@Json@@@Z
	DD	2 DUP(00H)
	DD	2 DUP(00H)
	DD	00H
	DD	01H
__unwindtable$??$emplace_back@ABVErrorInfo@Reader@Json@@@?$deque@VErrorInfo@Reader@Json@@V?$allocator@VErrorInfo@Reader@Json@@@std@@@std@@QAEXABVErrorInfo@Reader@Json@@@Z DD 0ffffffffH
	DD	FLAT:__unwindfunclet$??$emplace_back@ABVErrorInfo@Reader@Json@@@?$deque@VErrorInfo@Reader@Json@@V?$allocator@VErrorInfo@Reader@Json@@@std@@@std@@QAEXABVErrorInfo@Reader@Json@@@Z$42
xdata$x	ENDS
;	COMDAT xdata$x
xdata$x	SEGMENT
__ehfuncinfo$??1sentry@?$basic_istream@DU?$char_traits@D@std@@@std@@QAE@XZ DD 019930522H
	DD	01H
	DD	FLAT:__unwindtable$??1sentry@?$basic_istream@DU?$char_traits@D@std@@@std@@QAE@XZ
	DD	2 DUP(00H)
	DD	2 DUP(00H)
	DD	00H
	DD	05H
__unwindtable$??1sentry@?$basic_istream@DU?$char_traits@D@std@@@std@@QAE@XZ DD 0ffffffffH
	DD	FLAT:__unwindfunclet$??1sentry@?$basic_istream@DU?$char_traits@D@std@@@std@@QAE@XZ$0
xdata$x	ENDS
;	COMDAT xdata$x
xdata$x	SEGMENT
__ehfuncinfo$??0sentry@?$basic_istream@DU?$char_traits@D@std@@@std@@QAE@AAV12@_N@Z DD 019930522H
	DD	01H
	DD	FLAT:__unwindtable$??0sentry@?$basic_istream@DU?$char_traits@D@std@@@std@@QAE@AAV12@_N@Z
	DD	2 DUP(00H)
	DD	2 DUP(00H)
	DD	00H
	DD	01H
__unwindtable$??0sentry@?$basic_istream@DU?$char_traits@D@std@@@std@@QAE@AAV12@_N@Z DD 0ffffffffH
	DD	FLAT:__unwindfunclet$??0sentry@?$basic_istream@DU?$char_traits@D@std@@@std@@QAE@AAV12@_N@Z$0
xdata$x	ENDS
;	COMDAT xdata$x
xdata$x	SEGMENT
__ehfuncinfo$??1_Sentry_base@?$basic_istream@DU?$char_traits@D@std@@@std@@QAE@XZ DD 019930522H
	DD	00H
	DD	00H
	DD	2 DUP(00H)
	DD	2 DUP(00H)
	DD	00H
	DD	05H
xdata$x	ENDS
;	COMDAT xdata$x
xdata$x	SEGMENT
__ehfuncinfo$??$construct@VErrorInfo@Reader@Json@@ABV123@@?$allocator@VErrorInfo@Reader@Json@@@std@@QAEXPAVErrorInfo@Reader@Json@@ABV234@@Z DD 019930522H
	DD	01H
	DD	FLAT:__unwindtable$??$construct@VErrorInfo@Reader@Json@@ABV123@@?$allocator@VErrorInfo@Reader@Json@@@std@@QAEXPAVErrorInfo@Reader@Json@@ABV234@@Z
	DD	2 DUP(00H)
	DD	2 DUP(00H)
	DD	00H
	DD	01H
__unwindtable$??$construct@VErrorInfo@Reader@Json@@ABV123@@?$allocator@VErrorInfo@Reader@Json@@@std@@QAEXPAVErrorInfo@Reader@Json@@ABV234@@Z DD 0ffffffffH
	DD	FLAT:__unwindfunclet$??$construct@VErrorInfo@Reader@Json@@ABV123@@?$allocator@VErrorInfo@Reader@Json@@@std@@QAEXPAVErrorInfo@Reader@Json@@ABV234@@Z$0
xdata$x	ENDS
;	COMDAT xdata$x
xdata$x	SEGMENT
__ehfuncinfo$??$_Move_backward_unchecked1@V?$_Deque_unchecked_iterator@V?$_Deque_val@U?$_Deque_simple_types@VErrorInfo@Reader@Json@@@std@@@std@@@std@@V12@@std@@YA?AV?$_Deque_unchecked_iterator@V?$_Deque_val@U?$_Deque_simple_types@VErrorInfo@Reader@Json@@@std@@@std@@@0@V10@00U_General_ptr_iterator_tag@0@@Z DD 019930522H
	DD	01H
	DD	FLAT:__unwindtable$??$_Move_backward_unchecked1@V?$_Deque_unchecked_iterator@V?$_Deque_val@U?$_Deque_simple_types@VErrorInfo@Reader@Json@@@std@@@std@@@std@@V12@@std@@YA?AV?$_Deque_unchecked_iterator@V?$_Deque_val@U?$_Deque_simple_types@VErrorInfo@Reader@Json@@@std@@@std@@@0@V10@00U_General_ptr_iterator_tag@0@@Z
	DD	2 DUP(00H)
	DD	2 DUP(00H)
	DD	00H
	DD	01H
__unwindtable$??$_Move_backward_unchecked1@V?$_Deque_unchecked_iterator@V?$_Deque_val@U?$_Deque_simple_types@VErrorInfo@Reader@Json@@@std@@@std@@@std@@V12@@std@@YA?AV?$_Deque_unchecked_iterator@V?$_Deque_val@U?$_Deque_simple_types@VErrorInfo@Reader@Json@@@std@@@std@@@0@V10@00U_General_ptr_iterator_tag@0@@Z DD 0ffffffffH
	DD	FLAT:__unwindfunclet$??$_Move_backward_unchecked1@V?$_Deque_unchecked_iterator@V?$_Deque_val@U?$_Deque_simple_types@VErrorInfo@Reader@Json@@@std@@@std@@@std@@V12@@std@@YA?AV?$_Deque_unchecked_iterator@V?$_Deque_val@U?$_Deque_simple_types@VErrorInfo@Reader@Json@@@std@@@std@@@0@V10@00U_General_ptr_iterator_tag@0@@Z$2
xdata$x	ENDS
;	COMDAT xdata$x
xdata$x	SEGMENT
__ehfuncinfo$??4ErrorInfo@Reader@Json@@QAEAAV012@$$QAV012@@Z DD 019930522H
	DD	01H
	DD	FLAT:__unwindtable$??4ErrorInfo@Reader@Json@@QAEAAV012@$$QAV012@@Z
	DD	2 DUP(00H)
	DD	2 DUP(00H)
	DD	00H
	DD	05H
__unwindtable$??4ErrorInfo@Reader@Json@@QAEAAV012@$$QAV012@@Z DD 0ffffffffH
	DD	FLAT:__unwindfunclet$??4ErrorInfo@Reader@Json@@QAEAAV012@$$QAV012@@Z$0
xdata$x	ENDS
;	COMDAT xdata$x
xdata$x	SEGMENT
__ehfuncinfo$??$swap@VErrorInfo@Reader@Json@@X@std@@YAXAAVErrorInfo@Reader@Json@@0@Z DD 019930522H
	DD	02H
	DD	FLAT:__unwindtable$??$swap@VErrorInfo@Reader@Json@@X@std@@YAXAAVErrorInfo@Reader@Json@@0@Z
	DD	2 DUP(00H)
	DD	2 DUP(00H)
	DD	00H
	DD	05H
__unwindtable$??$swap@VErrorInfo@Reader@Json@@X@std@@YAXAAVErrorInfo@Reader@Json@@0@Z DD 0ffffffffH
	DD	FLAT:__unwindfunclet$??$swap@VErrorInfo@Reader@Json@@X@std@@YAXAAVErrorInfo@Reader@Json@@0@Z$4
	DD	0ffffffffH
	DD	FLAT:__unwindfunclet$??$swap@VErrorInfo@Reader@Json@@X@std@@YAXAAVErrorInfo@Reader@Json@@0@Z$62
xdata$x	ENDS
;	COMDAT xdata$x
xdata$x	SEGMENT
__ehfuncinfo$??$_Move_unchecked1@V?$_Deque_unchecked_iterator@V?$_Deque_val@U?$_Deque_simple_types@VErrorInfo@Reader@Json@@@std@@@std@@@std@@V12@@std@@YA?AV?$_Deque_unchecked_iterator@V?$_Deque_val@U?$_Deque_simple_types@VErrorInfo@Reader@Json@@@std@@@std@@@0@V10@00U_General_ptr_iterator_tag@0@@Z DD 019930522H
	DD	01H
	DD	FLAT:__unwindtable$??$_Move_unchecked1@V?$_Deque_unchecked_iterator@V?$_Deque_val@U?$_Deque_simple_types@VErrorInfo@Reader@Json@@@std@@@std@@@std@@V12@@std@@YA?AV?$_Deque_unchecked_iterator@V?$_Deque_val@U?$_Deque_simple_types@VErrorInfo@Reader@Json@@@std@@@std@@@0@V10@00U_General_ptr_iterator_tag@0@@Z
	DD	2 DUP(00H)
	DD	2 DUP(00H)
	DD	00H
	DD	01H
__unwindtable$??$_Move_unchecked1@V?$_Deque_unchecked_iterator@V?$_Deque_val@U?$_Deque_simple_types@VErrorInfo@Reader@Json@@@std@@@std@@@std@@V12@@std@@YA?AV?$_Deque_unchecked_iterator@V?$_Deque_val@U?$_Deque_simple_types@VErrorInfo@Reader@Json@@@std@@@std@@@0@V10@00U_General_ptr_iterator_tag@0@@Z DD 0ffffffffH
	DD	FLAT:__unwindfunclet$??$_Move_unchecked1@V?$_Deque_unchecked_iterator@V?$_Deque_val@U?$_Deque_simple_types@VErrorInfo@Reader@Json@@@std@@@std@@@std@@V12@@std@@YA?AV?$_Deque_unchecked_iterator@V?$_Deque_val@U?$_Deque_simple_types@VErrorInfo@Reader@Json@@@std@@@std@@@0@V10@00U_General_ptr_iterator_tag@0@@Z$2
xdata$x	ENDS
; Function compile flags: /Ogtp
;	COMDAT ??4Features@Json@@QAEAAV01@ABV01@@Z
_TEXT	SEGMENT
___that$ = 8						; size = 4
??4Features@Json@@QAEAAV01@ABV01@@Z PROC		; Json::Features::operator=, COMDAT
; _this$ = ecx
	push	ebp
	mov	ebp, esp
	mov	eax, DWORD PTR ___that$[ebp]
	mov	ax, WORD PTR [eax]
	mov	WORD PTR [ecx], ax
	mov	eax, ecx
	pop	ebp
	ret	4
??4Features@Json@@QAEAAV01@ABV01@@Z ENDP		; Json::Features::operator=
_TEXT	ENDS
; Function compile flags: /Ogtp
;	COMDAT ??4Features@Json@@QAEAAV01@$$QAV01@@Z
_TEXT	SEGMENT
___that$ = 8						; size = 4
??4Features@Json@@QAEAAV01@$$QAV01@@Z PROC		; Json::Features::operator=, COMDAT
; _this$ = ecx
	push	ebp
	mov	ebp, esp
	mov	edx, DWORD PTR ___that$[ebp]
	movzx	eax, BYTE PTR [edx]
	mov	BYTE PTR [ecx], al
	movzx	eax, BYTE PTR [edx+1]
	mov	BYTE PTR [ecx+1], al
	mov	eax, ecx
	pop	ebp
	ret	4
??4Features@Json@@QAEAAV01@$$QAV01@@Z ENDP		; Json::Features::operator=
_TEXT	ENDS
; Function compile flags: /Ogtp
; File c:\program files (x86)\windows kits\10\include\10.0.10240.0\ucrt\corecrt_stdio_config.h
;	COMDAT ___local_stdio_printf_options
_TEXT	SEGMENT
___local_stdio_printf_options PROC			; COMDAT

; 74   :     static unsigned __int64 _OptionsStorage;
; 75   :     return &_OptionsStorage;

	mov	eax, OFFSET ?_OptionsStorage@?1??__local_stdio_printf_options@@9@4_KA ; `__local_stdio_printf_options'::`2'::_OptionsStorage

; 76   : }

	ret	0
___local_stdio_printf_options ENDP
_TEXT	ENDS
; Function compile flags: /Ogtp
; File c:\program files (x86)\windows kits\10\include\10.0.10240.0\ucrt\corecrt_stdio_config.h
;	COMDAT ___local_stdio_scanf_options
_TEXT	SEGMENT
___local_stdio_scanf_options PROC			; COMDAT

; 83   :     static unsigned __int64 _OptionsStorage;
; 84   :     return &_OptionsStorage;

	mov	eax, OFFSET ?_OptionsStorage@?1??__local_stdio_scanf_options@@9@4_KA ; `__local_stdio_scanf_options'::`2'::_OptionsStorage

; 85   : }

	ret	0
___local_stdio_scanf_options ENDP
_TEXT	ENDS
; Function compile flags: /Ogtp
; File c:\program files (x86)\windows kits\10\include\10.0.10240.0\ucrt\stdio.h
;	COMDAT __vsnprintf_l
_TEXT	SEGMENT
__Format$ = 8						; size = 4
__Locale$dead$ = 12					; size = 4
__ArgList$ = 16						; size = 4
__vsnprintf_l PROC					; COMDAT
; __Buffer$ = ecx
; __BufferCount$dead$ = edx

; 1385 : {

	push	ebp
	mov	ebp, esp

; 1386 :     int const _Result = __stdio_common_vsprintf(

	push	DWORD PTR __ArgList$[ebp]
	push	0
	push	DWORD PTR __Format$[ebp]
	push	-1
	push	ecx
	call	___local_stdio_printf_options
	mov	ecx, DWORD PTR [eax]
	push	DWORD PTR [eax+4]
	or	ecx, 1
	push	ecx
	call	DWORD PTR __imp____stdio_common_vsprintf

; 1387 :         _CRT_INTERNAL_LOCAL_PRINTF_OPTIONS | _CRT_INTERNAL_PRINTF_LEGACY_VSPRINTF_NULL_TERMINATION,
; 1388 :         _Buffer, _BufferCount, _Format, _Locale, _ArgList);
; 1389 : 
; 1390 :     return _Result < 0 ? -1 : _Result;

	or	ecx, -1
	add	esp, 28					; 0000001cH
	test	eax, eax
	cmovs	eax, ecx

; 1391 : }

	pop	ebp
	ret	0
__vsnprintf_l ENDP
_TEXT	ENDS
; Function compile flags: /Ogtp
; File c:\program files (x86)\windows kits\10\include\10.0.10240.0\ucrt\stdio.h
;	COMDAT __vsprintf_l
_TEXT	SEGMENT
__Locale$dead$ = 8					; size = 4
__ArgList$ = 12						; size = 4
__vsprintf_l PROC					; COMDAT
; __Buffer$ = ecx
; __Format$ = edx

; 1455 : {

	push	ebp
	mov	ebp, esp

; 1386 :     int const _Result = __stdio_common_vsprintf(

	push	DWORD PTR __ArgList$[ebp]
	push	0
	push	edx
	push	-1
	push	ecx
	call	___local_stdio_printf_options
	mov	ecx, DWORD PTR [eax]
	push	DWORD PTR [eax+4]
	or	ecx, 1
	push	ecx
	call	DWORD PTR __imp____stdio_common_vsprintf

; 1387 :         _CRT_INTERNAL_LOCAL_PRINTF_OPTIONS | _CRT_INTERNAL_PRINTF_LEGACY_VSPRINTF_NULL_TERMINATION,
; 1388 :         _Buffer, _BufferCount, _Format, _Locale, _ArgList);
; 1389 : 
; 1390 :     return _Result < 0 ? -1 : _Result;

	or	ecx, -1
	add	esp, 28					; 0000001cH
	test	eax, eax
	cmovs	eax, ecx

; 1456 :     #pragma warning(push)
; 1457 :     #pragma warning(disable: 4996) // Deprecation
; 1458 :     return _vsnprintf_l(_Buffer, (size_t)-1, _Format, _Locale, _ArgList);
; 1459 :     #pragma warning(pop)
; 1460 : }

	pop	ebp
	ret	0
__vsprintf_l ENDP
_TEXT	ENDS
; Function compile flags: /Ogtp
; File c:\program files (x86)\windows kits\10\include\10.0.10240.0\ucrt\stdio.h
;	COMDAT _sprintf
_TEXT	SEGMENT
__Buffer$ = 8						; size = 4
__Format$ = 12						; size = 4
_sprintf PROC						; COMDAT

; 1776 : {

	push	ebp
	mov	ebp, esp

; 1386 :     int const _Result = __stdio_common_vsprintf(

	lea	eax, DWORD PTR __Format$[ebp+4]
	push	eax
	push	0
	push	DWORD PTR __Format$[ebp]
	push	-1
	push	DWORD PTR __Buffer$[ebp]
	call	___local_stdio_printf_options
	mov	ecx, DWORD PTR [eax]
	push	DWORD PTR [eax+4]
	or	ecx, 1
	push	ecx
	call	DWORD PTR __imp____stdio_common_vsprintf

; 1387 :         _CRT_INTERNAL_LOCAL_PRINTF_OPTIONS | _CRT_INTERNAL_PRINTF_LEGACY_VSPRINTF_NULL_TERMINATION,
; 1388 :         _Buffer, _BufferCount, _Format, _Locale, _ArgList);
; 1389 : 
; 1390 :     return _Result < 0 ? -1 : _Result;

	or	ecx, -1
	add	esp, 28					; 0000001cH
	test	eax, eax
	cmovs	eax, ecx

; 1777 :     int _Result;
; 1778 :     va_list _ArgList;
; 1779 :     __crt_va_start(_ArgList, _Format);
; 1780 : 
; 1781 :     #pragma warning(push)
; 1782 :     #pragma warning(disable: 4996) // Deprecation
; 1783 :     _Result = _vsprintf_l(_Buffer, _Format, NULL, _ArgList);
; 1784 :     #pragma warning(pop)
; 1785 : 
; 1786 :     __crt_va_end(_ArgList);
; 1787 :     return _Result;
; 1788 : }

	pop	ebp
	ret	0
_sprintf ENDP
_TEXT	ENDS
; Function compile flags: /Ogtp
; File c:\program files (x86)\windows kits\10\include\10.0.10240.0\ucrt\stdio.h
;	COMDAT __vsscanf_l
_TEXT	SEGMENT
__Locale$dead$ = 8					; size = 4
__ArgList$ = 12						; size = 4
__vsscanf_l PROC					; COMDAT
; __Buffer$ = ecx
; __Format$ = edx

; 2166 : {

	push	ebp
	mov	ebp, esp

; 2167 :     return __stdio_common_vsscanf(

	push	DWORD PTR __ArgList$[ebp]
	push	0
	push	edx
	push	-1
	push	ecx
	call	___local_stdio_scanf_options
	push	DWORD PTR [eax+4]
	push	DWORD PTR [eax]
	call	DWORD PTR __imp____stdio_common_vsscanf
	add	esp, 28					; 0000001cH

; 2168 :         _CRT_INTERNAL_LOCAL_SCANF_OPTIONS,
; 2169 :         _Buffer, (size_t)-1, _Format, _Locale, _ArgList);
; 2170 : }

	pop	ebp
	ret	0
__vsscanf_l ENDP
_TEXT	ENDS
; Function compile flags: /Ogtp
; File c:\program files (x86)\windows kits\10\include\10.0.10240.0\ucrt\stdio.h
;	COMDAT _sscanf
_TEXT	SEGMENT
__Buffer$ = 8						; size = 4
__Format$ = 12						; size = 4
_sscanf	PROC						; COMDAT

; 2261 : {

	push	ebp
	mov	ebp, esp

; 2167 :     return __stdio_common_vsscanf(

	lea	eax, DWORD PTR __Format$[ebp+4]
	push	eax
	push	0
	push	DWORD PTR __Format$[ebp]
	push	-1
	push	DWORD PTR __Buffer$[ebp]
	call	___local_stdio_scanf_options
	push	DWORD PTR [eax+4]
	push	DWORD PTR [eax]
	call	DWORD PTR __imp____stdio_common_vsscanf
	add	esp, 28					; 0000001cH

; 2262 :     int _Result;
; 2263 :     va_list _ArgList;
; 2264 :     __crt_va_start(_ArgList, _Format);
; 2265 :     _Result = _vsscanf_l(_Buffer, _Format, NULL, _ArgList);
; 2266 :     __crt_va_end(_ArgList);
; 2267 :     return _Result;
; 2268 : }

	pop	ebp
	ret	0
_sscanf	ENDP
_TEXT	ENDS
; Function compile flags: /Ogtp
; File c:\program files (x86)\microsoft visual studio 14.0\vc\include\vcruntime_exception.h
;	COMDAT ??0exception@std@@QAE@QBD@Z
_TEXT	SEGMENT
__InitData$ = -8					; size = 8
__Message$ = 8						; size = 4
??0exception@std@@QAE@QBD@Z PROC			; std::exception::exception, COMDAT
; _this$ = ecx

; 53   :     {

	push	ebp
	mov	ebp, esp
	sub	esp, 8

; 54   :         __std_exception_data _InitData = { _Message, true };

	mov	eax, DWORD PTR __Message$[ebp]
	xorps	xmm0, xmm0
	push	esi
	mov	esi, ecx
	mov	DWORD PTR __InitData$[ebp], eax
	lea	edx, DWORD PTR [esi+4]
	mov	BYTE PTR __InitData$[ebp+4], 1

; 55   :         __std_exception_copy(&_InitData, &_Data);

	push	edx
	lea	eax, DWORD PTR __InitData$[ebp]
	mov	DWORD PTR [esi], OFFSET ??_7exception@std@@6B@
	push	eax
	movq	QWORD PTR [edx], xmm0
	call	DWORD PTR __imp____std_exception_copy
	add	esp, 8

; 56   :     }

	mov	eax, esi
	pop	esi
	mov	esp, ebp
	pop	ebp
	ret	4
??0exception@std@@QAE@QBD@Z ENDP			; std::exception::exception
_TEXT	ENDS
; Function compile flags: /Ogtp
; File c:\program files (x86)\microsoft visual studio 14.0\vc\include\vcruntime_exception.h
;	COMDAT ??0exception@std@@QAE@ABV01@@Z
_TEXT	SEGMENT
__Other$ = 8						; size = 4
??0exception@std@@QAE@ABV01@@Z PROC			; std::exception::exception, COMDAT
; _this$ = ecx

; 66   :     {

	push	ebp
	mov	ebp, esp
	push	esi
	mov	esi, ecx
	xorps	xmm0, xmm0
	lea	eax, DWORD PTR [esi+4]

; 67   :         __std_exception_copy(&_Other._Data, &_Data);

	push	eax
	mov	DWORD PTR [esi], OFFSET ??_7exception@std@@6B@
	movq	QWORD PTR [eax], xmm0
	mov	eax, DWORD PTR __Other$[ebp]
	add	eax, 4
	push	eax
	call	DWORD PTR __imp____std_exception_copy
	add	esp, 8

; 68   :     }

	mov	eax, esi
	pop	esi
	pop	ebp
	ret	4
??0exception@std@@QAE@ABV01@@Z ENDP			; std::exception::exception
_TEXT	ENDS
; Function compile flags: /Ogtp
; File c:\program files (x86)\microsoft visual studio 14.0\vc\include\vcruntime_exception.h
;	COMDAT ??1exception@std@@UAE@XZ
_TEXT	SEGMENT
??1exception@std@@UAE@XZ PROC				; std::exception::~exception, COMDAT
; _this$ = ecx

; 84   :         __std_exception_destroy(&_Data);

	lea	eax, DWORD PTR [ecx+4]
	mov	DWORD PTR [ecx], OFFSET ??_7exception@std@@6B@
	push	eax
	call	DWORD PTR __imp____std_exception_destroy
	pop	ecx

; 85   :     }

	ret	0
??1exception@std@@UAE@XZ ENDP				; std::exception::~exception
_TEXT	ENDS
; Function compile flags: /Ogtp
; File c:\program files (x86)\microsoft visual studio 14.0\vc\include\vcruntime_exception.h
;	COMDAT ?what@exception@std@@UBEPBDXZ
_TEXT	SEGMENT
?what@exception@std@@UBEPBDXZ PROC			; std::exception::what, COMDAT
; _this$ = ecx

; 89   :         return _Data._What ? _Data._What : "Unknown exception";

	mov	ecx, DWORD PTR [ecx+4]
	mov	eax, OFFSET ??_C@_0BC@EOODALEL@Unknown?5exception?$AA@
	test	ecx, ecx
	cmovne	eax, ecx

; 90   :     }

	ret	0
?what@exception@std@@UBEPBDXZ ENDP			; std::exception::what
_TEXT	ENDS
; Function compile flags: /Ogtp
; File c:\program files (x86)\microsoft visual studio 14.0\vc\include\vcruntime_exception.h
;	COMDAT ??_Gexception@std@@UAEPAXI@Z
_TEXT	SEGMENT
___flags$ = 8						; size = 4
??_Gexception@std@@UAEPAXI@Z PROC			; std::exception::`scalar deleting destructor', COMDAT
; _this$ = ecx
	push	ebp
	mov	ebp, esp
	push	esi
	mov	esi, ecx

; 84   :         __std_exception_destroy(&_Data);

	lea	eax, DWORD PTR [esi+4]
	mov	DWORD PTR [esi], OFFSET ??_7exception@std@@6B@
	push	eax
	call	DWORD PTR __imp____std_exception_destroy
	add	esp, 4
	test	BYTE PTR ___flags$[ebp], 1
	je	SHORT $LN6@scalar
	push	12					; 0000000cH
	push	esi
	call	??3@YAXPAXI@Z				; operator delete
	add	esp, 8
$LN6@scalar:
	mov	eax, esi
	pop	esi
	pop	ebp
	ret	4
??_Gexception@std@@UAEPAXI@Z ENDP			; std::exception::`scalar deleting destructor'
_TEXT	ENDS
; Function compile flags: /Ogtp
; File c:\program files (x86)\microsoft visual studio 14.0\vc\include\vcruntime_new.h
;	COMDAT ??2@YAPAXIPAX@Z
_TEXT	SEGMENT
??2@YAPAXIPAX@Z PROC					; operator new, COMDAT
; __Size$dead$ = ecx
; __Where$ = edx

; 88   :         (void)_Size;
; 89   :         return _Where;

	mov	eax, edx

; 90   :     }

	ret	0
??2@YAPAXIPAX@Z ENDP					; operator new
_TEXT	ENDS
; Function compile flags: /Ogtp
; File c:\program files (x86)\microsoft visual studio 14.0\vc\include\vcruntime_new.h
;	COMDAT ??3@YAXPAX0@Z
_TEXT	SEGMENT
??3@YAXPAX0@Z PROC					; operator delete, COMDAT
; ___formal$dead$ = ecx
; ___formal$dead$ = edx

; 94   :         return;
; 95   :     }

	ret	0
??3@YAXPAX0@Z ENDP					; operator delete
_TEXT	ENDS
; Function compile flags: /Ogtp
; File c:\program files (x86)\microsoft visual studio 14.0\vc\include\iosfwd
;	COMDAT ?length@?$char_traits@D@std@@SAIPBD@Z
_TEXT	SEGMENT
?length@?$char_traits@D@std@@SAIPBD@Z PROC		; std::char_traits<char>::length, COMDAT
; __First$ = ecx

; 523  : 		return (*_First == 0 ? 0

	cmp	BYTE PTR [ecx], 0
	jne	SHORT $LN3@length
	xor	eax, eax

; 524  : 			: _CSTD strlen(_First));
; 525  : 		}

	ret	0
$LN3@length:

; 523  : 		return (*_First == 0 ? 0

	lea	edx, DWORD PTR [ecx+1]
	npad	5
$LL5@length:
	mov	al, BYTE PTR [ecx]
	inc	ecx
	test	al, al
	jne	SHORT $LL5@length
	sub	ecx, edx
	mov	eax, ecx

; 524  : 			: _CSTD strlen(_First));
; 525  : 		}

	ret	0
?length@?$char_traits@D@std@@SAIPBD@Z ENDP		; std::char_traits<char>::length
_TEXT	ENDS
; Function compile flags: /Ogtp
; File c:\program files (x86)\microsoft visual studio 14.0\vc\include\iosfwd
;	COMDAT ?copy@?$char_traits@D@std@@SAPADPADPBDI@Z
_TEXT	SEGMENT
__Count$ = 8						; size = 4
?copy@?$char_traits@D@std@@SAPADPADPBDI@Z PROC		; std::char_traits<char>::copy, COMDAT
; __First1$ = ecx
; __First2$ = edx

; 529  : 		{	// copy [_First2, _First2 + _Count) to [_First1, ...)

	push	ebp
	mov	ebp, esp

; 530  : 		return (_Count == 0 ? _First1

	mov	eax, DWORD PTR __Count$[ebp]
	test	eax, eax
	jne	SHORT $LN3@copy
	mov	eax, ecx

; 531  : 			: (_Elem *)_CSTD memcpy(_First1, _First2, _Count));
; 532  : 		}

	pop	ebp
	ret	0
$LN3@copy:

; 530  : 		return (_Count == 0 ? _First1

	push	eax
	push	edx
	push	ecx
	call	_memcpy
	add	esp, 12					; 0000000cH

; 531  : 			: (_Elem *)_CSTD memcpy(_First1, _First2, _Count));
; 532  : 		}

	pop	ebp
	ret	0
?copy@?$char_traits@D@std@@SAPADPADPBDI@Z ENDP		; std::char_traits<char>::copy
_TEXT	ENDS
; Function compile flags: /Ogtp
; File c:\program files (x86)\microsoft visual studio 14.0\vc\include\iosfwd
;	COMDAT ?move@?$char_traits@D@std@@SAPADPADPBDI@Z
_TEXT	SEGMENT
__Count$ = 8						; size = 4
?move@?$char_traits@D@std@@SAPADPADPBDI@Z PROC		; std::char_traits<char>::move, COMDAT
; __First1$ = ecx
; __First2$ = edx

; 552  : 		{	// copy [_First2, _First2 + _Count) to [_First1, ...)

	push	ebp
	mov	ebp, esp

; 553  : 		return (_Count == 0 ? _First1

	mov	eax, DWORD PTR __Count$[ebp]
	test	eax, eax
	jne	SHORT $LN3@move
	mov	eax, ecx

; 554  : 			: (_Elem *)_CSTD memmove(_First1, _First2, _Count));
; 555  : 		}

	pop	ebp
	ret	0
$LN3@move:

; 553  : 		return (_Count == 0 ? _First1

	push	eax
	push	edx
	push	ecx
	call	DWORD PTR __imp__memmove
	add	esp, 12					; 0000000cH

; 554  : 			: (_Elem *)_CSTD memmove(_First1, _First2, _Count));
; 555  : 		}

	pop	ebp
	ret	0
?move@?$char_traits@D@std@@SAPADPADPBDI@Z ENDP		; std::char_traits<char>::move
_TEXT	ENDS
; Function compile flags: /Ogtp
; File c:\program files (x86)\microsoft visual studio 14.0\vc\include\iosfwd
;	COMDAT ?assign@?$char_traits@D@std@@SAPADPADID@Z
_TEXT	SEGMENT
__Ch$ = 8						; size = 1
?assign@?$char_traits@D@std@@SAPADPADID@Z PROC		; std::char_traits<char>::assign, COMDAT
; __First$ = ecx
; __Count$ = edx

; 559  : 		{	// assign _Count * _Ch to [_First, ...)

	push	ebp
	mov	ebp, esp

; 560  : 		return ((_Elem *)_CSTD memset(_First, _Ch, _Count));

	movsx	eax, BYTE PTR __Ch$[ebp]
	push	edx
	push	eax
	push	ecx
	call	_memset
	add	esp, 12					; 0000000cH

; 561  : 		}

	pop	ebp
	ret	0
?assign@?$char_traits@D@std@@SAPADPADID@Z ENDP		; std::char_traits<char>::assign
_TEXT	ENDS
; Function compile flags: /Ogtp
; File c:\program files (x86)\microsoft visual studio 14.0\vc\include\iosfwd
;	COMDAT ?assign@?$char_traits@D@std@@SAXAADABD@Z
_TEXT	SEGMENT
?assign@?$char_traits@D@std@@SAXAADABD@Z PROC		; std::char_traits<char>::assign, COMDAT
; __Left$ = ecx
; __Right$ = edx

; 565  : 		_Left = _Right;

	mov	al, BYTE PTR [edx]
	mov	BYTE PTR [ecx], al

; 566  : 		}

	ret	0
?assign@?$char_traits@D@std@@SAXAADABD@Z ENDP		; std::char_traits<char>::assign
_TEXT	ENDS
; Function compile flags: /Ogtp
; File c:\program files (x86)\microsoft visual studio 14.0\vc\include\iosfwd
;	COMDAT ?to_char_type@?$char_traits@D@std@@SADABH@Z
_TEXT	SEGMENT
?to_char_type@?$char_traits@D@std@@SADABH@Z PROC	; std::char_traits<char>::to_char_type, COMDAT
; __Meta$ = ecx

; 583  : 		return ((_Elem)_Meta);

	mov	al, BYTE PTR [ecx]

; 584  : 		}

	ret	0
?to_char_type@?$char_traits@D@std@@SADABH@Z ENDP	; std::char_traits<char>::to_char_type
_TEXT	ENDS
; Function compile flags: /Ogtp
; File c:\program files (x86)\microsoft visual studio 14.0\vc\include\iosfwd
;	COMDAT ?to_int_type@?$char_traits@D@std@@SAHABD@Z
_TEXT	SEGMENT
?to_int_type@?$char_traits@D@std@@SAHABD@Z PROC		; std::char_traits<char>::to_int_type, COMDAT
; __Ch$ = ecx

; 589  : 		return ((unsigned char)_Ch);

	movzx	eax, BYTE PTR [ecx]

; 590  : 		}

	ret	0
?to_int_type@?$char_traits@D@std@@SAHABD@Z ENDP		; std::char_traits<char>::to_int_type
_TEXT	ENDS
; Function compile flags: /Ogtp
; File c:\program files (x86)\microsoft visual studio 14.0\vc\include\iosfwd
;	COMDAT ?eq_int_type@?$char_traits@D@std@@SA_NABH0@Z
_TEXT	SEGMENT
?eq_int_type@?$char_traits@D@std@@SA_NABH0@Z PROC	; std::char_traits<char>::eq_int_type, COMDAT
; __Left$ = ecx
; __Right$ = edx

; 594  : 		{	// test for metacharacter equality

	mov	eax, DWORD PTR [ecx]
	cmp	eax, DWORD PTR [edx]
	sete	al

; 595  : 		return (_Left == _Right);
; 596  : 		}

	ret	0
?eq_int_type@?$char_traits@D@std@@SA_NABH0@Z ENDP	; std::char_traits<char>::eq_int_type
_TEXT	ENDS
; Function compile flags: /Ogtp
; File c:\program files (x86)\microsoft visual studio 14.0\vc\include\iosfwd
;	COMDAT ?eof@?$char_traits@D@std@@SAHXZ
_TEXT	SEGMENT
?eof@?$char_traits@D@std@@SAHXZ PROC			; std::char_traits<char>::eof, COMDAT

; 606  : 		return (EOF);

	or	eax, -1

; 607  : 		}

	ret	0
?eof@?$char_traits@D@std@@SAHXZ ENDP			; std::char_traits<char>::eof
_TEXT	ENDS
; Function compile flags: /Ogtp
; File c:\program files (x86)\microsoft visual studio 14.0\vc\include\xutility
;	COMDAT ?_Adopt@_Iterator_base0@std@@QAEXPBX@Z
_TEXT	SEGMENT
___formal$dead$ = 8					; size = 4
?_Adopt@_Iterator_base0@std@@QAEXPBX@Z PROC		; std::_Iterator_base0::_Adopt, COMDAT
; _this$dead$ = ecx

; 55   : 		}

	ret	4
?_Adopt@_Iterator_base0@std@@QAEXPBX@Z ENDP		; std::_Iterator_base0::_Adopt
_TEXT	ENDS
; Function compile flags: /Ogtp
; File c:\program files (x86)\microsoft visual studio 14.0\vc\include\xutility
;	COMDAT ??0_Container_proxy@std@@QAE@XZ
_TEXT	SEGMENT
??0_Container_proxy@std@@QAE@XZ PROC			; std::_Container_proxy::_Container_proxy, COMDAT
; _this$ = ecx

; 67   : 		: _Mycont(0), _Myfirstiter(0)

	mov	DWORD PTR [ecx], 0

; 69   : 		}

	mov	eax, ecx
	mov	DWORD PTR [ecx+4], 0
	ret	0
??0_Container_proxy@std@@QAE@XZ ENDP			; std::_Container_proxy::_Container_proxy
_TEXT	ENDS
; Function compile flags: /Ogtp
; File c:\program files (x86)\microsoft visual studio 14.0\vc\include\xutility
;	COMDAT ??0_Container_base12@std@@QAE@XZ
_TEXT	SEGMENT
??0_Container_base12@std@@QAE@XZ PROC			; std::_Container_base12::_Container_base12, COMDAT
; _this$ = ecx

; 79   : 		: _Myproxy(0)

	mov	DWORD PTR [ecx], 0

; 81   : 		}

	mov	eax, ecx
	ret	0
??0_Container_base12@std@@QAE@XZ ENDP			; std::_Container_base12::_Container_base12
_TEXT	ENDS
; Function compile flags: /Ogtp
; File c:\program files (x86)\microsoft visual studio 14.0\vc\include\xutility
;	COMDAT ??1_Container_base12@std@@QAE@XZ
_TEXT	SEGMENT
??1_Container_base12@std@@QAE@XZ PROC			; std::_Container_base12::~_Container_base12, COMDAT
; _this$dead$ = ecx

; 95   : 		_Orphan_all();
; 96   : 		}

	ret	0
??1_Container_base12@std@@QAE@XZ ENDP			; std::_Container_base12::~_Container_base12
_TEXT	ENDS
; Function compile flags: /Ogtp
; File c:\program files (x86)\microsoft visual studio 14.0\vc\include\xutility
;	COMDAT ??0_Iterator_base12@std@@QAE@XZ
_TEXT	SEGMENT
??0_Iterator_base12@std@@QAE@XZ PROC			; std::_Iterator_base12::_Iterator_base12, COMDAT
; _this$ = ecx

; 113  : 		: _Myproxy(0), _Mynextiter(0)

	mov	DWORD PTR [ecx], 0

; 115  : 		}

	mov	eax, ecx
	mov	DWORD PTR [ecx+4], 0
	ret	0
??0_Iterator_base12@std@@QAE@XZ ENDP			; std::_Iterator_base12::_Iterator_base12
_TEXT	ENDS
; Function compile flags: /Ogtp
; File c:\program files (x86)\microsoft visual studio 14.0\vc\include\xutility
;	COMDAT ??0_Iterator_base12@std@@QAE@ABU01@@Z
_TEXT	SEGMENT
__Right$ = 8						; size = 4
??0_Iterator_base12@std@@QAE@ABU01@@Z PROC		; std::_Iterator_base12::_Iterator_base12, COMDAT
; _this$ = ecx

; 119  : 		{	// copy an iterator

	push	ebp
	mov	ebp, esp

; 125  : 		if (_Myproxy == _Right._Myproxy)

	mov	eax, DWORD PTR __Right$[ebp]

; 118  : 		: _Myproxy(0), _Mynextiter(0)

	mov	DWORD PTR [ecx], 0
	mov	DWORD PTR [ecx+4], 0

; 125  : 		if (_Myproxy == _Right._Myproxy)

	mov	eax, DWORD PTR [eax]
	test	eax, eax
	je	SHORT $LN15@Iterator_b

; 126  : 			;
; 127  : 		else if (_Right._Myproxy != 0)
; 128  : 			_Adopt(_Right._Myproxy->_Mycont);

	mov	eax, DWORD PTR [eax]

; 150  : 		if (_Parent == 0)

	test	eax, eax
	je	SHORT $LN15@Iterator_b

; 151  : 			{	// no future parent, just disown current parent
; 152  :  #if _ITERATOR_DEBUG_LEVEL == 2
; 153  : 			_Lockit _Lock(_LOCK_DEBUG);
; 154  : 			_Orphan_me();
; 155  :  #endif /* _ITERATOR_DEBUG_LEVEL == 2 */
; 156  : 			}
; 157  : 		else
; 158  : 			{	// have a parent, do adoption
; 159  : 			_Container_proxy *_Parent_proxy = _Parent->_Myproxy;
; 160  : 
; 161  :  #if _ITERATOR_DEBUG_LEVEL == 2
; 162  : 			if (_Myproxy != _Parent_proxy)
; 163  : 				{	// change parentage
; 164  : 				_Lockit _Lock(_LOCK_DEBUG);
; 165  : 				_Orphan_me();
; 166  : 				_Mynextiter = _Parent_proxy->_Myfirstiter;
; 167  : 				_Parent_proxy->_Myfirstiter = this;
; 168  : 				_Myproxy = _Parent_proxy;
; 169  : 				}
; 170  : 
; 171  :  #else /* _ITERATOR_DEBUG_LEVEL == 2 */
; 172  : 			_Myproxy = _Parent_proxy;

	mov	eax, DWORD PTR [eax]
	mov	DWORD PTR [ecx], eax
$LN15@Iterator_b:

; 120  : 		*this = _Right;
; 121  : 		}

	mov	eax, ecx
	pop	ebp
	ret	4
??0_Iterator_base12@std@@QAE@ABU01@@Z ENDP		; std::_Iterator_base12::_Iterator_base12
_TEXT	ENDS
; Function compile flags: /Ogtp
; File c:\program files (x86)\microsoft visual studio 14.0\vc\include\xutility
;	COMDAT ??4_Iterator_base12@std@@QAEAAU01@ABU01@@Z
_TEXT	SEGMENT
__Right$ = 8						; size = 4
??4_Iterator_base12@std@@QAEAAU01@ABU01@@Z PROC		; std::_Iterator_base12::operator=, COMDAT
; _this$ = ecx

; 124  : 		{	// assign an iterator

	push	ebp
	mov	ebp, esp

; 125  : 		if (_Myproxy == _Right._Myproxy)

	mov	eax, DWORD PTR __Right$[ebp]
	mov	eax, DWORD PTR [eax]
	cmp	DWORD PTR [ecx], eax
	je	SHORT $LN12@operator

; 126  : 			;
; 127  : 		else if (_Right._Myproxy != 0)

	test	eax, eax
	je	SHORT $LN12@operator

; 128  : 			_Adopt(_Right._Myproxy->_Mycont);

	mov	eax, DWORD PTR [eax]

; 150  : 		if (_Parent == 0)

	test	eax, eax
	je	SHORT $LN12@operator

; 151  : 			{	// no future parent, just disown current parent
; 152  :  #if _ITERATOR_DEBUG_LEVEL == 2
; 153  : 			_Lockit _Lock(_LOCK_DEBUG);
; 154  : 			_Orphan_me();
; 155  :  #endif /* _ITERATOR_DEBUG_LEVEL == 2 */
; 156  : 			}
; 157  : 		else
; 158  : 			{	// have a parent, do adoption
; 159  : 			_Container_proxy *_Parent_proxy = _Parent->_Myproxy;
; 160  : 
; 161  :  #if _ITERATOR_DEBUG_LEVEL == 2
; 162  : 			if (_Myproxy != _Parent_proxy)
; 163  : 				{	// change parentage
; 164  : 				_Lockit _Lock(_LOCK_DEBUG);
; 165  : 				_Orphan_me();
; 166  : 				_Mynextiter = _Parent_proxy->_Myfirstiter;
; 167  : 				_Parent_proxy->_Myfirstiter = this;
; 168  : 				_Myproxy = _Parent_proxy;
; 169  : 				}
; 170  : 
; 171  :  #else /* _ITERATOR_DEBUG_LEVEL == 2 */
; 172  : 			_Myproxy = _Parent_proxy;

	mov	eax, DWORD PTR [eax]
	mov	DWORD PTR [ecx], eax
$LN12@operator:

; 129  : 		else
; 130  : 			{	// becoming invalid, disown current parent
; 131  :  #if _ITERATOR_DEBUG_LEVEL == 2
; 132  : 			_Lockit _Lock(_LOCK_DEBUG);
; 133  : 			_Orphan_me();
; 134  :  #endif /* _ITERATOR_DEBUG_LEVEL == 2 */
; 135  : 			}
; 136  : 
; 137  : 		return (*this);

	mov	eax, ecx

; 138  : 		}

	pop	ebp
	ret	4
??4_Iterator_base12@std@@QAEAAU01@ABU01@@Z ENDP		; std::_Iterator_base12::operator=
_TEXT	ENDS
; Function compile flags: /Ogtp
; File c:\program files (x86)\microsoft visual studio 14.0\vc\include\xutility
;	COMDAT ??1_Iterator_base12@std@@QAE@XZ
_TEXT	SEGMENT
??1_Iterator_base12@std@@QAE@XZ PROC			; std::_Iterator_base12::~_Iterator_base12, COMDAT
; _this$dead$ = ecx

; 142  :  #if _ITERATOR_DEBUG_LEVEL == 2
; 143  : 		_Lockit _Lock(_LOCK_DEBUG);
; 144  : 		_Orphan_me();
; 145  :  #endif /* _ITERATOR_DEBUG_LEVEL == 2 */
; 146  : 		}

	ret	0
??1_Iterator_base12@std@@QAE@XZ ENDP			; std::_Iterator_base12::~_Iterator_base12
_TEXT	ENDS
; Function compile flags: /Ogtp
; File c:\program files (x86)\microsoft visual studio 14.0\vc\include\xutility
;	COMDAT ?_Adopt@_Iterator_base12@std@@QAEXPBU_Container_base12@2@@Z
_TEXT	SEGMENT
__Parent$ = 8						; size = 4
?_Adopt@_Iterator_base12@std@@QAEXPBU_Container_base12@2@@Z PROC ; std::_Iterator_base12::_Adopt, COMDAT
; _this$ = ecx

; 149  : 		{	// adopt this iterator by parent

	push	ebp
	mov	ebp, esp

; 150  : 		if (_Parent == 0)

	mov	eax, DWORD PTR __Parent$[ebp]
	test	eax, eax
	je	SHORT $LN3@Adopt

; 151  : 			{	// no future parent, just disown current parent
; 152  :  #if _ITERATOR_DEBUG_LEVEL == 2
; 153  : 			_Lockit _Lock(_LOCK_DEBUG);
; 154  : 			_Orphan_me();
; 155  :  #endif /* _ITERATOR_DEBUG_LEVEL == 2 */
; 156  : 			}
; 157  : 		else
; 158  : 			{	// have a parent, do adoption
; 159  : 			_Container_proxy *_Parent_proxy = _Parent->_Myproxy;
; 160  : 
; 161  :  #if _ITERATOR_DEBUG_LEVEL == 2
; 162  : 			if (_Myproxy != _Parent_proxy)
; 163  : 				{	// change parentage
; 164  : 				_Lockit _Lock(_LOCK_DEBUG);
; 165  : 				_Orphan_me();
; 166  : 				_Mynextiter = _Parent_proxy->_Myfirstiter;
; 167  : 				_Parent_proxy->_Myfirstiter = this;
; 168  : 				_Myproxy = _Parent_proxy;
; 169  : 				}
; 170  : 
; 171  :  #else /* _ITERATOR_DEBUG_LEVEL == 2 */
; 172  : 			_Myproxy = _Parent_proxy;

	mov	eax, DWORD PTR [eax]
	mov	DWORD PTR [ecx], eax
$LN3@Adopt:

; 173  :  #endif /* _ITERATOR_DEBUG_LEVEL == 2 */
; 174  : 			}
; 175  : 		}

	pop	ebp
	ret	4
?_Adopt@_Iterator_base12@std@@QAEXPBU_Container_base12@2@@Z ENDP ; std::_Iterator_base12::_Adopt
_TEXT	ENDS
; Function compile flags: /Ogtp
; File c:\program files (x86)\microsoft visual studio 14.0\vc\include\xutility
;	COMDAT ?_Getcont@_Iterator_base12@std@@QBEPBU_Container_base12@2@XZ
_TEXT	SEGMENT
?_Getcont@_Iterator_base12@std@@QBEPBU_Container_base12@2@XZ PROC ; std::_Iterator_base12::_Getcont, COMDAT
; _this$ = ecx

; 184  : 		return (_Myproxy == 0 ? 0 : _Myproxy->_Mycont);

	mov	eax, DWORD PTR [ecx]
	test	eax, eax
	jne	SHORT $LN3@Getcont

; 185  : 		}

	ret	0
$LN3@Getcont:

; 184  : 		return (_Myproxy == 0 ? 0 : _Myproxy->_Mycont);

	mov	eax, DWORD PTR [eax]

; 185  : 		}

	ret	0
?_Getcont@_Iterator_base12@std@@QBEPBU_Container_base12@2@XZ ENDP ; std::_Iterator_base12::_Getcont
_TEXT	ENDS
; Function compile flags: /Ogtp
; File c:\program files (x86)\microsoft visual studio 14.0\vc\include\xutility
;	COMDAT ?_Orphan_all@_Container_base12@std@@QAEXXZ
_TEXT	SEGMENT
?_Orphan_all@_Container_base12@std@@QAEXXZ PROC		; std::_Container_base12::_Orphan_all, COMDAT
; _this$dead$ = ecx

; 216  :  #if _ITERATOR_DEBUG_LEVEL == 2
; 217  : 	if (_Myproxy != 0)
; 218  : 		{	// proxy allocated, drain it
; 219  : 		_Lockit _Lock(_LOCK_DEBUG);
; 220  : 
; 221  : 		for (_Iterator_base12 **_Pnext = &_Myproxy->_Myfirstiter;
; 222  : 			*_Pnext != 0; *_Pnext = (*_Pnext)->_Mynextiter)
; 223  : 			(*_Pnext)->_Myproxy = 0;
; 224  : 		_Myproxy->_Myfirstiter = 0;
; 225  : 		}
; 226  :  #endif /* _ITERATOR_DEBUG_LEVEL == 2 */
; 227  : 	}

	ret	0
?_Orphan_all@_Container_base12@std@@QAEXXZ ENDP		; std::_Container_base12::_Orphan_all
_TEXT	ENDS
; Function compile flags: /Ogtp
; File c:\program files (x86)\microsoft visual studio 14.0\vc\include\xutility
;	COMDAT ?_Swap_all@_Container_base12@std@@QAEXAAU12@@Z
_TEXT	SEGMENT
__Right$ = 8						; size = 4
?_Swap_all@_Container_base12@std@@QAEXAAU12@@Z PROC	; std::_Container_base12::_Swap_all, COMDAT
; _this$ = ecx

; 230  : 	{	// swap all iterators

	push	ebp
	mov	ebp, esp

; 231  :  #if _ITERATOR_DEBUG_LEVEL == 2
; 232  : 	_Lockit _Lock(_LOCK_DEBUG);
; 233  :  #endif /* _ITERATOR_DEBUG_LEVEL == 2 */
; 234  : 
; 235  : 	_Container_proxy *_Temp = _Myproxy;

	mov	edx, DWORD PTR [ecx]
	push	esi

; 236  : 	_Myproxy = _Right._Myproxy;

	mov	esi, DWORD PTR __Right$[ebp]
	mov	eax, DWORD PTR [esi]
	mov	DWORD PTR [ecx], eax

; 237  : 	_Right._Myproxy = _Temp;

	mov	DWORD PTR [esi], edx

; 238  : 
; 239  : 	if (_Myproxy != 0)

	mov	eax, DWORD PTR [ecx]
	test	eax, eax
	je	SHORT $LN2@Swap_all

; 240  : 		_Myproxy->_Mycont = (_Container_base12 *)this;

	mov	DWORD PTR [eax], ecx
$LN2@Swap_all:

; 241  : 	if (_Right._Myproxy != 0)

	mov	eax, DWORD PTR [esi]
	test	eax, eax
	je	SHORT $LN3@Swap_all

; 242  : 		_Right._Myproxy->_Mycont = (_Container_base12 *)&_Right;

	mov	DWORD PTR [eax], esi
$LN3@Swap_all:
	pop	esi

; 243  : 	}

	pop	ebp
	ret	4
?_Swap_all@_Container_base12@std@@QAEXAAU12@@Z ENDP	; std::_Container_base12::_Swap_all
_TEXT	ENDS
; Function compile flags: /Ogtp
; File c:\program files (x86)\microsoft visual studio 14.0\vc\include\xmemory0
;	COMDAT ?_Allocate@std@@YAPAXII_N@Z
_TEXT	SEGMENT
__Try_aligned_allocation$dead$ = 8			; size = 1
?_Allocate@std@@YAPAXII_N@Z PROC			; std::_Allocate, COMDAT
; __Count$ = ecx
; __Sz$ = edx

; 48   : 	{	// allocate storage for _Count elements of size _Sz

	push	esi
	mov	esi, edx

; 49   : 	void *_Ptr = 0;
; 50   : 
; 51   : 	if (_Count == 0)

	test	ecx, ecx
	jne	SHORT $LN2@Allocate

; 52   : 		return (_Ptr);

	xor	eax, eax
	pop	esi

; 87   : 	}

	ret	0
$LN2@Allocate:

; 53   : 
; 54   : 	// check overflow of multiply
; 55   : 	if ((size_t)(-1) / _Sz < _Count)

	or	eax, -1
	xor	edx, edx
	div	esi
	cmp	eax, ecx
	jae	SHORT $LN3@Allocate

; 56   : 		_Xbad_alloc();	// report no memory

	call	DWORD PTR __imp_?_Xbad_alloc@std@@YAXXZ
$LN12@Allocate:
$LN3@Allocate:

; 57   : 	const size_t _User_size = _Count * _Sz;

	imul	ecx, esi

; 58   : 
; 59   :  #if defined(_M_IX86) || defined(_M_X64)
; 60   : 	if (_Try_aligned_allocation
; 61   : 		&& _BIG_ALLOCATION_THRESHOLD <= _User_size)

	cmp	ecx, 4096				; 00001000H
	jb	SHORT $LN4@Allocate

; 62   : 		{	// allocate large block
; 63   : 		static_assert(sizeof (void *) < _BIG_ALLOCATION_ALIGNMENT,
; 64   : 			"Big allocations should at least match vector register size");
; 65   : 		const size_t _Block_size = _NON_USER_SIZE + _User_size;

	lea	eax, DWORD PTR [ecx+35]

; 66   : 		if (_Block_size <= _User_size)

	cmp	eax, ecx
	ja	SHORT $LN6@Allocate

; 67   : 			_Xbad_alloc();	// report no memory

	call	DWORD PTR __imp_?_Xbad_alloc@std@@YAXXZ
$LN13@Allocate:
$LN6@Allocate:

; 68   : 		const uintptr_t _Ptr_container =
; 69   : 			reinterpret_cast<uintptr_t>(::operator new(_Block_size));

	push	eax
	call	??2@YAPAXI@Z				; operator new
	add	esp, 4

; 70   : 		_SCL_SECURE_ALWAYS_VALIDATE(_Ptr_container != 0);
; 71   : 		_Ptr = reinterpret_cast<void *>((_Ptr_container + _NON_USER_SIZE)

	lea	ecx, DWORD PTR [eax+35]
	and	ecx, -32				; ffffffe0H
	pop	esi

; 72   : 			& ~(_BIG_ALLOCATION_ALIGNMENT - 1));
; 73   : 		static_cast<uintptr_t *>(_Ptr)[-1] = _Ptr_container;

	mov	DWORD PTR [ecx-4], eax

; 84   : 		_SCL_SECURE_ALWAYS_VALIDATE(_Ptr != 0);
; 85   : 		}
; 86   : 	return (_Ptr);

	mov	eax, ecx

; 87   : 	}

	ret	0
$LN4@Allocate:

; 74   : 
; 75   :  #ifdef _DEBUG
; 76   : 		static_cast<uintptr_t *>(_Ptr)[-2] = _BIG_ALLOCATION_SENTINEL;
; 77   :  #endif /* _DEBUG */
; 78   : 		}
; 79   : 	else
; 80   :  #endif /* defined(_M_IX86) || defined(_M_X64) */
; 81   : 
; 82   : 		{	// allocate normal block
; 83   : 		_Ptr = ::operator new(_User_size);

	push	ecx
	call	??2@YAPAXI@Z				; operator new
	add	esp, 4
	mov	ecx, eax
	pop	esi

; 87   : 	}

	ret	0
$LN11@Allocate:
?_Allocate@std@@YAPAXII_N@Z ENDP			; std::_Allocate
_TEXT	ENDS
; Function compile flags: /Ogtp
; File c:\program files (x86)\microsoft visual studio 14.0\vc\include\xmemory0
;	COMDAT ?_Deallocate@std@@YAXPAXII@Z
_TEXT	SEGMENT
__Sz$ = 8						; size = 4
?_Deallocate@std@@YAXPAXII@Z PROC			; std::_Deallocate, COMDAT
; __Ptr$ = ecx
; __Count$ = edx

; 92   : 	{	// deallocate storage for _Count elements of size _Sz

	push	ebp
	mov	ebp, esp
	push	esi
	mov	esi, edx

; 93   :  #if defined(_M_IX86) || defined(_M_X64)
; 94   : 	_SCL_SECURE_ALWAYS_VALIDATE(_Count <= (size_t)(-1) / _Sz);

	or	eax, -1
	xor	edx, edx
	div	DWORD PTR __Sz$[ebp]
	cmp	esi, eax
	jbe	SHORT $LN2@Deallocate
	call	DWORD PTR __imp___invalid_parameter_noinfo_noreturn
$LN12@Deallocate:
$LN2@Deallocate:

; 95   : 	const size_t _User_size = _Count * _Sz;

	imul	esi, DWORD PTR __Sz$[ebp]

; 96   : 	if (_BIG_ALLOCATION_THRESHOLD <= _User_size)

	cmp	esi, 4096				; 00001000H
	pop	esi
	jb	SHORT $LN3@Deallocate

; 97   : 		{	// deallocate large block
; 98   : 		const uintptr_t _Ptr_user = reinterpret_cast<uintptr_t>(_Ptr);
; 99   : 		_SCL_SECURE_ALWAYS_VALIDATE(

	test	cl, 31					; 0000001fH
	je	SHORT $LN4@Deallocate
	call	DWORD PTR __imp___invalid_parameter_noinfo_noreturn
$LN13@Deallocate:
$LN4@Deallocate:

; 100  : 			(_Ptr_user & (_BIG_ALLOCATION_ALIGNMENT - 1)) == 0);
; 101  : 		const uintptr_t _Ptr_ptr = _Ptr_user - sizeof(void *);
; 102  : 		const uintptr_t _Ptr_container =
; 103  : 			*reinterpret_cast<uintptr_t *>(_Ptr_ptr);

	mov	eax, DWORD PTR [ecx-4]

; 104  : 
; 105  :  #ifdef _DEBUG
; 106  : 		// If the following asserts, it likely means that we are performing
; 107  : 		// an aligned delete on memory coming from an unaligned allocation.
; 108  : 		_SCL_SECURE_ALWAYS_VALIDATE(
; 109  : 			reinterpret_cast<uintptr_t *>(_Ptr_ptr)[-1] ==
; 110  : 				_BIG_ALLOCATION_SENTINEL);
; 111  :  #endif /* _DEBUG */
; 112  : 
; 113  : 		// Extra paranoia on aligned allocation/deallocation
; 114  : 		_SCL_SECURE_ALWAYS_VALIDATE(_Ptr_container < _Ptr_user);

	cmp	eax, ecx
	jb	SHORT $LN5@Deallocate
	call	DWORD PTR __imp___invalid_parameter_noinfo_noreturn
$LN14@Deallocate:
$LN5@Deallocate:

; 115  : 
; 116  :  #ifdef _DEBUG
; 117  : 		_SCL_SECURE_ALWAYS_VALIDATE(2 * sizeof(void *)
; 118  : 			<= _Ptr_user - _Ptr_container);
; 119  : 
; 120  :  #else /* _DEBUG */
; 121  : 		_SCL_SECURE_ALWAYS_VALIDATE(sizeof(void *)

	sub	ecx, eax
	cmp	ecx, 4
	jae	SHORT $LN6@Deallocate
	call	DWORD PTR __imp___invalid_parameter_noinfo_noreturn
$LN15@Deallocate:
$LN6@Deallocate:

; 122  : 			<= _Ptr_user - _Ptr_container);
; 123  :  #endif /* _DEBUG */
; 124  : 
; 125  : 		_SCL_SECURE_ALWAYS_VALIDATE(_Ptr_user - _Ptr_container

	cmp	ecx, 35					; 00000023H
	jbe	SHORT $LN7@Deallocate
	call	DWORD PTR __imp___invalid_parameter_noinfo_noreturn
$LN16@Deallocate:
$LN7@Deallocate:

; 126  : 			<= _NON_USER_SIZE);
; 127  : 
; 128  : 		_Ptr = reinterpret_cast<void *>(_Ptr_container);

	mov	ecx, eax
$LN3@Deallocate:

; 129  : 		}
; 130  :  #endif /* defined(_M_IX86) || defined(_M_X64) */
; 131  : 
; 132  : 	::operator delete(_Ptr);

	mov	DWORD PTR __Sz$[ebp], ecx

; 133  : 	}

	pop	ebp

; 129  : 		}
; 130  :  #endif /* defined(_M_IX86) || defined(_M_X64) */
; 131  : 
; 132  : 	::operator delete(_Ptr);

	jmp	??3@YAXPAX@Z				; operator delete
$LN11@Deallocate:
?_Deallocate@std@@YAXPAXII@Z ENDP			; std::_Deallocate
_TEXT	ENDS
; Function compile flags: /Ogtp
; File c:\program files (x86)\microsoft visual studio 14.0\vc\include\vcruntime_exception.h
;	COMDAT ??_Gruntime_error@std@@UAEPAXI@Z
_TEXT	SEGMENT
___flags$ = 8						; size = 4
??_Gruntime_error@std@@UAEPAXI@Z PROC			; std::runtime_error::`scalar deleting destructor', COMDAT
; _this$ = ecx
	push	ebp
	mov	ebp, esp
	push	esi
	mov	esi, ecx

; 84   :         __std_exception_destroy(&_Data);

	lea	eax, DWORD PTR [esi+4]
	mov	DWORD PTR [esi], OFFSET ??_7exception@std@@6B@
	push	eax
	call	DWORD PTR __imp____std_exception_destroy
	add	esp, 4
	test	BYTE PTR ___flags$[ebp], 1
	je	SHORT $LN9@scalar
	push	12					; 0000000cH
	push	esi
	call	??3@YAXPAXI@Z				; operator delete
	add	esp, 8
$LN9@scalar:
	mov	eax, esi
	pop	esi
	pop	ebp
	ret	4
??_Gruntime_error@std@@UAEPAXI@Z ENDP			; std::runtime_error::`scalar deleting destructor'
_TEXT	ENDS
; Function compile flags: /Ogtp
; File c:\program files (x86)\microsoft visual studio 14.0\vc\include\vcruntime_exception.h
;	COMDAT ??1runtime_error@std@@UAE@XZ
_TEXT	SEGMENT
??1runtime_error@std@@UAE@XZ PROC			; std::runtime_error::~runtime_error, COMDAT
; _this$ = ecx

; 84   :         __std_exception_destroy(&_Data);

	lea	eax, DWORD PTR [ecx+4]
	mov	DWORD PTR [ecx], OFFSET ??_7exception@std@@6B@
	push	eax
	call	DWORD PTR __imp____std_exception_destroy
	pop	ecx
	ret	0
??1runtime_error@std@@UAE@XZ ENDP			; std::runtime_error::~runtime_error
_TEXT	ENDS
; Function compile flags: /Ogtp
; File c:\program files (x86)\microsoft visual studio 14.0\vc\include\vcruntime_exception.h
;	COMDAT ??0runtime_error@std@@QAE@ABV01@@Z
_TEXT	SEGMENT
___that$ = 8						; size = 4
??0runtime_error@std@@QAE@ABV01@@Z PROC			; std::runtime_error::runtime_error, COMDAT
; _this$ = ecx
	push	ebp
	mov	ebp, esp
	push	esi
	mov	esi, ecx
	xorps	xmm0, xmm0

; 65   :         : _Data()

	lea	eax, DWORD PTR [esi+4]

; 66   :     {
; 67   :         __std_exception_copy(&_Other._Data, &_Data);

	push	eax
	mov	DWORD PTR [esi], OFFSET ??_7exception@std@@6B@
	movq	QWORD PTR [eax], xmm0
	mov	eax, DWORD PTR ___that$[ebp]
	add	eax, 4
	push	eax
	call	DWORD PTR __imp____std_exception_copy
	add	esp, 8
	mov	DWORD PTR [esi], OFFSET ??_7runtime_error@std@@6B@
	mov	eax, esi
	pop	esi
	pop	ebp
	ret	4
??0runtime_error@std@@QAE@ABV01@@Z ENDP			; std::runtime_error::runtime_error
_TEXT	ENDS
; Function compile flags: /Ogtp
; File e:\tool\c++incolude\jsoncpp-src-0.5.0\include\json\value.h
;	COMDAT ??0StaticString@Json@@QAE@PBD@Z
_TEXT	SEGMENT
_czstring$ = 8						; size = 4
??0StaticString@Json@@QAE@PBD@Z PROC			; Json::StaticString::StaticString, COMDAT
; _this$ = ecx

; 67   :       {

	push	ebp
	mov	ebp, esp

; 66   :          : str_( czstring )

	mov	eax, DWORD PTR _czstring$[ebp]
	mov	DWORD PTR [ecx], eax

; 68   :       }

	mov	eax, ecx
	pop	ebp
	ret	4
??0StaticString@Json@@QAE@PBD@Z ENDP			; Json::StaticString::StaticString
_TEXT	ENDS
; Function compile flags: /Ogtp
; File e:\tool\c++incolude\jsoncpp-src-0.5.0\include\json\value.h
;	COMDAT ??BStaticString@Json@@QBEPBDXZ
_TEXT	SEGMENT
??BStaticString@Json@@QBEPBDXZ PROC			; Json::StaticString::operator char const *, COMDAT
; _this$ = ecx

; 72   :          return str_;

	mov	eax, DWORD PTR [ecx]

; 73   :       }

	ret	0
??BStaticString@Json@@QBEPBDXZ ENDP			; Json::StaticString::operator char const *
_TEXT	ENDS
; Function compile flags: /Ogtp
; File e:\tool\c++incolude\jsoncpp-src-0.5.0\include\json\value.h
;	COMDAT ?c_str@StaticString@Json@@QBEPBDXZ
_TEXT	SEGMENT
?c_str@StaticString@Json@@QBEPBDXZ PROC			; Json::StaticString::c_str, COMDAT
; _this$ = ecx

; 77   :          return str_;

	mov	eax, DWORD PTR [ecx]

; 78   :       }

	ret	0
?c_str@StaticString@Json@@QBEPBDXZ ENDP			; Json::StaticString::c_str
_TEXT	ENDS
; Function compile flags: /Ogtp
;	COMDAT ??4StaticString@Json@@QAEAAV01@ABV01@@Z
_TEXT	SEGMENT
___that$ = 8						; size = 4
??4StaticString@Json@@QAEAAV01@ABV01@@Z PROC		; Json::StaticString::operator=, COMDAT
; _this$ = ecx
	push	ebp
	mov	ebp, esp
	mov	eax, DWORD PTR ___that$[ebp]
	mov	eax, DWORD PTR [eax]
	mov	DWORD PTR [ecx], eax
	mov	eax, ecx
	pop	ebp
	ret	4
??4StaticString@Json@@QAEAAV01@ABV01@@Z ENDP		; Json::StaticString::operator=
_TEXT	ENDS
; Function compile flags: /Ogtp
;	COMDAT ??4StaticString@Json@@QAEAAV01@$$QAV01@@Z
_TEXT	SEGMENT
___that$ = 8						; size = 4
??4StaticString@Json@@QAEAAV01@$$QAV01@@Z PROC		; Json::StaticString::operator=, COMDAT
; _this$ = ecx
	push	ebp
	mov	ebp, esp
	mov	eax, DWORD PTR ___that$[ebp]
	mov	eax, DWORD PTR [eax]
	mov	DWORD PTR [ecx], eax
	mov	eax, ecx
	pop	ebp
	ret	4
??4StaticString@Json@@QAEAAV01@$$QAV01@@Z ENDP		; Json::StaticString::operator=
_TEXT	ENDS
; Function compile flags: /Ogtp
; File e:\tool\c++incolude\jsoncpp-src-0.5.0\src\lib_json\json_value.cpp
;	COMDAT ??_FValue@Json@@QAEXXZ
_TEXT	SEGMENT
??_FValue@Json@@QAEXXZ PROC				; Json::Value::`default constructor closure', COMDAT
; _this$ = ecx

; 269  :    : type_( type )

	mov	BYTE PTR [ecx+8], 0

; 270  :    , allocated_( 0 )

	and	DWORD PTR [ecx+8], -257			; fffffeffH

; 271  :    , comments_( 0 )

	mov	DWORD PTR [ecx+12], 0
	ret	0
??_FValue@Json@@QAEXXZ ENDP				; Json::Value::`default constructor closure'
_TEXT	ENDS
; Function compile flags: /Ogtp
; File c:\program files (x86)\microsoft visual studio 14.0\vc\include\xstring
; File c:\program files (x86)\microsoft visual studio 14.0\vc\include\xstddef
; File c:\program files (x86)\microsoft visual studio 14.0\vc\include\iosfwd
; File c:\program files (x86)\microsoft visual studio 14.0\vc\include\xstring
; File c:\program files (x86)\microsoft visual studio 14.0\vc\include\xstddef
; File c:\program files (x86)\microsoft visual studio 14.0\vc\include\deque
; File c:\program files (x86)\microsoft visual studio 14.0\vc\include\iosfwd
; File c:\program files (x86)\microsoft visual studio 14.0\vc\include\deque
; File c:\program files (x86)\microsoft visual studio 14.0\vc\include\xmemory0
; File c:\program files (x86)\microsoft visual studio 14.0\vc\include\deque
; File c:\program files (x86)\microsoft visual studio 14.0\vc\include\xmemory0
; File c:\program files (x86)\microsoft visual studio 14.0\vc\include\deque
;	COMDAT ??1Reader@Json@@QAE@XZ
_TEXT	SEGMENT
??1Reader@Json@@QAE@XZ PROC				; Json::Reader::~Reader, COMDAT
; _this$ = ecx
	push	esi
	push	edi
	mov	edi, ecx
; File c:\program files (x86)\microsoft visual studio 14.0\vc\include\xstring

; 2251 : 		else if (this->_BUF_SIZE <= this->_Myres())

	mov	eax, DWORD PTR [edi+104]
	lea	esi, DWORD PTR [edi+84]
	cmp	eax, 16					; 00000010H
	jb	SHORT $LN9@Reader

; 2252 : 			{	// copy any leftovers to small buffer and deallocate
; 2253 : 			pointer _Ptr = this->_Bx()._Ptr;
; 2254 : 			this->_Getal().destroy(_STD addressof(this->_Bx()._Ptr));
; 2255 : 			if (0 < _Newsize)
; 2256 : 				_Traits::copy(this->_Bx()._Buf,
; 2257 : 					_Unfancy(_Ptr), _Newsize);
; 2258 : 			this->_Getal().deallocate(_Ptr, this->_Myres() + 1);

	inc	eax
	push	eax
	push	DWORD PTR [esi]
	call	?deallocate@?$_Wrap_alloc@V?$allocator@D@std@@@std@@QAEXPADI@Z ; std::_Wrap_alloc<std::allocator<char> >::deallocate
$LN9@Reader:

; 2259 : 			}
; 2260 : 		this->_Myres() = this->_BUF_SIZE - 1;

	mov	DWORD PTR [esi+20], 15			; 0000000fH

; 514  : 		return (this->_BUF_SIZE <= _Myres

	cmp	DWORD PTR [esi+20], 16			; 00000010H

; 2219 : 		_Traits::assign(_Dx._Myptr()[_Dx._Mysize = _Newsize], _Elem());

	mov	DWORD PTR [esi+16], 0

; 514  : 		return (this->_BUF_SIZE <= _Myres

	jb	SHORT $LN97@Reader
; File c:\program files (x86)\microsoft visual studio 14.0\vc\include\xstddef

; 740  : 	return (_Ptr);

	mov	esi, DWORD PTR [esi]
$LN97@Reader:
; File c:\program files (x86)\microsoft visual studio 14.0\vc\include\iosfwd

; 565  : 		_Left = _Right;

	mov	BYTE PTR [esi], 0
	lea	esi, DWORD PTR [edi+40]
; File c:\program files (x86)\microsoft visual studio 14.0\vc\include\xstring

; 2251 : 		else if (this->_BUF_SIZE <= this->_Myres())

	mov	eax, DWORD PTR [esi+20]
	cmp	eax, 16					; 00000010H
	jb	SHORT $LN110@Reader

