; Listing generated by Microsoft (R) Optimizing Compiler Version 19.00.24215.1 

	TITLE	e:\tool\c++incolude\jsoncpp-src-0.5.0\src\lib_json\json_writer.cpp
	.686P
	.XMM
	include listing.inc
	.model	flat


PUBLIC	??_C@_02LMMGGCAJ@?3?5?$AA@			; `string'
PUBLIC	??_C@_06ECBCCLMB@?$CF?$CD?416g?$AA@		; `string'
PUBLIC	??_C@_07FKPPGBGM@?$CC?2?$AI?$AM?6?$AN?7?$AA@	; `string'
PUBLIC	??_C@_01BJJEKLCA@?$CC?$AA@			; `string'
PUBLIC	??_C@_02MCKKLHBJ@?2?$CC?$AA@			; `string'
PUBLIC	??_C@_02HDBGODGB@?2?2?$AA@			; `string'
PUBLIC	??_C@_02DCNDPIBM@?2b?$AA@			; `string'
PUBLIC	??_C@_02FGLPDNBI@?2f?$AA@			; `string'
PUBLIC	??_C@_02JOGGLHBA@?2n?$AA@			; `string'
PUBLIC	??_C@_02HIBBOKEN@?2r?$AA@			; `string'
PUBLIC	??_C@_02COELENML@?2t?$AA@			; `string'
PUBLIC	??_C@_02DHFAHMIK@?2u?$AA@			; `string'
PUBLIC	??_C@_04MLLLIHIP@null?$AA@			; `string'
PUBLIC	??_C@_01OHGJGJJP@?$FL?$AA@			; `string'
PUBLIC	??_C@_01IHBHIGKO@?0?$AA@			; `string'
PUBLIC	??_C@_01LBDDMOBJ@?$FN?$AA@			; `string'
PUBLIC	??_C@_01HCONENDN@?$HL?$AA@			; `string'
PUBLIC	??_C@_01JLIPDDHJ@?3?$AA@			; `string'
PUBLIC	??_C@_01CELHOKLL@?$HN?$AA@			; `string'
PUBLIC	??_C@_02MCILKGOH@?$HL?$HN?$AA@			; `string'
PUBLIC	??_C@_03MCPBMLDJ@?5?3?5?$AA@			; `string'
PUBLIC	??_C@_02GPECMEKF@?$FL?$FN?$AA@			; `string'
PUBLIC	??_C@_02PFNDMDBO@?$FL?5?$AA@			; `string'
PUBLIC	??_C@_02KEGNLNML@?0?5?$AA@			; `string'
PUBLIC	??_C@_02DHOGEDBE@?5?$FN?$AA@			; `string'
PUBLIC	??_C@_01CLKCMJKC@?5?$AA@			; `string'
PUBLIC	??_R4?$basic_ostringstream@DU?$char_traits@D@std@@V?$allocator@D@2@@std@@6B@ ; std::basic_ostringstream<char,std::char_traits<char>,std::allocator<char> >::`RTTI Complete Object Locator'
PUBLIC	??_7?$basic_ostringstream@DU?$char_traits@D@std@@V?$allocator@D@2@@std@@6B@ ; std::basic_ostringstream<char,std::char_traits<char>,std::allocator<char> >::`vftable'
PUBLIC	??_R0?AV?$basic_stringbuf@DU?$char_traits@D@std@@V?$allocator@D@2@@std@@@8 ; std::basic_stringbuf<char,std::char_traits<char>,std::allocator<char> > `RTTI Type Descriptor'
PUBLIC	??_R0?AVios_base@std@@@8			; std::ios_base `RTTI Type Descriptor'
PUBLIC	??_R2?$basic_stringbuf@DU?$char_traits@D@std@@V?$allocator@D@2@@std@@8 ; std::basic_stringbuf<char,std::char_traits<char>,std::allocator<char> >::`RTTI Base Class Array'
PUBLIC	??_R3?$basic_ostringstream@DU?$char_traits@D@std@@V?$allocator@D@2@@std@@8 ; std::basic_ostringstream<char,std::char_traits<char>,std::allocator<char> >::`RTTI Class Hierarchy Descriptor'
PUBLIC	??_R17A@3EA@?$_Iosb@H@std@@8			; std::_Iosb<int>::`RTTI Base Class Descriptor at (8,0,4,64)'
PUBLIC	??_R1A@?0A@EA@?$basic_streambuf@DU?$char_traits@D@std@@@std@@8 ; std::basic_streambuf<char,std::char_traits<char> >::`RTTI Base Class Descriptor at (0,-1,0,64)'
PUBLIC	??_R0?AV?$_Iosb@H@std@@@8			; std::_Iosb<int> `RTTI Type Descriptor'
PUBLIC	??_R0?AV?$basic_streambuf@DU?$char_traits@D@std@@@std@@@8 ; std::basic_streambuf<char,std::char_traits<char> > `RTTI Type Descriptor'
PUBLIC	??_R1A@?0A@EA@?$basic_ostringstream@DU?$char_traits@D@std@@V?$allocator@D@2@@std@@8 ; std::basic_ostringstream<char,std::char_traits<char>,std::allocator<char> >::`RTTI Base Class Descriptor at (0,-1,0,64)'
PUBLIC	??_R3?$basic_stringbuf@DU?$char_traits@D@std@@V?$allocator@D@2@@std@@8 ; std::basic_stringbuf<char,std::char_traits<char>,std::allocator<char> >::`RTTI Class Hierarchy Descriptor'
PUBLIC	??_R2?$basic_ostream@DU?$char_traits@D@std@@@std@@8 ; std::basic_ostream<char,std::char_traits<char> >::`RTTI Base Class Array'
PUBLIC	??_R0?AV?$basic_ostringstream@DU?$char_traits@D@std@@V?$allocator@D@2@@std@@@8 ; std::basic_ostringstream<char,std::char_traits<char>,std::allocator<char> > `RTTI Type Descriptor'
PUBLIC	??_R3?$basic_ios@DU?$char_traits@D@std@@@std@@8	; std::basic_ios<char,std::char_traits<char> >::`RTTI Class Hierarchy Descriptor'
PUBLIC	??_7?$basic_stringbuf@DU?$char_traits@D@std@@V?$allocator@D@2@@std@@6B@ ; std::basic_stringbuf<char,std::char_traits<char>,std::allocator<char> >::`vftable'
PUBLIC	??_R1A@?0A@EA@ios_base@std@@8			; std::ios_base::`RTTI Base Class Descriptor at (0,-1,0,64)'
PUBLIC	??_R1A@?0A@EA@?$basic_ostream@DU?$char_traits@D@std@@@std@@8 ; std::basic_ostream<char,std::char_traits<char> >::`RTTI Base Class Descriptor at (0,-1,0,64)'
PUBLIC	??_R0?AV?$basic_ios@DU?$char_traits@D@std@@@std@@@8 ; std::basic_ios<char,std::char_traits<char> > `RTTI Type Descriptor'
PUBLIC	??_R2?$basic_streambuf@DU?$char_traits@D@std@@@std@@8 ; std::basic_streambuf<char,std::char_traits<char> >::`RTTI Base Class Array'
PUBLIC	??_R1A@?0A@EA@?$_Iosb@H@std@@8			; std::_Iosb<int>::`RTTI Base Class Descriptor at (0,-1,0,64)'
PUBLIC	??_R1A@?0A@EA@?$basic_stringbuf@DU?$char_traits@D@std@@V?$allocator@D@2@@std@@8 ; std::basic_stringbuf<char,std::char_traits<char>,std::allocator<char> >::`RTTI Base Class Descriptor at (0,-1,0,64)'
PUBLIC	??_8?$basic_ostringstream@DU?$char_traits@D@std@@V?$allocator@D@2@@std@@7B@ ; std::basic_ostringstream<char,std::char_traits<char>,std::allocator<char> >::`vbtable'
PUBLIC	??_R4?$basic_stringbuf@DU?$char_traits@D@std@@V?$allocator@D@2@@std@@6B@ ; std::basic_stringbuf<char,std::char_traits<char>,std::allocator<char> >::`RTTI Complete Object Locator'
PUBLIC	??_R1A@A@3FA@?$basic_ios@DU?$char_traits@D@std@@@std@@8 ; std::basic_ios<char,std::char_traits<char> >::`RTTI Base Class Descriptor at (0,0,4,80)'
PUBLIC	??_R0?AV?$basic_ostream@DU?$char_traits@D@std@@@std@@@8 ; std::basic_ostream<char,std::char_traits<char> > `RTTI Type Descriptor'
PUBLIC	??_R2ios_base@std@@8				; std::ios_base::`RTTI Base Class Array'
PUBLIC	??_R3?$basic_ostream@DU?$char_traits@D@std@@@std@@8 ; std::basic_ostream<char,std::char_traits<char> >::`RTTI Class Hierarchy Descriptor'
PUBLIC	??_R3ios_base@std@@8				; std::ios_base::`RTTI Class Hierarchy Descriptor'
PUBLIC	??_R3?$basic_streambuf@DU?$char_traits@D@std@@@std@@8 ; std::basic_streambuf<char,std::char_traits<char> >::`RTTI Class Hierarchy Descriptor'
PUBLIC	??_R2?$_Iosb@H@std@@8				; std::_Iosb<int>::`RTTI Base Class Array'
PUBLIC	??_R1A@A@3EA@ios_base@std@@8			; std::ios_base::`RTTI Base Class Descriptor at (0,0,4,64)'
PUBLIC	??_R1A@?0A@EA@?$basic_ios@DU?$char_traits@D@std@@@std@@8 ; std::basic_ios<char,std::char_traits<char> >::`RTTI Base Class Descriptor at (0,-1,0,64)'
PUBLIC	??_R3?$_Iosb@H@std@@8				; std::_Iosb<int>::`RTTI Class Hierarchy Descriptor'
PUBLIC	??_R17?0A@EA@?$_Iosb@H@std@@8			; std::_Iosb<int>::`RTTI Base Class Descriptor at (8,-1,0,64)'
PUBLIC	??_R2?$basic_ios@DU?$char_traits@D@std@@@std@@8	; std::basic_ios<char,std::char_traits<char> >::`RTTI Base Class Array'
PUBLIC	??_R2?$basic_ostringstream@DU?$char_traits@D@std@@V?$allocator@D@2@@std@@8 ; std::basic_ostringstream<char,std::char_traits<char>,std::allocator<char> >::`RTTI Base Class Array'
EXTRN	__imp_?rdstate@ios_base@std@@QBEHXZ:PROC
EXTRN	__imp_?good@ios_base@std@@QBE_NXZ:PROC
EXTRN	__imp_?flags@ios_base@std@@QBEHXZ:PROC
EXTRN	__imp_?setf@ios_base@std@@QAEHH@Z:PROC
EXTRN	__imp_?setf@ios_base@std@@QAEHHH@Z:PROC
EXTRN	__imp_?width@ios_base@std@@QBE_JXZ:PROC
EXTRN	__imp_?width@ios_base@std@@QAE_J_J@Z:PROC
EXTRN	__imp_??6?$basic_ostream@DU?$char_traits@D@std@@@std@@QAEAAV01@H@Z:PROC
EXTRN	__imp_??6?$basic_ostream@DU?$char_traits@D@std@@@std@@QAEAAV01@P6AAAVios_base@1@AAV21@@Z@Z:PROC
EXTRN	__imp_??1?$basic_ostream@DU?$char_traits@D@std@@@std@@UAE@XZ:PROC
EXTRN	?imbue@?$basic_streambuf@DU?$char_traits@D@std@@@std@@MAEXABVlocale@2@@Z:PROC ; std::basic_streambuf<char,std::char_traits<char> >::imbue
EXTRN	__imp_?imbue@?$basic_streambuf@DU?$char_traits@D@std@@@std@@MAEXABVlocale@2@@Z:PROC
EXTRN	?sync@?$basic_streambuf@DU?$char_traits@D@std@@@std@@MAEHXZ:PROC ; std::basic_streambuf<char,std::char_traits<char> >::sync
EXTRN	__imp_?sync@?$basic_streambuf@DU?$char_traits@D@std@@@std@@MAEHXZ:PROC
EXTRN	?setbuf@?$basic_streambuf@DU?$char_traits@D@std@@@std@@MAEPAV12@PAD_J@Z:PROC ; std::basic_streambuf<char,std::char_traits<char> >::setbuf
EXTRN	__imp_?setbuf@?$basic_streambuf@DU?$char_traits@D@std@@@std@@MAEPAV12@PAD_J@Z:PROC
EXTRN	?xsputn@?$basic_streambuf@DU?$char_traits@D@std@@@std@@MAE_JPBD_J@Z:PROC ; std::basic_streambuf<char,std::char_traits<char> >::xsputn
EXTRN	__imp_?xsputn@?$basic_streambuf@DU?$char_traits@D@std@@@std@@MAE_JPBD_J@Z:PROC
EXTRN	?xsgetn@?$basic_streambuf@DU?$char_traits@D@std@@@std@@MAE_JPAD_J@Z:PROC ; std::basic_streambuf<char,std::char_traits<char> >::xsgetn
EXTRN	__imp_?xsgetn@?$basic_streambuf@DU?$char_traits@D@std@@@std@@MAE_JPAD_J@Z:PROC
EXTRN	?uflow@?$basic_streambuf@DU?$char_traits@D@std@@@std@@MAEHXZ:PROC ; std::basic_streambuf<char,std::char_traits<char> >::uflow
EXTRN	__imp_?uflow@?$basic_streambuf@DU?$char_traits@D@std@@@std@@MAEHXZ:PROC
EXTRN	?showmanyc@?$basic_streambuf@DU?$char_traits@D@std@@@std@@MAE_JXZ:PROC ; std::basic_streambuf<char,std::char_traits<char> >::showmanyc
EXTRN	__imp_?showmanyc@?$basic_streambuf@DU?$char_traits@D@std@@@std@@MAE_JXZ:PROC
EXTRN	?_Unlock@?$basic_streambuf@DU?$char_traits@D@std@@@std@@UAEXXZ:PROC ; std::basic_streambuf<char,std::char_traits<char> >::_Unlock
EXTRN	__imp_?_Unlock@?$basic_streambuf@DU?$char_traits@D@std@@@std@@UAEXXZ:PROC
EXTRN	?_Lock@?$basic_streambuf@DU?$char_traits@D@std@@@std@@UAEXXZ:PROC ; std::basic_streambuf<char,std::char_traits<char> >::_Lock
EXTRN	__imp_?_Lock@?$basic_streambuf@DU?$char_traits@D@std@@@std@@UAEXXZ:PROC
EXTRN	__imp_??1?$basic_streambuf@DU?$char_traits@D@std@@@std@@UAE@XZ:PROC
EXTRN	__imp_??1?$basic_ios@DU?$char_traits@D@std@@@std@@UAE@XZ:PROC
EXTRN	__imp_??0?$basic_ostream@DU?$char_traits@D@std@@@std@@QAE@PAV?$basic_streambuf@DU?$char_traits@D@std@@@1@_N@Z:PROC
EXTRN	__imp_?_Pninc@?$basic_streambuf@DU?$char_traits@D@std@@@std@@IAEPADXZ:PROC
EXTRN	__imp_?setp@?$basic_streambuf@DU?$char_traits@D@std@@@std@@IAEXPAD00@Z:PROC
EXTRN	__imp_?setp@?$basic_streambuf@DU?$char_traits@D@std@@@std@@IAEXPAD0@Z:PROC
EXTRN	__imp_?pbump@?$basic_streambuf@DU?$char_traits@D@std@@@std@@IAEXH@Z:PROC
EXTRN	__imp_?epptr@?$basic_streambuf@DU?$char_traits@D@std@@@std@@IBEPADXZ:PROC
EXTRN	__imp_?setg@?$basic_streambuf@DU?$char_traits@D@std@@@std@@IAEXPAD00@Z:PROC
EXTRN	__imp_?gbump@?$basic_streambuf@DU?$char_traits@D@std@@@std@@IAEXH@Z:PROC
EXTRN	__imp_?egptr@?$basic_streambuf@DU?$char_traits@D@std@@@std@@IBEPADXZ:PROC
EXTRN	__imp_?pptr@?$basic_streambuf@DU?$char_traits@D@std@@@std@@IBEPADXZ:PROC
EXTRN	__imp_?pbase@?$basic_streambuf@DU?$char_traits@D@std@@@std@@IBEPADXZ:PROC
EXTRN	__imp_?gptr@?$basic_streambuf@DU?$char_traits@D@std@@@std@@IBEPADXZ:PROC
EXTRN	__imp_?eback@?$basic_streambuf@DU?$char_traits@D@std@@@std@@IBEPADXZ:PROC
EXTRN	__imp_??0?$basic_ios@DU?$char_traits@D@std@@@std@@IAE@XZ:PROC
EXTRN	__imp_?fill@?$basic_ios@DU?$char_traits@D@std@@@std@@QBEDXZ:PROC
EXTRN	__imp_?flush@?$basic_ostream@DU?$char_traits@D@std@@@std@@QAEAAV12@XZ:PROC
EXTRN	__imp_?_Osfx@?$basic_ostream@DU?$char_traits@D@std@@@std@@QAEXXZ:PROC
EXTRN	__imp_??0?$basic_streambuf@DU?$char_traits@D@std@@@std@@IAE@XZ:PROC
EXTRN	__imp_?tie@?$basic_ios@DU?$char_traits@D@std@@@std@@QBEPAV?$basic_ostream@DU?$char_traits@D@std@@@2@XZ:PROC
EXTRN	__imp_?sputc@?$basic_streambuf@DU?$char_traits@D@std@@@std@@QAEHD@Z:PROC
EXTRN	__imp_?sputn@?$basic_streambuf@DU?$char_traits@D@std@@@std@@QAE_JPBD_J@Z:PROC
EXTRN	__imp_?fill@?$basic_ios@DU?$char_traits@D@std@@@std@@QAEDD@Z:PROC
EXTRN	__imp____stdio_common_vsprintf_s:PROC
EXTRN	__imp_?setw@std@@YA?AU?$_Smanip@_J@1@_J@Z:PROC
EXTRN	__imp_?_BADOFF@std@@3_JB:QWORD
EXTRN	__imp_?uncaught_exception@std@@YA_NXZ:PROC
EXTRN	__imp__strpbrk:PROC
;	COMDAT ??_R2?$basic_ostringstream@DU?$char_traits@D@std@@V?$allocator@D@2@@std@@8
rdata$r	SEGMENT
??_R2?$basic_ostringstream@DU?$char_traits@D@std@@V?$allocator@D@2@@std@@8 DD FLAT:??_R1A@?0A@EA@?$basic_ostringstream@DU?$char_traits@D@std@@V?$allocator@D@2@@std@@8 ; std::basic_ostringstream<char,std::char_traits<char>,std::allocator<char> >::`RTTI Base Class Array'
	DD	FLAT:??_R1A@?0A@EA@?$basic_ostream@DU?$char_traits@D@std@@@std@@8
	DD	FLAT:??_R1A@A@3FA@?$basic_ios@DU?$char_traits@D@std@@@std@@8
	DD	FLAT:??_R1A@A@3EA@ios_base@std@@8
	DD	FLAT:??_R17A@3EA@?$_Iosb@H@std@@8
rdata$r	ENDS
;	COMDAT ??_R2?$basic_ios@DU?$char_traits@D@std@@@std@@8
rdata$r	SEGMENT
??_R2?$basic_ios@DU?$char_traits@D@std@@@std@@8 DD FLAT:??_R1A@?0A@EA@?$basic_ios@DU?$char_traits@D@std@@@std@@8 ; std::basic_ios<char,std::char_traits<char> >::`RTTI Base Class Array'
	DD	FLAT:??_R1A@?0A@EA@ios_base@std@@8
	DD	FLAT:??_R17?0A@EA@?$_Iosb@H@std@@8
rdata$r	ENDS
;	COMDAT ??_R17?0A@EA@?$_Iosb@H@std@@8
rdata$r	SEGMENT
??_R17?0A@EA@?$_Iosb@H@std@@8 DD FLAT:??_R0?AV?$_Iosb@H@std@@@8 ; std::_Iosb<int>::`RTTI Base Class Descriptor at (8,-1,0,64)'
	DD	00H
	DD	08H
	DD	0ffffffffH
	DD	00H
	DD	040H
	DD	FLAT:??_R3?$_Iosb@H@std@@8
rdata$r	ENDS
;	COMDAT ??_R3?$_Iosb@H@std@@8
rdata$r	SEGMENT
??_R3?$_Iosb@H@std@@8 DD 00H				; std::_Iosb<int>::`RTTI Class Hierarchy Descriptor'
	DD	00H
	DD	01H
	DD	FLAT:??_R2?$_Iosb@H@std@@8
rdata$r	ENDS
;	COMDAT ??_R1A@?0A@EA@?$basic_ios@DU?$char_traits@D@std@@@std@@8
rdata$r	SEGMENT
??_R1A@?0A@EA@?$basic_ios@DU?$char_traits@D@std@@@std@@8 DD FLAT:??_R0?AV?$basic_ios@DU?$char_traits@D@std@@@std@@@8 ; std::basic_ios<char,std::char_traits<char> >::`RTTI Base Class Descriptor at (0,-1,0,64)'
	DD	02H
	DD	00H
	DD	0ffffffffH
	DD	00H
	DD	040H
	DD	FLAT:??_R3?$basic_ios@DU?$char_traits@D@std@@@std@@8
rdata$r	ENDS
;	COMDAT ??_R1A@A@3EA@ios_base@std@@8
rdata$r	SEGMENT
??_R1A@A@3EA@ios_base@std@@8 DD FLAT:??_R0?AVios_base@std@@@8 ; std::ios_base::`RTTI Base Class Descriptor at (0,0,4,64)'
	DD	01H
	DD	00H
	DD	00H
	DD	04H
	DD	040H
	DD	FLAT:??_R3ios_base@std@@8
rdata$r	ENDS
;	COMDAT ??_R2?$_Iosb@H@std@@8
rdata$r	SEGMENT
??_R2?$_Iosb@H@std@@8 DD FLAT:??_R1A@?0A@EA@?$_Iosb@H@std@@8 ; std::_Iosb<int>::`RTTI Base Class Array'
rdata$r	ENDS
;	COMDAT ??_R3?$basic_streambuf@DU?$char_traits@D@std@@@std@@8
rdata$r	SEGMENT
??_R3?$basic_streambuf@DU?$char_traits@D@std@@@std@@8 DD 00H ; std::basic_streambuf<char,std::char_traits<char> >::`RTTI Class Hierarchy Descriptor'
	DD	00H
	DD	01H
	DD	FLAT:??_R2?$basic_streambuf@DU?$char_traits@D@std@@@std@@8
rdata$r	ENDS
;	COMDAT ??_R3ios_base@std@@8
rdata$r	SEGMENT
??_R3ios_base@std@@8 DD 00H				; std::ios_base::`RTTI Class Hierarchy Descriptor'
	DD	00H
	DD	02H
	DD	FLAT:??_R2ios_base@std@@8
rdata$r	ENDS
;	COMDAT ??_R3?$basic_ostream@DU?$char_traits@D@std@@@std@@8
rdata$r	SEGMENT
??_R3?$basic_ostream@DU?$char_traits@D@std@@@std@@8 DD 00H ; std::basic_ostream<char,std::char_traits<char> >::`RTTI Class Hierarchy Descriptor'
	DD	00H
	DD	04H
	DD	FLAT:??_R2?$basic_ostream@DU?$char_traits@D@std@@@std@@8
rdata$r	ENDS
;	COMDAT ??_R2ios_base@std@@8
rdata$r	SEGMENT
??_R2ios_base@std@@8 DD FLAT:??_R1A@?0A@EA@ios_base@std@@8 ; std::ios_base::`RTTI Base Class Array'
	DD	FLAT:??_R17?0A@EA@?$_Iosb@H@std@@8
rdata$r	ENDS
;	COMDAT ??_R0?AV?$basic_ostream@DU?$char_traits@D@std@@@std@@@8
data$r	SEGMENT
??_R0?AV?$basic_ostream@DU?$char_traits@D@std@@@std@@@8 DD FLAT:??_7type_info@@6B@ ; std::basic_ostream<char,std::char_traits<char> > `RTTI Type Descriptor'
	DD	00H
	DB	'.?AV?$basic_ostream@DU?$char_traits@D@std@@@std@@', 00H
data$r	ENDS
;	COMDAT ??_R1A@A@3FA@?$basic_ios@DU?$char_traits@D@std@@@std@@8
rdata$r	SEGMENT
??_R1A@A@3FA@?$basic_ios@DU?$char_traits@D@std@@@std@@8 DD FLAT:??_R0?AV?$basic_ios@DU?$char_traits@D@std@@@std@@@8 ; std::basic_ios<char,std::char_traits<char> >::`RTTI Base Class Descriptor at (0,0,4,80)'
	DD	02H
	DD	00H
	DD	00H
	DD	04H
	DD	050H
	DD	FLAT:??_R3?$basic_ios@DU?$char_traits@D@std@@@std@@8
rdata$r	ENDS
;	COMDAT ??_R4?$basic_stringbuf@DU?$char_traits@D@std@@V?$allocator@D@2@@std@@6B@
rdata$r	SEGMENT
??_R4?$basic_stringbuf@DU?$char_traits@D@std@@V?$allocator@D@2@@std@@6B@ DD 00H ; std::basic_stringbuf<char,std::char_traits<char>,std::allocator<char> >::`RTTI Complete Object Locator'
	DD	00H
	DD	00H
	DD	FLAT:??_R0?AV?$basic_stringbuf@DU?$char_traits@D@std@@V?$allocator@D@2@@std@@@8
	DD	FLAT:??_R3?$basic_stringbuf@DU?$char_traits@D@std@@V?$allocator@D@2@@std@@8
rdata$r	ENDS
;	COMDAT ??_8?$basic_ostringstream@DU?$char_traits@D@std@@V?$allocator@D@2@@std@@7B@
CONST	SEGMENT
??_8?$basic_ostringstream@DU?$char_traits@D@std@@V?$allocator@D@2@@std@@7B@ DD 00H ; std::basic_ostringstream<char,std::char_traits<char>,std::allocator<char> >::`vbtable'
	DD	050H
CONST	ENDS
;	COMDAT ??_R1A@?0A@EA@?$basic_stringbuf@DU?$char_traits@D@std@@V?$allocator@D@2@@std@@8
rdata$r	SEGMENT
??_R1A@?0A@EA@?$basic_stringbuf@DU?$char_traits@D@std@@V?$allocator@D@2@@std@@8 DD FLAT:??_R0?AV?$basic_stringbuf@DU?$char_traits@D@std@@V?$allocator@D@2@@std@@@8 ; std::basic_stringbuf<char,std::char_traits<char>,std::allocator<char> >::`RTTI Base Class Descriptor at (0,-1,0,64)'
	DD	01H
	DD	00H
	DD	0ffffffffH
	DD	00H
	DD	040H
	DD	FLAT:??_R3?$basic_stringbuf@DU?$char_traits@D@std@@V?$allocator@D@2@@std@@8
rdata$r	ENDS
;	COMDAT ??_R1A@?0A@EA@?$_Iosb@H@std@@8
rdata$r	SEGMENT
??_R1A@?0A@EA@?$_Iosb@H@std@@8 DD FLAT:??_R0?AV?$_Iosb@H@std@@@8 ; std::_Iosb<int>::`RTTI Base Class Descriptor at (0,-1,0,64)'
	DD	00H
	DD	00H
	DD	0ffffffffH
	DD	00H
	DD	040H
	DD	FLAT:??_R3?$_Iosb@H@std@@8
rdata$r	ENDS
;	COMDAT ??_R2?$basic_streambuf@DU?$char_traits@D@std@@@std@@8
rdata$r	SEGMENT
??_R2?$basic_streambuf@DU?$char_traits@D@std@@@std@@8 DD FLAT:??_R1A@?0A@EA@?$basic_streambuf@DU?$char_traits@D@std@@@std@@8 ; std::basic_streambuf<char,std::char_traits<char> >::`RTTI Base Class Array'
rdata$r	ENDS
;	COMDAT ??_R0?AV?$basic_ios@DU?$char_traits@D@std@@@std@@@8
data$r	SEGMENT
??_R0?AV?$basic_ios@DU?$char_traits@D@std@@@std@@@8 DD FLAT:??_7type_info@@6B@ ; std::basic_ios<char,std::char_traits<char> > `RTTI Type Descriptor'
	DD	00H
	DB	'.?AV?$basic_ios@DU?$char_traits@D@std@@@std@@', 00H
data$r	ENDS
;	COMDAT ??_R1A@?0A@EA@?$basic_ostream@DU?$char_traits@D@std@@@std@@8
rdata$r	SEGMENT
??_R1A@?0A@EA@?$basic_ostream@DU?$char_traits@D@std@@@std@@8 DD FLAT:??_R0?AV?$basic_ostream@DU?$char_traits@D@std@@@std@@@8 ; std::basic_ostream<char,std::char_traits<char> >::`RTTI Base Class Descriptor at (0,-1,0,64)'
	DD	03H
	DD	00H
	DD	0ffffffffH
	DD	00H
	DD	040H
	DD	FLAT:??_R3?$basic_ostream@DU?$char_traits@D@std@@@std@@8
rdata$r	ENDS
;	COMDAT ??_R1A@?0A@EA@ios_base@std@@8
rdata$r	SEGMENT
??_R1A@?0A@EA@ios_base@std@@8 DD FLAT:??_R0?AVios_base@std@@@8 ; std::ios_base::`RTTI Base Class Descriptor at (0,-1,0,64)'
	DD	01H
	DD	00H
	DD	0ffffffffH
	DD	00H
	DD	040H
	DD	FLAT:??_R3ios_base@std@@8
rdata$r	ENDS
;	COMDAT ??_7?$basic_stringbuf@DU?$char_traits@D@std@@V?$allocator@D@2@@std@@6B@
CONST	SEGMENT
??_7?$basic_stringbuf@DU?$char_traits@D@std@@V?$allocator@D@2@@std@@6B@ DD FLAT:??_R4?$basic_stringbuf@DU?$char_traits@D@std@@V?$allocator@D@2@@std@@6B@ ; std::basic_stringbuf<char,std::char_traits<char>,std::allocator<char> >::`vftable'
	DD	FLAT:??_E?$basic_stringbuf@DU?$char_traits@D@std@@V?$allocator@D@2@@std@@UAEPAXI@Z
	DD	FLAT:?_Lock@?$basic_streambuf@DU?$char_traits@D@std@@@std@@UAEXXZ
	DD	FLAT:?_Unlock@?$basic_streambuf@DU?$char_traits@D@std@@@std@@UAEXXZ
	DD	FLAT:?overflow@?$basic_stringbuf@DU?$char_traits@D@std@@V?$allocator@D@2@@std@@MAEHH@Z
	DD	FLAT:?pbackfail@?$basic_stringbuf@DU?$char_traits@D@std@@V?$allocator@D@2@@std@@MAEHH@Z
	DD	FLAT:?showmanyc@?$basic_streambuf@DU?$char_traits@D@std@@@std@@MAE_JXZ
	DD	FLAT:?underflow@?$basic_stringbuf@DU?$char_traits@D@std@@V?$allocator@D@2@@std@@MAEHXZ
	DD	FLAT:?uflow@?$basic_streambuf@DU?$char_traits@D@std@@@std@@MAEHXZ
	DD	FLAT:?xsgetn@?$basic_streambuf@DU?$char_traits@D@std@@@std@@MAE_JPAD_J@Z
	DD	FLAT:?xsputn@?$basic_streambuf@DU?$char_traits@D@std@@@std@@MAE_JPBD_J@Z
	DD	FLAT:?seekoff@?$basic_stringbuf@DU?$char_traits@D@std@@V?$allocator@D@2@@std@@MAE?AV?$fpos@U_Mbstatet@@@2@_JHH@Z
	DD	FLAT:?seekpos@?$basic_stringbuf@DU?$char_traits@D@std@@V?$allocator@D@2@@std@@MAE?AV?$fpos@U_Mbstatet@@@2@V32@H@Z
	DD	FLAT:?setbuf@?$basic_streambuf@DU?$char_traits@D@std@@@std@@MAEPAV12@PAD_J@Z
	DD	FLAT:?sync@?$basic_streambuf@DU?$char_traits@D@std@@@std@@MAEHXZ
	DD	FLAT:?imbue@?$basic_streambuf@DU?$char_traits@D@std@@@std@@MAEXABVlocale@2@@Z
CONST	ENDS
;	COMDAT ??_R3?$basic_ios@DU?$char_traits@D@std@@@std@@8
rdata$r	SEGMENT
??_R3?$basic_ios@DU?$char_traits@D@std@@@std@@8 DD 00H	; std::basic_ios<char,std::char_traits<char> >::`RTTI Class Hierarchy Descriptor'
	DD	00H
	DD	03H
	DD	FLAT:??_R2?$basic_ios@DU?$char_traits@D@std@@@std@@8
rdata$r	ENDS
;	COMDAT ??_R0?AV?$basic_ostringstream@DU?$char_traits@D@std@@V?$allocator@D@2@@std@@@8
data$r	SEGMENT
??_R0?AV?$basic_ostringstream@DU?$char_traits@D@std@@V?$allocator@D@2@@std@@@8 DD FLAT:??_7type_info@@6B@ ; std::basic_ostringstream<char,std::char_traits<char>,std::allocator<char> > `RTTI Type Descriptor'
	DD	00H
	DB	'.?AV?$basic_ostringstream@DU?$char_traits@D@std@@V?$allo'
	DB	'cator@D@2@@std@@', 00H
data$r	ENDS
;	COMDAT ??_R2?$basic_ostream@DU?$char_traits@D@std@@@std@@8
rdata$r	SEGMENT
??_R2?$basic_ostream@DU?$char_traits@D@std@@@std@@8 DD FLAT:??_R1A@?0A@EA@?$basic_ostream@DU?$char_traits@D@std@@@std@@8 ; std::basic_ostream<char,std::char_traits<char> >::`RTTI Base Class Array'
	DD	FLAT:??_R1A@A@3FA@?$basic_ios@DU?$char_traits@D@std@@@std@@8
	DD	FLAT:??_R1A@A@3EA@ios_base@std@@8
	DD	FLAT:??_R17A@3EA@?$_Iosb@H@std@@8
rdata$r	ENDS
;	COMDAT ??_R3?$basic_stringbuf@DU?$char_traits@D@std@@V?$allocator@D@2@@std@@8
rdata$r	SEGMENT
??_R3?$basic_stringbuf@DU?$char_traits@D@std@@V?$allocator@D@2@@std@@8 DD 00H ; std::basic_stringbuf<char,std::char_traits<char>,std::allocator<char> >::`RTTI Class Hierarchy Descriptor'
	DD	00H
	DD	02H
	DD	FLAT:??_R2?$basic_stringbuf@DU?$char_traits@D@std@@V?$allocator@D@2@@std@@8
rdata$r	ENDS
;	COMDAT ??_R1A@?0A@EA@?$basic_ostringstream@DU?$char_traits@D@std@@V?$allocator@D@2@@std@@8
rdata$r	SEGMENT
??_R1A@?0A@EA@?$basic_ostringstream@DU?$char_traits@D@std@@V?$allocator@D@2@@std@@8 DD FLAT:??_R0?AV?$basic_ostringstream@DU?$char_traits@D@std@@V?$allocator@D@2@@std@@@8 ; std::basic_ostringstream<char,std::char_traits<char>,std::allocator<char> >::`RTTI Base Class Descriptor at (0,-1,0,64)'
	DD	04H
	DD	00H
	DD	0ffffffffH
	DD	00H
	DD	040H
	DD	FLAT:??_R3?$basic_ostringstream@DU?$char_traits@D@std@@V?$allocator@D@2@@std@@8
rdata$r	ENDS
;	COMDAT ??_R0?AV?$basic_streambuf@DU?$char_traits@D@std@@@std@@@8
data$r	SEGMENT
??_R0?AV?$basic_streambuf@DU?$char_traits@D@std@@@std@@@8 DD FLAT:??_7type_info@@6B@ ; std::basic_streambuf<char,std::char_traits<char> > `RTTI Type Descriptor'
	DD	00H
	DB	'.?AV?$basic_streambuf@DU?$char_traits@D@std@@@std@@', 00H
data$r	ENDS
;	COMDAT ??_R0?AV?$_Iosb@H@std@@@8
data$r	SEGMENT
??_R0?AV?$_Iosb@H@std@@@8 DD FLAT:??_7type_info@@6B@	; std::_Iosb<int> `RTTI Type Descriptor'
	DD	00H
	DB	'.?AV?$_Iosb@H@std@@', 00H
data$r	ENDS
;	COMDAT ??_R1A@?0A@EA@?$basic_streambuf@DU?$char_traits@D@std@@@std@@8
rdata$r	SEGMENT
??_R1A@?0A@EA@?$basic_streambuf@DU?$char_traits@D@std@@@std@@8 DD FLAT:??_R0?AV?$basic_streambuf@DU?$char_traits@D@std@@@std@@@8 ; std::basic_streambuf<char,std::char_traits<char> >::`RTTI Base Class Descriptor at (0,-1,0,64)'
	DD	00H
	DD	00H
	DD	0ffffffffH
	DD	00H
	DD	040H
	DD	FLAT:??_R3?$basic_streambuf@DU?$char_traits@D@std@@@std@@8
rdata$r	ENDS
;	COMDAT ??_R17A@3EA@?$_Iosb@H@std@@8
rdata$r	SEGMENT
??_R17A@3EA@?$_Iosb@H@std@@8 DD FLAT:??_R0?AV?$_Iosb@H@std@@@8 ; std::_Iosb<int>::`RTTI Base Class Descriptor at (8,0,4,64)'
	DD	00H
	DD	08H
	DD	00H
	DD	04H
	DD	040H
	DD	FLAT:??_R3?$_Iosb@H@std@@8
rdata$r	ENDS
;	COMDAT ??_R3?$basic_ostringstream@DU?$char_traits@D@std@@V?$allocator@D@2@@std@@8
rdata$r	SEGMENT
??_R3?$basic_ostringstream@DU?$char_traits@D@std@@V?$allocator@D@2@@std@@8 DD 00H ; std::basic_ostringstream<char,std::char_traits<char>,std::allocator<char> >::`RTTI Class Hierarchy Descriptor'
	DD	00H
	DD	05H
	DD	FLAT:??_R2?$basic_ostringstream@DU?$char_traits@D@std@@V?$allocator@D@2@@std@@8
rdata$r	ENDS
;	COMDAT ??_R2?$basic_stringbuf@DU?$char_traits@D@std@@V?$allocator@D@2@@std@@8
rdata$r	SEGMENT
??_R2?$basic_stringbuf@DU?$char_traits@D@std@@V?$allocator@D@2@@std@@8 DD FLAT:??_R1A@?0A@EA@?$basic_stringbuf@DU?$char_traits@D@std@@V?$allocator@D@2@@std@@8 ; std::basic_stringbuf<char,std::char_traits<char>,std::allocator<char> >::`RTTI Base Class Array'
	DD	FLAT:??_R1A@?0A@EA@?$basic_streambuf@DU?$char_traits@D@std@@@std@@8
rdata$r	ENDS
;	COMDAT ??_R0?AVios_base@std@@@8
data$r	SEGMENT
??_R0?AVios_base@std@@@8 DD FLAT:??_7type_info@@6B@	; std::ios_base `RTTI Type Descriptor'
	DD	00H
	DB	'.?AVios_base@std@@', 00H
data$r	ENDS
;	COMDAT ??_R0?AV?$basic_stringbuf@DU?$char_traits@D@std@@V?$allocator@D@2@@std@@@8
data$r	SEGMENT
??_R0?AV?$basic_stringbuf@DU?$char_traits@D@std@@V?$allocator@D@2@@std@@@8 DD FLAT:??_7type_info@@6B@ ; std::basic_stringbuf<char,std::char_traits<char>,std::allocator<char> > `RTTI Type Descriptor'
	DD	00H
	DB	'.?AV?$basic_stringbuf@DU?$char_traits@D@std@@V?$allocato'
	DB	'r@D@2@@std@@', 00H
data$r	ENDS
;	COMDAT ??_7?$basic_ostringstream@DU?$char_traits@D@std@@V?$allocator@D@2@@std@@6B@
CONST	SEGMENT
??_7?$basic_ostringstream@DU?$char_traits@D@std@@V?$allocator@D@2@@std@@6B@ DD FLAT:??_R4?$basic_ostringstream@DU?$char_traits@D@std@@V?$allocator@D@2@@std@@6B@ ; std::basic_ostringstream<char,std::char_traits<char>,std::allocator<char> >::`vftable'
	DD	FLAT:??_E?$basic_ostringstream@DU?$char_traits@D@std@@V?$allocator@D@2@@std@@$4PPPPPPPM@A@AEPAXI@Z
CONST	ENDS
;	COMDAT ??_R4?$basic_ostringstream@DU?$char_traits@D@std@@V?$allocator@D@2@@std@@6B@
rdata$r	SEGMENT
??_R4?$basic_ostringstream@DU?$char_traits@D@std@@V?$allocator@D@2@@std@@6B@ DD 00H ; std::basic_ostringstream<char,std::char_traits<char>,std::allocator<char> >::`RTTI Complete Object Locator'
	DD	050H
	DD	04H
	DD	FLAT:??_R0?AV?$basic_ostringstream@DU?$char_traits@D@std@@V?$allocator@D@2@@std@@@8
	DD	FLAT:??_R3?$basic_ostringstream@DU?$char_traits@D@std@@V?$allocator@D@2@@std@@8
rdata$r	ENDS
;	COMDAT ??_C@_01CLKCMJKC@?5?$AA@
CONST	SEGMENT
??_C@_01CLKCMJKC@?5?$AA@ DB ' ', 00H			; `string'
CONST	ENDS
;	COMDAT ??_C@_02DHOGEDBE@?5?$FN?$AA@
CONST	SEGMENT
??_C@_02DHOGEDBE@?5?$FN?$AA@ DB ' ]', 00H		; `string'
CONST	ENDS
;	COMDAT ??_C@_02KEGNLNML@?0?5?$AA@
CONST	SEGMENT
??_C@_02KEGNLNML@?0?5?$AA@ DB ', ', 00H			; `string'
CONST	ENDS
;	COMDAT ??_C@_02PFNDMDBO@?$FL?5?$AA@
CONST	SEGMENT
??_C@_02PFNDMDBO@?$FL?5?$AA@ DB '[ ', 00H		; `string'
CONST	ENDS
;	COMDAT ??_C@_02GPECMEKF@?$FL?$FN?$AA@
CONST	SEGMENT
??_C@_02GPECMEKF@?$FL?$FN?$AA@ DB '[]', 00H		; `string'
CONST	ENDS
;	COMDAT ??_C@_03MCPBMLDJ@?5?3?5?$AA@
CONST	SEGMENT
??_C@_03MCPBMLDJ@?5?3?5?$AA@ DB ' : ', 00H		; `string'
CONST	ENDS
;	COMDAT ??_C@_02MCILKGOH@?$HL?$HN?$AA@
CONST	SEGMENT
??_C@_02MCILKGOH@?$HL?$HN?$AA@ DB '{}', 00H		; `string'
CONST	ENDS
;	COMDAT ??_C@_01CELHOKLL@?$HN?$AA@
CONST	SEGMENT
??_C@_01CELHOKLL@?$HN?$AA@ DB '}', 00H			; `string'
CONST	ENDS
;	COMDAT ??_C@_01JLIPDDHJ@?3?$AA@
CONST	SEGMENT
??_C@_01JLIPDDHJ@?3?$AA@ DB ':', 00H			; `string'
CONST	ENDS
;	COMDAT ??_C@_01HCONENDN@?$HL?$AA@
CONST	SEGMENT
??_C@_01HCONENDN@?$HL?$AA@ DB '{', 00H			; `string'
CONST	ENDS
;	COMDAT ??_C@_01LBDDMOBJ@?$FN?$AA@
CONST	SEGMENT
??_C@_01LBDDMOBJ@?$FN?$AA@ DB ']', 00H			; `string'
CONST	ENDS
;	COMDAT ??_C@_01IHBHIGKO@?0?$AA@
CONST	SEGMENT
??_C@_01IHBHIGKO@?0?$AA@ DB ',', 00H			; `string'
CONST	ENDS
;	COMDAT ??_C@_01OHGJGJJP@?$FL?$AA@
CONST	SEGMENT
??_C@_01OHGJGJJP@?$FL?$AA@ DB '[', 00H			; `string'
CONST	ENDS
;	COMDAT ??_C@_04MLLLIHIP@null?$AA@
CONST	SEGMENT
??_C@_04MLLLIHIP@null?$AA@ DB 'null', 00H		; `string'
CONST	ENDS
;	COMDAT ??_C@_02DHFAHMIK@?2u?$AA@
CONST	SEGMENT
??_C@_02DHFAHMIK@?2u?$AA@ DB '\u', 00H			; `string'
CONST	ENDS
;	COMDAT ??_C@_02COELENML@?2t?$AA@
CONST	SEGMENT
??_C@_02COELENML@?2t?$AA@ DB '\t', 00H			; `string'
CONST	ENDS
;	COMDAT ??_C@_02HIBBOKEN@?2r?$AA@
CONST	SEGMENT
??_C@_02HIBBOKEN@?2r?$AA@ DB '\r', 00H			; `string'
CONST	ENDS
;	COMDAT ??_C@_02JOGGLHBA@?2n?$AA@
CONST	SEGMENT
??_C@_02JOGGLHBA@?2n?$AA@ DB '\n', 00H			; `string'
CONST	ENDS
;	COMDAT ??_C@_02FGLPDNBI@?2f?$AA@
CONST	SEGMENT
??_C@_02FGLPDNBI@?2f?$AA@ DB '\f', 00H			; `string'
CONST	ENDS
;	COMDAT ??_C@_02DCNDPIBM@?2b?$AA@
CONST	SEGMENT
??_C@_02DCNDPIBM@?2b?$AA@ DB '\b', 00H			; `string'
CONST	ENDS
;	COMDAT ??_C@_02HDBGODGB@?2?2?$AA@
CONST	SEGMENT
??_C@_02HDBGODGB@?2?2?$AA@ DB '\\', 00H			; `string'
CONST	ENDS
;	COMDAT ??_C@_02MCKKLHBJ@?2?$CC?$AA@
CONST	SEGMENT
??_C@_02MCKKLHBJ@?2?$CC?$AA@ DB '\"', 00H		; `string'
CONST	ENDS
;	COMDAT ??_C@_01BJJEKLCA@?$CC?$AA@
CONST	SEGMENT
??_C@_01BJJEKLCA@?$CC?$AA@ DB '"', 00H			; `string'
CONST	ENDS
;	COMDAT ??_C@_07FKPPGBGM@?$CC?2?$AI?$AM?6?$AN?7?$AA@
CONST	SEGMENT
??_C@_07FKPPGBGM@?$CC?2?$AI?$AM?6?$AN?7?$AA@ DB '"\', 08H, 0cH, 0aH, 0dH, 09H
	DB	00H						; `string'
CONST	ENDS
;	COMDAT ??_C@_06ECBCCLMB@?$CF?$CD?416g?$AA@
CONST	SEGMENT
??_C@_06ECBCCLMB@?$CF?$CD?416g?$AA@ DB '%#.16g', 00H	; `string'
CONST	ENDS
;	COMDAT ??_C@_02LMMGGCAJ@?3?5?$AA@
CONST	SEGMENT
??_C@_02LMMGGCAJ@?3?5?$AA@ DB ': ', 00H			; `string'
PUBLIC	??_E?$basic_ostringstream@DU?$char_traits@D@std@@V?$allocator@D@2@@std@@$4PPPPPPPM@A@AEPAXI@Z ; std::basic_ostringstream<char,std::char_traits<char>,std::allocator<char> >::`vector deleting destructor'
PUBLIC	??0?$_Fillobj@D@std@@QAE@D@Z			; std::_Fillobj<char>::_Fillobj<char>
PUBLIC	??$addressof@$$CBV?$basic_string@DU?$char_traits@D@std@@V?$allocator@D@2@@std@@@std@@YAPBV?$basic_string@DU?$char_traits@D@std@@V?$allocator@D@2@@0@ABV10@@Z ; std::addressof<std::basic_string<char,std::char_traits<char>,std::allocator<char> > const >
PUBLIC	??$?6DU?$char_traits@D@std@@V?$allocator@D@1@@std@@YAAAV?$basic_ostream@DU?$char_traits@D@std@@@0@AAV10@ABV?$basic_string@DU?$char_traits@D@std@@V?$allocator@D@2@@0@@Z ; std::operator<<<char,std::char_traits<char>,std::allocator<char> >
PUBLIC	??$?6DU?$char_traits@D@std@@_J@std@@YAAAV?$basic_ostream@DU?$char_traits@D@std@@@0@AAV10@ABU?$_Smanip@_J@0@@Z ; std::operator<<<char,std::char_traits<char>,__int64>
PUBLIC	??$?6DU?$char_traits@D@std@@D@std@@YAAAV?$basic_ostream@DU?$char_traits@D@std@@@0@AAV10@ABU?$_Fillobj@D@0@@Z ; std::operator<<<char,std::char_traits<char>,char>
PUBLIC	??$setfill@D@std@@YA?AU?$_Fillobj@D@0@D@Z	; std::setfill<char>
PUBLIC	??$?6U?$char_traits@D@std@@@std@@YAAAV?$basic_ostream@DU?$char_traits@D@std@@@0@AAV10@D@Z ; std::operator<<<std::char_traits<char> >
PUBLIC	??$?6U?$char_traits@D@std@@@std@@YAAAV?$basic_ostream@DU?$char_traits@D@std@@@0@AAV10@PBD@Z ; std::operator<<<std::char_traits<char> >
PUBLIC	?_Init@?$basic_stringbuf@DU?$char_traits@D@std@@V?$allocator@D@2@@std@@IAEXPBDIH@Z ; std::basic_stringbuf<char,std::char_traits<char>,std::allocator<char> >::_Init
PUBLIC	?_Getstate@?$basic_stringbuf@DU?$char_traits@D@std@@V?$allocator@D@2@@std@@AAEHH@Z ; std::basic_stringbuf<char,std::char_traits<char>,std::allocator<char> >::_Getstate
PUBLIC	??0_Sentry_base@?$basic_ostream@DU?$char_traits@D@std@@@std@@QAE@AAV12@@Z ; std::basic_ostream<char,std::char_traits<char> >::_Sentry_base::_Sentry_base
PUBLIC	??1_Sentry_base@?$basic_ostream@DU?$char_traits@D@std@@@std@@QAE@XZ ; std::basic_ostream<char,std::char_traits<char> >::_Sentry_base::~_Sentry_base
PUBLIC	??0?$fpos@U_Mbstatet@@@std@@QAE@_J@Z		; std::fpos<_Mbstatet>::fpos<_Mbstatet>
PUBLIC	??B?$fpos@U_Mbstatet@@@std@@QBE_JXZ		; std::fpos<_Mbstatet>::operator __int64
PUBLIC	??0?$basic_stringbuf@DU?$char_traits@D@std@@V?$allocator@D@2@@std@@QAE@H@Z ; std::basic_stringbuf<char,std::char_traits<char>,std::allocator<char> >::basic_stringbuf<char,std::char_traits<char>,std::allocator<char> >
PUBLIC	?str@?$basic_stringbuf@DU?$char_traits@D@std@@V?$allocator@D@2@@std@@QBE?AV?$basic_string@DU?$char_traits@D@std@@V?$allocator@D@2@@2@XZ ; std::basic_stringbuf<char,std::char_traits<char>,std::allocator<char> >::str
PUBLIC	?_Tidy@?$basic_stringbuf@DU?$char_traits@D@std@@V?$allocator@D@2@@std@@IAEXXZ ; std::basic_stringbuf<char,std::char_traits<char>,std::allocator<char> >::_Tidy
PUBLIC	?assign@?$basic_string@DU?$char_traits@D@std@@V?$allocator@D@2@@std@@QAEAAV12@ID@Z ; std::basic_string<char,std::char_traits<char>,std::allocator<char> >::assign
PUBLIC	??0sentry@?$basic_ostream@DU?$char_traits@D@std@@@std@@QAE@AAV12@@Z ; std::basic_ostream<char,std::char_traits<char> >::sentry::sentry
PUBLIC	??1sentry@?$basic_ostream@DU?$char_traits@D@std@@@std@@QAE@XZ ; std::basic_ostream<char,std::char_traits<char> >::sentry::~sentry
PUBLIC	??Bsentry@?$basic_ostream@DU?$char_traits@D@std@@@std@@QBE_NXZ ; std::basic_ostream<char,std::char_traits<char> >::sentry::operator bool
PUBLIC	??0?$_Vector_iterator@V?$_Vector_val@U?$_Simple_types@V?$basic_string@DU?$char_traits@D@std@@V?$allocator@D@2@@std@@@std@@@std@@@std@@QAE@PAV?$basic_string@DU?$char_traits@D@std@@V?$allocator@D@2@@1@PBU_Container_base0@1@@Z ; std::_Vector_iterator<std::_Vector_val<std::_Simple_types<std::basic_string<char,std::char_traits<char>,std::allocator<char> > > > >::_Vector_iterator<std::_Vector_val<std::_Simple_types<std::basic_string<char,std::char_traits<char>,std::allocator<char> > > > >
PUBLIC	??D?$_Vector_const_iterator@V?$_Vector_val@U?$_Simple_types@V?$basic_string@DU?$char_traits@D@std@@V?$allocator@D@2@@std@@@std@@@std@@@std@@QBEABV?$basic_string@DU?$char_traits@D@std@@V?$allocator@D@2@@1@XZ ; std::_Vector_const_iterator<std::_Vector_val<std::_Simple_types<std::basic_string<char,std::char_traits<char>,std::allocator<char> > > > >::operator*
PUBLIC	??E?$_Vector_const_iterator@V?$_Vector_val@U?$_Simple_types@V?$basic_string@DU?$char_traits@D@std@@V?$allocator@D@2@@std@@@std@@@std@@@std@@QAEAAV01@XZ ; std::_Vector_const_iterator<std::_Vector_val<std::_Simple_types<std::basic_string<char,std::char_traits<char>,std::allocator<char> > > > >::operator++
PUBLIC	?_Compat@?$_Vector_const_iterator@V?$_Vector_val@U?$_Simple_types@V?$basic_string@DU?$char_traits@D@std@@V?$allocator@D@2@@std@@@std@@@std@@@std@@QBEXABV12@@Z ; std::_Vector_const_iterator<std::_Vector_val<std::_Simple_types<std::basic_string<char,std::char_traits<char>,std::allocator<char> > > > >::_Compat
PUBLIC	??_G?$basic_stringbuf@DU?$char_traits@D@std@@V?$allocator@D@2@@std@@UAEPAXI@Z ; std::basic_stringbuf<char,std::char_traits<char>,std::allocator<char> >::`scalar deleting destructor'
PUBLIC	??_G?$basic_ostringstream@DU?$char_traits@D@std@@V?$allocator@D@2@@std@@UAEPAXI@Z ; std::basic_ostringstream<char,std::char_traits<char>,std::allocator<char> >::`scalar deleting destructor'
PUBLIC	??1?$basic_stringbuf@DU?$char_traits@D@std@@V?$allocator@D@2@@std@@UAE@XZ ; std::basic_stringbuf<char,std::char_traits<char>,std::allocator<char> >::~basic_stringbuf<char,std::char_traits<char>,std::allocator<char> >
PUBLIC	?overflow@?$basic_stringbuf@DU?$char_traits@D@std@@V?$allocator@D@2@@std@@MAEHH@Z ; std::basic_stringbuf<char,std::char_traits<char>,std::allocator<char> >::overflow
PUBLIC	?pbackfail@?$basic_stringbuf@DU?$char_traits@D@std@@V?$allocator@D@2@@std@@MAEHH@Z ; std::basic_stringbuf<char,std::char_traits<char>,std::allocator<char> >::pbackfail
PUBLIC	?underflow@?$basic_stringbuf@DU?$char_traits@D@std@@V?$allocator@D@2@@std@@MAEHXZ ; std::basic_stringbuf<char,std::char_traits<char>,std::allocator<char> >::underflow
PUBLIC	?seekoff@?$basic_stringbuf@DU?$char_traits@D@std@@V?$allocator@D@2@@std@@MAE?AV?$fpos@U_Mbstatet@@@2@_JHH@Z ; std::basic_stringbuf<char,std::char_traits<char>,std::allocator<char> >::seekoff
PUBLIC	?seekpos@?$basic_stringbuf@DU?$char_traits@D@std@@V?$allocator@D@2@@std@@MAE?AV?$fpos@U_Mbstatet@@@2@V32@H@Z ; std::basic_stringbuf<char,std::char_traits<char>,std::allocator<char> >::seekpos
PUBLIC	??0?$basic_ostringstream@DU?$char_traits@D@std@@V?$allocator@D@2@@std@@QAE@H@Z ; std::basic_ostringstream<char,std::char_traits<char>,std::allocator<char> >::basic_ostringstream<char,std::char_traits<char>,std::allocator<char> >
PUBLIC	??1?$basic_ostringstream@DU?$char_traits@D@std@@V?$allocator@D@2@@std@@UAE@XZ ; std::basic_ostringstream<char,std::char_traits<char>,std::allocator<char> >::~basic_ostringstream<char,std::char_traits<char>,std::allocator<char> >
PUBLIC	?str@?$basic_ostringstream@DU?$char_traits@D@std@@V?$allocator@D@2@@std@@QBE?AV?$basic_string@DU?$char_traits@D@std@@V?$allocator@D@2@@2@XZ ; std::basic_ostringstream<char,std::char_traits<char>,std::allocator<char> >::str
PUBLIC	??0?$basic_string@DU?$char_traits@D@std@@V?$allocator@D@2@@std@@QAE@PBDI@Z ; std::basic_string<char,std::char_traits<char>,std::allocator<char> >::basic_string<char,std::char_traits<char>,std::allocator<char> >
PUBLIC	??0?$basic_string@DU?$char_traits@D@std@@V?$allocator@D@2@@std@@QAE@ID@Z ; std::basic_string<char,std::char_traits<char>,std::allocator<char> >::basic_string<char,std::char_traits<char>,std::allocator<char> >
PUBLIC	?begin@?$vector@V?$basic_string@DU?$char_traits@D@std@@V?$allocator@D@2@@std@@V?$allocator@V?$basic_string@DU?$char_traits@D@std@@V?$allocator@D@2@@std@@@2@@std@@QAE?AV?$_Vector_iterator@V?$_Vector_val@U?$_Simple_types@V?$basic_string@DU?$char_traits@D@std@@V?$allocator@D@2@@std@@@std@@@std@@@2@XZ ; std::vector<std::basic_string<char,std::char_traits<char>,std::allocator<char> >,std::allocator<std::basic_string<char,std::char_traits<char>,std::allocator<char> > > >::begin
PUBLIC	?end@?$vector@V?$basic_string@DU?$char_traits@D@std@@V?$allocator@D@2@@std@@V?$allocator@V?$basic_string@DU?$char_traits@D@std@@V?$allocator@D@2@@std@@@2@@std@@QAE?AV?$_Vector_iterator@V?$_Vector_val@U?$_Simple_types@V?$basic_string@DU?$char_traits@D@std@@V?$allocator@D@2@@std@@@std@@@std@@@2@XZ ; std::vector<std::basic_string<char,std::char_traits<char>,std::allocator<char> >,std::allocator<std::basic_string<char,std::char_traits<char>,std::allocator<char> > > >::end
PUBLIC	??A?$vector@V?$basic_string@DU?$char_traits@D@std@@V?$allocator@D@2@@std@@V?$allocator@V?$basic_string@DU?$char_traits@D@std@@V?$allocator@D@2@@std@@@2@@std@@QAEAAV?$basic_string@DU?$char_traits@D@std@@V?$allocator@D@2@@1@I@Z ; std::vector<std::basic_string<char,std::char_traits<char>,std::allocator<char> >,std::allocator<std::basic_string<char,std::char_traits<char>,std::allocator<char> > > >::operator[]
PUBLIC	?push_back@?$vector@V?$basic_string@DU?$char_traits@D@std@@V?$allocator@D@2@@std@@V?$allocator@V?$basic_string@DU?$char_traits@D@std@@V?$allocator@D@2@@std@@@2@@std@@QAEXABV?$basic_string@DU?$char_traits@D@std@@V?$allocator@D@2@@2@@Z ; std::vector<std::basic_string<char,std::char_traits<char>,std::allocator<char> >,std::allocator<std::basic_string<char,std::char_traits<char>,std::allocator<char> > > >::push_back
PUBLIC	??D?$_Vector_iterator@V?$_Vector_val@U?$_Simple_types@V?$basic_string@DU?$char_traits@D@std@@V?$allocator@D@2@@std@@@std@@@std@@@std@@QBEAAV?$basic_string@DU?$char_traits@D@std@@V?$allocator@D@2@@1@XZ ; std::_Vector_iterator<std::_Vector_val<std::_Simple_types<std::basic_string<char,std::char_traits<char>,std::allocator<char> > > > >::operator*
PUBLIC	??E?$_Vector_iterator@V?$_Vector_val@U?$_Simple_types@V?$basic_string@DU?$char_traits@D@std@@V?$allocator@D@2@@std@@@std@@@std@@@std@@QAEAAV01@XZ ; std::_Vector_iterator<std::_Vector_val<std::_Simple_types<std::basic_string<char,std::char_traits<char>,std::allocator<char> > > > >::operator++
PUBLIC	??8?$_Vector_const_iterator@V?$_Vector_val@U?$_Simple_types@V?$basic_string@DU?$char_traits@D@std@@V?$allocator@D@2@@std@@@std@@@std@@@std@@QBE_NABV01@@Z ; std::_Vector_const_iterator<std::_Vector_val<std::_Simple_types<std::basic_string<char,std::char_traits<char>,std::allocator<char> > > > >::operator==
PUBLIC	??9?$_Vector_const_iterator@V?$_Vector_val@U?$_Simple_types@V?$basic_string@DU?$char_traits@D@std@@V?$allocator@D@2@@std@@@std@@@std@@@std@@QBE_NABV01@@Z ; std::_Vector_const_iterator<std::_Vector_val<std::_Simple_types<std::basic_string<char,std::char_traits<char>,std::allocator<char> > > > >::operator!=
PUBLIC	?normalizeEOL@StyledStreamWriter@Json@@CA?AV?$basic_string@DU?$char_traits@D@std@@V?$allocator@D@2@@std@@ABV34@@Z ; Json::StyledStreamWriter::normalizeEOL
PUBLIC	?hasCommentForValue@StyledStreamWriter@Json@@AAE_NABVValue@2@@Z ; Json::StyledStreamWriter::hasCommentForValue
PUBLIC	?writeCommentAfterValueOnSameLine@StyledStreamWriter@Json@@AAEXABVValue@2@@Z ; Json::StyledStreamWriter::writeCommentAfterValueOnSameLine
PUBLIC	?writeCommentBeforeValue@StyledStreamWriter@Json@@AAEXABVValue@2@@Z ; Json::StyledStreamWriter::writeCommentBeforeValue
PUBLIC	?unindent@StyledStreamWriter@Json@@AAEXXZ	; Json::StyledStreamWriter::unindent
PUBLIC	?indent@StyledStreamWriter@Json@@AAEXXZ		; Json::StyledStreamWriter::indent
PUBLIC	?writeWithIndent@StyledStreamWriter@Json@@AAEXABV?$basic_string@DU?$char_traits@D@std@@V?$allocator@D@2@@std@@@Z ; Json::StyledStreamWriter::writeWithIndent
PUBLIC	?writeIndent@StyledStreamWriter@Json@@AAEXXZ	; Json::StyledStreamWriter::writeIndent
PUBLIC	?pushValue@StyledStreamWriter@Json@@AAEXABV?$basic_string@DU?$char_traits@D@std@@V?$allocator@D@2@@std@@@Z ; Json::StyledStreamWriter::pushValue
PUBLIC	?isMultineArray@StyledStreamWriter@Json@@AAE_NABVValue@2@@Z ; Json::StyledStreamWriter::isMultineArray
PUBLIC	?writeArrayValue@StyledStreamWriter@Json@@AAEXABVValue@2@@Z ; Json::StyledStreamWriter::writeArrayValue
PUBLIC	?writeValue@StyledStreamWriter@Json@@AAEXABVValue@2@@Z ; Json::StyledStreamWriter::writeValue
PUBLIC	?write@StyledStreamWriter@Json@@QAEXAAV?$basic_ostream@DU?$char_traits@D@std@@@std@@ABVValue@2@@Z ; Json::StyledStreamWriter::write
PUBLIC	?normalizeEOL@StyledWriter@Json@@CA?AV?$basic_string@DU?$char_traits@D@std@@V?$allocator@D@2@@std@@ABV34@@Z ; Json::StyledWriter::normalizeEOL
PUBLIC	?hasCommentForValue@StyledWriter@Json@@AAE_NABVValue@2@@Z ; Json::StyledWriter::hasCommentForValue
PUBLIC	?writeCommentAfterValueOnSameLine@StyledWriter@Json@@AAEXABVValue@2@@Z ; Json::StyledWriter::writeCommentAfterValueOnSameLine
PUBLIC	?writeCommentBeforeValue@StyledWriter@Json@@AAEXABVValue@2@@Z ; Json::StyledWriter::writeCommentBeforeValue
PUBLIC	?unindent@StyledWriter@Json@@AAEXXZ		; Json::StyledWriter::unindent
PUBLIC	?indent@StyledWriter@Json@@AAEXXZ		; Json::StyledWriter::indent
PUBLIC	?writeWithIndent@StyledWriter@Json@@AAEXABV?$basic_string@DU?$char_traits@D@std@@V?$allocator@D@2@@std@@@Z ; Json::StyledWriter::writeWithIndent
PUBLIC	?writeIndent@StyledWriter@Json@@AAEXXZ		; Json::StyledWriter::writeIndent
PUBLIC	?pushValue@StyledWriter@Json@@AAEXABV?$basic_string@DU?$char_traits@D@std@@V?$allocator@D@2@@std@@@Z ; Json::StyledWriter::pushValue
PUBLIC	?isMultineArray@StyledWriter@Json@@AAE_NABVValue@2@@Z ; Json::StyledWriter::isMultineArray
PUBLIC	?writeArrayValue@StyledWriter@Json@@AAEXABVValue@2@@Z ; Json::StyledWriter::writeArrayValue
PUBLIC	?writeValue@StyledWriter@Json@@AAEXABVValue@2@@Z ; Json::StyledWriter::writeValue
PUBLIC	?writeValue@FastWriter@Json@@AAEXABVValue@2@@Z	; Json::FastWriter::writeValue
PUBLIC	?enableYAMLCompatibility@FastWriter@Json@@QAEXXZ ; Json::FastWriter::enableYAMLCompatibility
PUBLIC	??0FastWriter@Json@@QAE@XZ			; Json::FastWriter::FastWriter
PUBLIC	??_D?$basic_ostringstream@DU?$char_traits@D@std@@V?$allocator@D@2@@std@@QAEXXZ ; std::basic_ostringstream<char,std::char_traits<char>,std::allocator<char> >::`vbase destructor'
PUBLIC	?valueToQuotedString@Json@@YA?AV?$basic_string@DU?$char_traits@D@std@@V?$allocator@D@2@@std@@PBD@Z ; Json::valueToQuotedString
PUBLIC	?valueToString@Json@@YA?AV?$basic_string@DU?$char_traits@D@std@@V?$allocator@D@2@@std@@_N@Z ; Json::valueToString
PUBLIC	?valueToString@Json@@YA?AV?$basic_string@DU?$char_traits@D@std@@V?$allocator@D@2@@std@@N@Z ; Json::valueToString
PUBLIC	?valueToString@Json@@YA?AV?$basic_string@DU?$char_traits@D@std@@V?$allocator@D@2@@std@@I@Z ; Json::valueToString
PUBLIC	?valueToString@Json@@YA?AV?$basic_string@DU?$char_traits@D@std@@V?$allocator@D@2@@std@@H@Z ; Json::valueToString
PUBLIC	?uppercase@std@@YAAAVios_base@1@AAV21@@Z	; std::uppercase
PUBLIC	?hex@std@@YAAAVios_base@1@AAV21@@Z		; std::hex
PUBLIC	?not_eof@?$char_traits@D@std@@SAHABH@Z		; std::char_traits<char>::not_eof
PUBLIC	?eq@?$char_traits@D@std@@SA_NABD0@Z		; std::char_traits<char>::eq
PUBLIC	_sprintf_s
PUBLIC	__vsprintf_s_l
PUBLIC	?write@FastWriter@Json@@UAE?AV?$basic_string@DU?$char_traits@D@std@@V?$allocator@D@2@@std@@ABVValue@2@@Z ; Json::FastWriter::write
PUBLIC	??0StyledStreamWriter@Json@@QAE@V?$basic_string@DU?$char_traits@D@std@@V?$allocator@D@2@@std@@@Z ; Json::StyledStreamWriter::StyledStreamWriter
PUBLIC	??1Writer@Json@@UAE@XZ				; Json::Writer::~Writer
PUBLIC	?write@StyledWriter@Json@@UAE?AV?$basic_string@DU?$char_traits@D@std@@V?$allocator@D@2@@std@@ABVValue@2@@Z ; Json::StyledWriter::write
PUBLIC	??0StyledWriter@Json@@QAE@XZ			; Json::StyledWriter::StyledWriter
EXTRN	??_E?$basic_ostringstream@DU?$char_traits@D@std@@V?$allocator@D@2@@std@@UAEPAXI@Z:PROC ; std::basic_ostringstream<char,std::char_traits<char>,std::allocator<char> >::`vector deleting destructor'
EXTRN	??_E?$basic_stringbuf@DU?$char_traits@D@std@@V?$allocator@D@2@@std@@UAEPAXI@Z:PROC ; std::basic_stringbuf<char,std::char_traits<char>,std::allocator<char> >::`vector deleting destructor'
;	COMDAT xdata$x
xdata$x	SEGMENT
__ehfuncinfo$??0StyledStreamWriter@Json@@QAE@V?$basic_string@DU?$char_traits@D@std@@V?$allocator@D@2@@std@@@Z DD 019930522H
	DD	03H
	DD	FLAT:__unwindtable$??0StyledStreamWriter@Json@@QAE@V?$basic_string@DU?$char_traits@D@std@@V?$allocator@D@2@@std@@@Z
	DD	2 DUP(00H)
	DD	2 DUP(00H)
	DD	00H
	DD	01H
__unwindtable$??0StyledStreamWriter@Json@@QAE@V?$basic_string@DU?$char_traits@D@std@@V?$allocator@D@2@@std@@@Z DD 0ffffffffH
	DD	FLAT:__unwindfunclet$??0StyledStreamWriter@Json@@QAE@V?$basic_string@DU?$char_traits@D@std@@V?$allocator@D@2@@std@@@Z$0
	DD	00H
	DD	FLAT:__unwindfunclet$??0StyledStreamWriter@Json@@QAE@V?$basic_string@DU?$char_traits@D@std@@V?$allocator@D@2@@std@@@Z$1
	DD	01H
	DD	FLAT:__unwindfunclet$??0StyledStreamWriter@Json@@QAE@V?$basic_string@DU?$char_traits@D@std@@V?$allocator@D@2@@std@@@Z$2
xdata$x	ENDS
;	COMDAT xdata$x
xdata$x	SEGMENT
__ehfuncinfo$?valueToQuotedString@Json@@YA?AV?$basic_string@DU?$char_traits@D@std@@V?$allocator@D@2@@std@@PBD@Z DD 019930522H
	DD	08H
	DD	FLAT:__unwindtable$?valueToQuotedString@Json@@YA?AV?$basic_string@DU?$char_traits@D@std@@V?$allocator@D@2@@std@@PBD@Z
	DD	2 DUP(00H)
	DD	2 DUP(00H)
	DD	00H
	DD	01H
	ORG $+4
__unwindtable$?valueToQuotedString@Json@@YA?AV?$basic_string@DU?$char_traits@D@std@@V?$allocator@D@2@@std@@PBD@Z DD 0ffffffffH
	DD	FLAT:__unwindfunclet$?valueToQuotedString@Json@@YA?AV?$basic_string@DU?$char_traits@D@std@@V?$allocator@D@2@@std@@PBD@Z$0
	DD	00H
	DD	FLAT:__unwindfunclet$?valueToQuotedString@Json@@YA?AV?$basic_string@DU?$char_traits@D@std@@V?$allocator@D@2@@std@@PBD@Z$1
	DD	0ffffffffH
	DD	FLAT:__unwindfunclet$?valueToQuotedString@Json@@YA?AV?$basic_string@DU?$char_traits@D@std@@V?$allocator@D@2@@std@@PBD@Z$3
	DD	02H
	DD	FLAT:__unwindfunclet$?valueToQuotedString@Json@@YA?AV?$basic_string@DU?$char_traits@D@std@@V?$allocator@D@2@@std@@PBD@Z$125
	DD	03H
	DD	FLAT:__unwindfunclet$?valueToQuotedString@Json@@YA?AV?$basic_string@DU?$char_traits@D@std@@V?$allocator@D@2@@std@@PBD@Z$126
	DD	04H
	DD	FLAT:__unwindfunclet$?valueToQuotedString@Json@@YA?AV?$basic_string@DU?$char_traits@D@std@@V?$allocator@D@2@@std@@PBD@Z$128
	DD	02H
	DD	FLAT:__unwindfunclet$?valueToQuotedString@Json@@YA?AV?$basic_string@DU?$char_traits@D@std@@V?$allocator@D@2@@std@@PBD@Z$4
	DD	06H
	DD	FLAT:__unwindfunclet$?valueToQuotedString@Json@@YA?AV?$basic_string@DU?$char_traits@D@std@@V?$allocator@D@2@@std@@PBD@Z$5
xdata$x	ENDS
;	COMDAT xdata$x
xdata$x	SEGMENT
__ehfuncinfo$?writeValue@FastWriter@Json@@AAEXABVValue@2@@Z DD 019930522H
	DD	07H
	DD	FLAT:__unwindtable$?writeValue@FastWriter@Json@@AAEXABVValue@2@@Z
	DD	2 DUP(00H)
	DD	2 DUP(00H)
	DD	00H
	DD	01H
__unwindtable$?writeValue@FastWriter@Json@@AAEXABVValue@2@@Z DD 0ffffffffH
	DD	FLAT:__unwindfunclet$?writeValue@FastWriter@Json@@AAEXABVValue@2@@Z$0
	DD	0ffffffffH
	DD	FLAT:__unwindfunclet$?writeValue@FastWriter@Json@@AAEXABVValue@2@@Z$1
	DD	0ffffffffH
	DD	FLAT:__unwindfunclet$?writeValue@FastWriter@Json@@AAEXABVValue@2@@Z$2
	DD	0ffffffffH
	DD	FLAT:__unwindfunclet$?writeValue@FastWriter@Json@@AAEXABVValue@2@@Z$3
	DD	0ffffffffH
	DD	FLAT:__unwindfunclet$?writeValue@FastWriter@Json@@AAEXABVValue@2@@Z$4
	DD	0ffffffffH
	DD	FLAT:__unwindfunclet$?writeValue@FastWriter@Json@@AAEXABVValue@2@@Z$5
	DD	05H
	DD	FLAT:__unwindfunclet$?writeValue@FastWriter@Json@@AAEXABVValue@2@@Z$6
xdata$x	ENDS
;	COMDAT xdata$x
xdata$x	SEGMENT
__ehfuncinfo$?writeValue@StyledWriter@Json@@AAEXABVValue@2@@Z DD 019930522H
	DD	0bH
	DD	FLAT:__unwindtable$?writeValue@StyledWriter@Json@@AAEXABVValue@2@@Z
	DD	2 DUP(00H)
	DD	2 DUP(00H)
	DD	00H
	DD	01H
	ORG $+4
__unwindtable$?writeValue@StyledWriter@Json@@AAEXABVValue@2@@Z DD 0ffffffffH
	DD	FLAT:__unwindfunclet$?writeValue@StyledWriter@Json@@AAEXABVValue@2@@Z$0
	DD	0ffffffffH
	DD	FLAT:__unwindfunclet$?writeValue@StyledWriter@Json@@AAEXABVValue@2@@Z$1
	DD	0ffffffffH
	DD	FLAT:__unwindfunclet$?writeValue@StyledWriter@Json@@AAEXABVValue@2@@Z$2
	DD	0ffffffffH
	DD	FLAT:__unwindfunclet$?writeValue@StyledWriter@Json@@AAEXABVValue@2@@Z$3
	DD	0ffffffffH
	DD	FLAT:__unwindfunclet$?writeValue@StyledWriter@Json@@AAEXABVValue@2@@Z$4
	DD	0ffffffffH
	DD	FLAT:__unwindfunclet$?writeValue@StyledWriter@Json@@AAEXABVValue@2@@Z$5
	DD	0ffffffffH
	DD	FLAT:__unwindfunclet$?writeValue@StyledWriter@Json@@AAEXABVValue@2@@Z$6
	DD	06H
	DD	FLAT:__unwindfunclet$?writeValue@StyledWriter@Json@@AAEXABVValue@2@@Z$7
	DD	06H
	DD	FLAT:__unwindfunclet$?writeValue@StyledWriter@Json@@AAEXABVValue@2@@Z$8
	DD	06H
	DD	FLAT:__unwindfunclet$?writeValue@StyledWriter@Json@@AAEXABVValue@2@@Z$9
	DD	06H
	DD	FLAT:__unwindfunclet$?writeValue@StyledWriter@Json@@AAEXABVValue@2@@Z$10
xdata$x	ENDS
;	COMDAT xdata$x
xdata$x	SEGMENT
__ehfuncinfo$?writeArrayValue@StyledWriter@Json@@AAEXABVValue@2@@Z DD 019930522H
	DD	05H
	DD	FLAT:__unwindtable$?writeArrayValue@StyledWriter@Json@@AAEXABVValue@2@@Z
	DD	2 DUP(00H)
	DD	2 DUP(00H)
	DD	00H
	DD	01H
__unwindtable$?writeArrayValue@StyledWriter@Json@@AAEXABVValue@2@@Z DD 0ffffffffH
	DD	FLAT:__unwindfunclet$?writeArrayValue@StyledWriter@Json@@AAEXABVValue@2@@Z$0
	DD	0ffffffffH
	DD	FLAT:__unwindfunclet$?writeArrayValue@StyledWriter@Json@@AAEXABVValue@2@@Z$1
	DD	0ffffffffH
	DD	FLAT:__unwindfunclet$?writeArrayValue@StyledWriter@Json@@AAEXABVValue@2@@Z$124
	DD	0ffffffffH
	DD	FLAT:__unwindfunclet$?writeArrayValue@StyledWriter@Json@@AAEXABVValue@2@@Z$125
	DD	0ffffffffH
	DD	FLAT:__unwindfunclet$?writeArrayValue@StyledWriter@Json@@AAEXABVValue@2@@Z$2
xdata$x	ENDS
;	COMDAT xdata$x
xdata$x	SEGMENT
__ehfuncinfo$?isMultineArray@StyledWriter@Json@@AAE_NABVValue@2@@Z DD 019930522H
	DD	06H
	DD	FLAT:__unwindtable$?isMultineArray@StyledWriter@Json@@AAE_NABVValue@2@@Z
	DD	2 DUP(00H)
	DD	2 DUP(00H)
	DD	00H
	DD	01H
__unwindtable$?isMultineArray@StyledWriter@Json@@AAE_NABVValue@2@@Z DD 0ffffffffH
	DD	FLAT:__unwindfunclet$?isMultineArray@StyledWriter@Json@@AAE_NABVValue@2@@Z$23
	DD	0ffffffffH
	DD	FLAT:__unwindfunclet$?isMultineArray@StyledWriter@Json@@AAE_NABVValue@2@@Z$24
	DD	0ffffffffH
	DD	FLAT:__unwindfunclet$?isMultineArray@StyledWriter@Json@@AAE_NABVValue@2@@Z$46
	DD	0ffffffffH
	DD	FLAT:__unwindfunclet$?isMultineArray@StyledWriter@Json@@AAE_NABVValue@2@@Z$47
	DD	0ffffffffH
	DD	00H
	DD	0ffffffffH
	DD	00H
xdata$x	ENDS
;	COMDAT xdata$x
xdata$x	SEGMENT
__ehfuncinfo$?indent@StyledWriter@Json@@AAEXXZ DD 019930522H
	DD	01H
	DD	FLAT:__unwindtable$?indent@StyledWriter@Json@@AAEXXZ
	DD	2 DUP(00H)
	DD	2 DUP(00H)
	DD	00H
	DD	01H
__unwindtable$?indent@StyledWriter@Json@@AAEXXZ DD 0ffffffffH
	DD	FLAT:__unwindfunclet$?indent@StyledWriter@Json@@AAEXXZ$0
xdata$x	ENDS
;	COMDAT xdata$x
xdata$x	SEGMENT
__ehfuncinfo$?writeCommentBeforeValue@StyledWriter@Json@@AAEXABVValue@2@@Z DD 019930522H
	DD	02H
	DD	FLAT:__unwindtable$?writeCommentBeforeValue@StyledWriter@Json@@AAEXABVValue@2@@Z
	DD	2 DUP(00H)
	DD	2 DUP(00H)
	DD	00H
	DD	01H
__unwindtable$?writeCommentBeforeValue@StyledWriter@Json@@AAEXABVValue@2@@Z DD 0ffffffffH
	DD	FLAT:__unwindfunclet$?writeCommentBeforeValue@StyledWriter@Json@@AAEXABVValue@2@@Z$0
	DD	00H
	DD	FLAT:__unwindfunclet$?writeCommentBeforeValue@StyledWriter@Json@@AAEXABVValue@2@@Z$1
xdata$x	ENDS
;	COMDAT xdata$x
xdata$x	SEGMENT
__ehfuncinfo$?writeCommentAfterValueOnSameLine@StyledWriter@Json@@AAEXABVValue@2@@Z DD 019930522H
	DD	05H
	DD	FLAT:__unwindtable$?writeCommentAfterValueOnSameLine@StyledWriter@Json@@AAEXABVValue@2@@Z
	DD	2 DUP(00H)
	DD	2 DUP(00H)
	DD	00H
	DD	01H
__unwindtable$?writeCommentAfterValueOnSameLine@StyledWriter@Json@@AAEXABVValue@2@@Z DD 0ffffffffH
	DD	FLAT:__unwindfunclet$?writeCommentAfterValueOnSameLine@StyledWriter@Json@@AAEXABVValue@2@@Z$0
	DD	00H
	DD	FLAT:__unwindfunclet$?writeCommentAfterValueOnSameLine@StyledWriter@Json@@AAEXABVValue@2@@Z$1
	DD	01H
	DD	FLAT:__unwindfunclet$?writeCommentAfterValueOnSameLine@StyledWriter@Json@@AAEXABVValue@2@@Z$2
	DD	0ffffffffH
	DD	FLAT:__unwindfunclet$?writeCommentAfterValueOnSameLine@StyledWriter@Json@@AAEXABVValue@2@@Z$3
	DD	03H
	DD	FLAT:__unwindfunclet$?writeCommentAfterValueOnSameLine@StyledWriter@Json@@AAEXABVValue@2@@Z$4
xdata$x	ENDS
;	COMDAT xdata$x
xdata$x	SEGMENT
__ehfuncinfo$?normalizeEOL@StyledWriter@Json@@CA?AV?$basic_string@DU?$char_traits@D@std@@V?$allocator@D@2@@std@@ABV34@@Z DD 019930522H
	DD	01H
	DD	FLAT:__unwindtable$?normalizeEOL@StyledWriter@Json@@CA?AV?$basic_string@DU?$char_traits@D@std@@V?$allocator@D@2@@std@@ABV34@@Z
	DD	2 DUP(00H)
	DD	2 DUP(00H)
	DD	00H
	DD	01H
__unwindtable$?normalizeEOL@StyledWriter@Json@@CA?AV?$basic_string@DU?$char_traits@D@std@@V?$allocator@D@2@@std@@ABV34@@Z DD 0ffffffffH
	DD	FLAT:__unwindfunclet$?normalizeEOL@StyledWriter@Json@@CA?AV?$basic_string@DU?$char_traits@D@std@@V?$allocator@D@2@@std@@ABV34@@Z$0
xdata$x	ENDS
;	COMDAT xdata$x
xdata$x	SEGMENT
__ehfuncinfo$?writeValue@StyledStreamWriter@Json@@AAEXABVValue@2@@Z DD 019930522H
	DD	0bH
	DD	FLAT:__unwindtable$?writeValue@StyledStreamWriter@Json@@AAEXABVValue@2@@Z
	DD	2 DUP(00H)
	DD	2 DUP(00H)
	DD	00H
	DD	01H
	ORG $+4
__unwindtable$?writeValue@StyledStreamWriter@Json@@AAEXABVValue@2@@Z DD 0ffffffffH
	DD	FLAT:__unwindfunclet$?writeValue@StyledStreamWriter@Json@@AAEXABVValue@2@@Z$0
	DD	0ffffffffH
	DD	FLAT:__unwindfunclet$?writeValue@StyledStreamWriter@Json@@AAEXABVValue@2@@Z$1
	DD	0ffffffffH
	DD	FLAT:__unwindfunclet$?writeValue@StyledStreamWriter@Json@@AAEXABVValue@2@@Z$2
	DD	0ffffffffH
	DD	FLAT:__unwindfunclet$?writeValue@StyledStreamWriter@Json@@AAEXABVValue@2@@Z$3
	DD	0ffffffffH
	DD	FLAT:__unwindfunclet$?writeValue@StyledStreamWriter@Json@@AAEXABVValue@2@@Z$4
	DD	0ffffffffH
	DD	FLAT:__unwindfunclet$?writeValue@StyledStreamWriter@Json@@AAEXABVValue@2@@Z$5
	DD	0ffffffffH
	DD	FLAT:__unwindfunclet$?writeValue@StyledStreamWriter@Json@@AAEXABVValue@2@@Z$6
	DD	06H
	DD	FLAT:__unwindfunclet$?writeValue@StyledStreamWriter@Json@@AAEXABVValue@2@@Z$7
	DD	06H
	DD	FLAT:__unwindfunclet$?writeValue@StyledStreamWriter@Json@@AAEXABVValue@2@@Z$8
	DD	06H
	DD	FLAT:__unwindfunclet$?writeValue@StyledStreamWriter@Json@@AAEXABVValue@2@@Z$9
	DD	06H
	DD	FLAT:__unwindfunclet$?writeValue@StyledStreamWriter@Json@@AAEXABVValue@2@@Z$10
xdata$x	ENDS
;	COMDAT xdata$x
xdata$x	SEGMENT
__ehfuncinfo$?writeArrayValue@StyledStreamWriter@Json@@AAEXABVValue@2@@Z DD 019930522H
	DD	05H
	DD	FLAT:__unwindtable$?writeArrayValue@StyledStreamWriter@Json@@AAEXABVValue@2@@Z
	DD	2 DUP(00H)
	DD	2 DUP(00H)
	DD	00H
	DD	01H
__unwindtable$?writeArrayValue@StyledStreamWriter@Json@@AAEXABVValue@2@@Z DD 0ffffffffH
	DD	FLAT:__unwindfunclet$?writeArrayValue@StyledStreamWriter@Json@@AAEXABVValue@2@@Z$0
	DD	0ffffffffH
	DD	FLAT:__unwindfunclet$?writeArrayValue@StyledStreamWriter@Json@@AAEXABVValue@2@@Z$1
	DD	0ffffffffH
	DD	FLAT:__unwindfunclet$?writeArrayValue@StyledStreamWriter@Json@@AAEXABVValue@2@@Z$124
	DD	0ffffffffH
	DD	FLAT:__unwindfunclet$?writeArrayValue@StyledStreamWriter@Json@@AAEXABVValue@2@@Z$125
	DD	0ffffffffH
	DD	FLAT:__unwindfunclet$?writeArrayValue@StyledStreamWriter@Json@@AAEXABVValue@2@@Z$2
xdata$x	ENDS
;	COMDAT xdata$x
xdata$x	SEGMENT
__ehfuncinfo$?isMultineArray@StyledStreamWriter@Json@@AAE_NABVValue@2@@Z DD 019930522H
	DD	06H
	DD	FLAT:__unwindtable$?isMultineArray@StyledStreamWriter@Json@@AAE_NABVValue@2@@Z
	DD	2 DUP(00H)
	DD	2 DUP(00H)
	DD	00H
	DD	01H
__unwindtable$?isMultineArray@StyledStreamWriter@Json@@AAE_NABVValue@2@@Z DD 0ffffffffH
	DD	FLAT:__unwindfunclet$?isMultineArray@StyledStreamWriter@Json@@AAE_NABVValue@2@@Z$23
	DD	0ffffffffH
	DD	FLAT:__unwindfunclet$?isMultineArray@StyledStreamWriter@Json@@AAE_NABVValue@2@@Z$24
	DD	0ffffffffH
	DD	FLAT:__unwindfunclet$?isMultineArray@StyledStreamWriter@Json@@AAE_NABVValue@2@@Z$46
	DD	0ffffffffH
	DD	FLAT:__unwindfunclet$?isMultineArray@StyledStreamWriter@Json@@AAE_NABVValue@2@@Z$47
	DD	0ffffffffH
	DD	00H
	DD	0ffffffffH
	DD	00H
xdata$x	ENDS
;	COMDAT xdata$x
xdata$x	SEGMENT
__ehfuncinfo$?writeCommentBeforeValue@StyledStreamWriter@Json@@AAEXABVValue@2@@Z DD 019930522H
	DD	02H
	DD	FLAT:__unwindtable$?writeCommentBeforeValue@StyledStreamWriter@Json@@AAEXABVValue@2@@Z
	DD	2 DUP(00H)
	DD	2 DUP(00H)
	DD	00H
	DD	01H
__unwindtable$?writeCommentBeforeValue@StyledStreamWriter@Json@@AAEXABVValue@2@@Z DD 0ffffffffH
	DD	FLAT:__unwindfunclet$?writeCommentBeforeValue@StyledStreamWriter@Json@@AAEXABVValue@2@@Z$0
	DD	00H
	DD	FLAT:__unwindfunclet$?writeCommentBeforeValue@StyledStreamWriter@Json@@AAEXABVValue@2@@Z$1
xdata$x	ENDS
;	COMDAT xdata$x
xdata$x	SEGMENT
__ehfuncinfo$?writeCommentAfterValueOnSameLine@StyledStreamWriter@Json@@AAEXABVValue@2@@Z DD 019930522H
	DD	05H
	DD	FLAT:__unwindtable$?writeCommentAfterValueOnSameLine@StyledStreamWriter@Json@@AAEXABVValue@2@@Z
	DD	2 DUP(00H)
	DD	2 DUP(00H)
	DD	00H
	DD	01H
__unwindtable$?writeCommentAfterValueOnSameLine@StyledStreamWriter@Json@@AAEXABVValue@2@@Z DD 0ffffffffH
	DD	FLAT:__unwindfunclet$?writeCommentAfterValueOnSameLine@StyledStreamWriter@Json@@AAEXABVValue@2@@Z$0
	DD	00H
	DD	FLAT:__unwindfunclet$?writeCommentAfterValueOnSameLine@StyledStreamWriter@Json@@AAEXABVValue@2@@Z$1
	DD	01H
	DD	FLAT:__unwindfunclet$?writeCommentAfterValueOnSameLine@StyledStreamWriter@Json@@AAEXABVValue@2@@Z$2
	DD	0ffffffffH
	DD	FLAT:__unwindfunclet$?writeCommentAfterValueOnSameLine@StyledStreamWriter@Json@@AAEXABVValue@2@@Z$3
	DD	03H
	DD	FLAT:__unwindfunclet$?writeCommentAfterValueOnSameLine@StyledStreamWriter@Json@@AAEXABVValue@2@@Z$4
xdata$x	ENDS
;	COMDAT xdata$x
xdata$x	SEGMENT
__ehfuncinfo$?normalizeEOL@StyledStreamWriter@Json@@CA?AV?$basic_string@DU?$char_traits@D@std@@V?$allocator@D@2@@std@@ABV34@@Z DD 019930522H
	DD	01H
	DD	FLAT:__unwindtable$?normalizeEOL@StyledStreamWriter@Json@@CA?AV?$basic_string@DU?$char_traits@D@std@@V?$allocator@D@2@@std@@ABV34@@Z
	DD	2 DUP(00H)
	DD	2 DUP(00H)
	DD	00H
	DD	01H
__unwindtable$?normalizeEOL@StyledStreamWriter@Json@@CA?AV?$basic_string@DU?$char_traits@D@std@@V?$allocator@D@2@@std@@ABV34@@Z DD 0ffffffffH
	DD	FLAT:__unwindfunclet$?normalizeEOL@StyledStreamWriter@Json@@CA?AV?$basic_string@DU?$char_traits@D@std@@V?$allocator@D@2@@std@@ABV34@@Z$0
xdata$x	ENDS
;	COMDAT xdata$x
xdata$x	SEGMENT
__ehfuncinfo$?push_back@?$vector@V?$basic_string@DU?$char_traits@D@std@@V?$allocator@D@2@@std@@V?$allocator@V?$basic_string@DU?$char_traits@D@std@@V?$allocator@D@2@@std@@@2@@std@@QAEXABV?$basic_string@DU?$char_traits@D@std@@V?$allocator@D@2@@2@@Z DD 019930522H
	DD	02H
	DD	FLAT:__unwindtable$?push_back@?$vector@V?$basic_string@DU?$char_traits@D@std@@V?$allocator@D@2@@std@@V?$allocator@V?$basic_string@DU?$char_traits@D@std@@V?$allocator@D@2@@std@@@2@@std@@QAEXABV?$basic_string@DU?$char_traits@D@std@@V?$allocator@D@2@@2@@Z
	DD	2 DUP(00H)
	DD	2 DUP(00H)
	DD	00H
	DD	01H
__unwindtable$?push_back@?$vector@V?$basic_string@DU?$char_traits@D@std@@V?$allocator@D@2@@std@@V?$allocator@V?$basic_string@DU?$char_traits@D@std@@V?$allocator@D@2@@std@@@2@@std@@QAEXABV?$basic_string@DU?$char_traits@D@std@@V?$allocator@D@2@@2@@Z DD 0ffffffffH
	DD	FLAT:__unwindfunclet$?push_back@?$vector@V?$basic_string@DU?$char_traits@D@std@@V?$allocator@D@2@@std@@V?$allocator@V?$basic_string@DU?$char_traits@D@std@@V?$allocator@D@2@@std@@@2@@std@@QAEXABV?$basic_string@DU?$char_traits@D@std@@V?$allocator@D@2@@2@@Z$33
	DD	0ffffffffH
	DD	FLAT:__unwindfunclet$?push_back@?$vector@V?$basic_string@DU?$char_traits@D@std@@V?$allocator@D@2@@std@@V?$allocator@V?$basic_string@DU?$char_traits@D@std@@V?$allocator@D@2@@std@@@2@@std@@QAEXABV?$basic_string@DU?$char_traits@D@std@@V?$allocator@D@2@@2@@Z$88
xdata$x	ENDS
;	COMDAT xdata$x
xdata$x	SEGMENT
__ehfuncinfo$??0?$basic_ostringstream@DU?$char_traits@D@std@@V?$allocator@D@2@@std@@QAE@H@Z DD 019930522H
	DD	03H
	DD	FLAT:__unwindtable$??0?$basic_ostringstream@DU?$char_traits@D@std@@V?$allocator@D@2@@std@@QAE@H@Z
	DD	2 DUP(00H)
	DD	2 DUP(00H)
	DD	00H
	DD	01H
__unwindtable$??0?$basic_ostringstream@DU?$char_traits@D@std@@V?$allocator@D@2@@std@@QAE@H@Z DD 0ffffffffH
	DD	FLAT:__unwindfunclet$??0?$basic_ostringstream@DU?$char_traits@D@std@@V?$allocator@D@2@@std@@QAE@H@Z$0
	DD	00H
	DD	FLAT:__unwindfunclet$??0?$basic_ostringstream@DU?$char_traits@D@std@@V?$allocator@D@2@@std@@QAE@H@Z$1
	DD	01H
	DD	FLAT:__unwindfunclet$??0?$basic_ostringstream@DU?$char_traits@D@std@@V?$allocator@D@2@@std@@QAE@H@Z$3
xdata$x	ENDS
;	COMDAT xdata$x
xdata$x	SEGMENT
__ehfuncinfo$??1sentry@?$basic_ostream@DU?$char_traits@D@std@@@std@@QAE@XZ DD 019930522H
	DD	01H
	DD	FLAT:__unwindtable$??1sentry@?$basic_ostream@DU?$char_traits@D@std@@@std@@QAE@XZ
	DD	2 DUP(00H)
	DD	2 DUP(00H)
	DD	00H
	DD	05H
__unwindtable$??1sentry@?$basic_ostream@DU?$char_traits@D@std@@@std@@QAE@XZ DD 0ffffffffH
	DD	FLAT:__unwindfunclet$??1sentry@?$basic_ostream@DU?$char_traits@D@std@@@std@@QAE@XZ$0
xdata$x	ENDS
;	COMDAT xdata$x
xdata$x	SEGMENT
__ehfuncinfo$??0sentry@?$basic_ostream@DU?$char_traits@D@std@@@std@@QAE@AAV12@@Z DD 019930522H
	DD	01H
	DD	FLAT:__unwindtable$??0sentry@?$basic_ostream@DU?$char_traits@D@std@@@std@@QAE@AAV12@@Z
	DD	2 DUP(00H)
	DD	2 DUP(00H)
	DD	00H
	DD	01H
__unwindtable$??0sentry@?$basic_ostream@DU?$char_traits@D@std@@@std@@QAE@AAV12@@Z DD 0ffffffffH
	DD	FLAT:__unwindfunclet$??0sentry@?$basic_ostream@DU?$char_traits@D@std@@@std@@QAE@AAV12@@Z$0
xdata$x	ENDS
;	COMDAT xdata$x
xdata$x	SEGMENT
__ehfuncinfo$??0?$basic_stringbuf@DU?$char_traits@D@std@@V?$allocator@D@2@@std@@QAE@H@Z DD 019930522H
	DD	01H
	DD	FLAT:__unwindtable$??0?$basic_stringbuf@DU?$char_traits@D@std@@V?$allocator@D@2@@std@@QAE@H@Z
	DD	2 DUP(00H)
	DD	2 DUP(00H)
	DD	00H
	DD	01H
__unwindtable$??0?$basic_stringbuf@DU?$char_traits@D@std@@V?$allocator@D@2@@std@@QAE@H@Z DD 0ffffffffH
	DD	FLAT:__unwindfunclet$??0?$basic_stringbuf@DU?$char_traits@D@std@@V?$allocator@D@2@@std@@QAE@H@Z$0
xdata$x	ENDS
;	COMDAT xdata$x
xdata$x	SEGMENT
__ehfuncinfo$??1_Sentry_base@?$basic_ostream@DU?$char_traits@D@std@@@std@@QAE@XZ DD 019930522H
	DD	00H
	DD	00H
	DD	2 DUP(00H)
	DD	2 DUP(00H)
	DD	00H
	DD	05H
xdata$x	ENDS
;	COMDAT xdata$x
xdata$x	SEGMENT
__ehfuncinfo$??$?6U?$char_traits@D@std@@@std@@YAAAV?$basic_ostream@DU?$char_traits@D@std@@@0@AAV10@PBD@Z DD 019930522H
	DD	06H
	DD	FLAT:__unwindtable$??$?6U?$char_traits@D@std@@@std@@YAAAV?$basic_ostream@DU?$char_traits@D@std@@@0@AAV10@PBD@Z
	DD	01H
	DD	FLAT:__tryblocktable$??$?6U?$char_traits@D@std@@@std@@YAAAV?$basic_ostream@DU?$char_traits@D@std@@@0@AAV10@PBD@Z
	DD	2 DUP(00H)
	DD	00H
	DD	01H
__unwindtable$??$?6U?$char_traits@D@std@@@std@@YAAAV?$basic_ostream@DU?$char_traits@D@std@@@0@AAV10@PBD@Z DD 0ffffffffH
	DD	FLAT:__unwindfunclet$??$?6U?$char_traits@D@std@@@std@@YAAAV?$basic_ostream@DU?$char_traits@D@std@@@0@AAV10@PBD@Z$3
	DD	0ffffffffH
	DD	FLAT:__unwindfunclet$??$?6U?$char_traits@D@std@@@std@@YAAAV?$basic_ostream@DU?$char_traits@D@std@@@0@AAV10@PBD@Z$2
	DD	01H
	DD	00H
	DD	01H
	DD	00H
	DD	0ffffffffH
	DD	FLAT:__unwindfunclet$??$?6U?$char_traits@D@std@@@std@@YAAAV?$basic_ostream@DU?$char_traits@D@std@@@0@AAV10@PBD@Z$8
	DD	04H
	DD	FLAT:__unwindfunclet$??$?6U?$char_traits@D@std@@@std@@YAAAV?$basic_ostream@DU?$char_traits@D@std@@@0@AAV10@PBD@Z$9
__tryblocktable$??$?6U?$char_traits@D@std@@@std@@YAAAV?$basic_ostream@DU?$char_traits@D@std@@@0@AAV10@PBD@Z DD 02H
	DD	02H
	DD	03H
	DD	01H
	DD	FLAT:__catchsym$??$?6U?$char_traits@D@std@@@std@@YAAAV?$basic_ostream@DU?$char_traits@D@std@@@0@AAV10@PBD@Z$10
__catchsym$??$?6U?$char_traits@D@std@@@std@@YAAAV?$basic_ostream@DU?$char_traits@D@std@@@0@AAV10@PBD@Z$10 DD 040H
	DD	00H
	DD	00H
	DD	FLAT:__catch$??$?6U?$char_traits@D@std@@@std@@YAAAV?$basic_ostream@DU?$char_traits@D@std@@@0@AAV10@PBD@Z$0
xdata$x	ENDS
;	COMDAT xdata$x
xdata$x	SEGMENT
__ehfuncinfo$??$?6U?$char_traits@D@std@@@std@@YAAAV?$basic_ostream@DU?$char_traits@D@std@@@0@AAV10@D@Z DD 019930522H
	DD	06H
	DD	FLAT:__unwindtable$??$?6U?$char_traits@D@std@@@std@@YAAAV?$basic_ostream@DU?$char_traits@D@std@@@0@AAV10@D@Z
	DD	01H
	DD	FLAT:__tryblocktable$??$?6U?$char_traits@D@std@@@std@@YAAAV?$basic_ostream@DU?$char_traits@D@std@@@0@AAV10@D@Z
	DD	2 DUP(00H)
	DD	00H
	DD	01H
__unwindtable$??$?6U?$char_traits@D@std@@@std@@YAAAV?$basic_ostream@DU?$char_traits@D@std@@@0@AAV10@D@Z DD 0ffffffffH
	DD	FLAT:__unwindfunclet$??$?6U?$char_traits@D@std@@@std@@YAAAV?$basic_ostream@DU?$char_traits@D@std@@@0@AAV10@D@Z$3
	DD	0ffffffffH
	DD	FLAT:__unwindfunclet$??$?6U?$char_traits@D@std@@@std@@YAAAV?$basic_ostream@DU?$char_traits@D@std@@@0@AAV10@D@Z$2
	DD	01H
	DD	00H
	DD	01H
	DD	00H
	DD	0ffffffffH
	DD	FLAT:__unwindfunclet$??$?6U?$char_traits@D@std@@@std@@YAAAV?$basic_ostream@DU?$char_traits@D@std@@@0@AAV10@D@Z$10
	DD	04H
	DD	FLAT:__unwindfunclet$??$?6U?$char_traits@D@std@@@std@@YAAAV?$basic_ostream@DU?$char_traits@D@std@@@0@AAV10@D@Z$11
__tryblocktable$??$?6U?$char_traits@D@std@@@std@@YAAAV?$basic_ostream@DU?$char_traits@D@std@@@0@AAV10@D@Z DD 02H
	DD	02H
	DD	03H
	DD	01H
	DD	FLAT:__catchsym$??$?6U?$char_traits@D@std@@@std@@YAAAV?$basic_ostream@DU?$char_traits@D@std@@@0@AAV10@D@Z$12
__catchsym$??$?6U?$char_traits@D@std@@@std@@YAAAV?$basic_ostream@DU?$char_traits@D@std@@@0@AAV10@D@Z$12 DD 040H
	DD	00H
	DD	00H
	DD	FLAT:__catch$??$?6U?$char_traits@D@std@@@std@@YAAAV?$basic_ostream@DU?$char_traits@D@std@@@0@AAV10@D@Z$0
xdata$x	ENDS
;	COMDAT xdata$x
xdata$x	SEGMENT
__ehfuncinfo$??$?6DU?$char_traits@D@std@@V?$allocator@D@1@@std@@YAAAV?$basic_ostream@DU?$char_traits@D@std@@@0@AAV10@ABV?$basic_string@DU?$char_traits@D@std@@V?$allocator@D@2@@0@@Z DD 019930522H
	DD	06H
	DD	FLAT:__unwindtable$??$?6DU?$char_traits@D@std@@V?$allocator@D@1@@std@@YAAAV?$basic_ostream@DU?$char_traits@D@std@@@0@AAV10@ABV?$basic_string@DU?$char_traits@D@std@@V?$allocator@D@2@@0@@Z
	DD	01H
	DD	FLAT:__tryblocktable$??$?6DU?$char_traits@D@std@@V?$allocator@D@1@@std@@YAAAV?$basic_ostream@DU?$char_traits@D@std@@@0@AAV10@ABV?$basic_string@DU?$char_traits@D@std@@V?$allocator@D@2@@0@@Z
	DD	2 DUP(00H)
	DD	00H
	DD	01H
__unwindtable$??$?6DU?$char_traits@D@std@@V?$allocator@D@1@@std@@YAAAV?$basic_ostream@DU?$char_traits@D@std@@@0@AAV10@ABV?$basic_string@DU?$char_traits@D@std@@V?$allocator@D@2@@0@@Z DD 0ffffffffH
	DD	FLAT:__unwindfunclet$??$?6DU?$char_traits@D@std@@V?$allocator@D@1@@std@@YAAAV?$basic_ostream@DU?$char_traits@D@std@@@0@AAV10@ABV?$basic_string@DU?$char_traits@D@std@@V?$allocator@D@2@@0@@Z$7
	DD	0ffffffffH
	DD	FLAT:__unwindfunclet$??$?6DU?$char_traits@D@std@@V?$allocator@D@1@@std@@YAAAV?$basic_ostream@DU?$char_traits@D@std@@@0@AAV10@ABV?$basic_string@DU?$char_traits@D@std@@V?$allocator@D@2@@0@@Z$2
	DD	01H
	DD	00H
	DD	01H
	DD	00H
	DD	0ffffffffH
	DD	FLAT:__unwindfunclet$??$?6DU?$char_traits@D@std@@V?$allocator@D@1@@std@@YAAAV?$basic_ostream@DU?$char_traits@D@std@@@0@AAV10@ABV?$basic_string@DU?$char_traits@D@std@@V?$allocator@D@2@@0@@Z$15
	DD	04H
	DD	FLAT:__unwindfunclet$??$?6DU?$char_traits@D@std@@V?$allocator@D@1@@std@@YAAAV?$basic_ostream@DU?$char_traits@D@std@@@0@AAV10@ABV?$basic_string@DU?$char_traits@D@std@@V?$allocator@D@2@@0@@Z$16
__tryblocktable$??$?6DU?$char_traits@D@std@@V?$allocator@D@1@@std@@YAAAV?$basic_ostream@DU?$char_traits@D@std@@@0@AAV10@ABV?$basic_string@DU?$char_traits@D@std@@V?$allocator@D@2@@0@@Z DD 02H
	DD	02H
	DD	03H
	DD	01H
	DD	FLAT:__catchsym$??$?6DU?$char_traits@D@std@@V?$allocator@D@1@@std@@YAAAV?$basic_ostream@DU?$char_traits@D@std@@@0@AAV10@ABV?$basic_string@DU?$char_traits@D@std@@V?$allocator@D@2@@0@@Z$17
__catchsym$??$?6DU?$char_traits@D@std@@V?$allocator@D@1@@std@@YAAAV?$basic_ostream@DU?$char_traits@D@std@@@0@AAV10@ABV?$basic_string@DU?$char_traits@D@std@@V?$allocator@D@2@@0@@Z$17 DD 040H
	DD	00H
	DD	00H
	DD	FLAT:__catch$??$?6DU?$char_traits@D@std@@V?$allocator@D@1@@std@@YAAAV?$basic_ostream@DU?$char_traits@D@std@@@0@AAV10@ABV?$basic_string@DU?$char_traits@D@std@@V?$allocator@D@2@@0@@Z$0
; Function compile flags: /Ogtp
; File e:\tool\c++incolude\jsoncpp-src-0.5.0\src\lib_json\json_writer.cpp
; File c:\program files (x86)\microsoft visual studio 14.0\vc\include\vector
; File c:\program files (x86)\microsoft visual studio 14.0\vc\include\xstring
; File c:\program files (x86)\microsoft visual studio 14.0\vc\include\iosfwd
; File c:\program files (x86)\microsoft visual studio 14.0\vc\include\xstring
; File c:\program files (x86)\microsoft visual studio 14.0\vc\include\iosfwd
; File e:\tool\c++incolude\jsoncpp-src-0.5.0\src\lib_json\json_writer.cpp
;	COMDAT ??0StyledWriter@Json@@QAE@XZ
_TEXT	SEGMENT
??0StyledWriter@Json@@QAE@XZ PROC			; Json::StyledWriter::StyledWriter, COMDAT
; _this$ = ecx

; 272  : {

	mov	DWORD PTR [ecx], OFFSET ??_7StyledWriter@Json@@6B@

; 273  : }

	mov	eax, ecx
; File c:\program files (x86)\microsoft visual studio 14.0\vc\include\vector

; 485  : 		: _Myfirst(),

	mov	DWORD PTR [ecx+4], 0

; 486  : 		_Mylast(),

	mov	DWORD PTR [ecx+8], 0

; 487  : 		_Myend()

	mov	DWORD PTR [ecx+12], 0
; File c:\program files (x86)\microsoft visual studio 14.0\vc\include\xstring

; 2260 : 		this->_Myres() = this->_BUF_SIZE - 1;

	mov	DWORD PTR [ecx+36], 15			; 0000000fH

; 2219 : 		_Traits::assign(_Dx._Myptr()[_Dx._Mysize = _Newsize], _Elem());

	mov	DWORD PTR [ecx+32], 0
; File c:\program files (x86)\microsoft visual studio 14.0\vc\include\iosfwd

; 565  : 		_Left = _Right;

	mov	BYTE PTR [ecx+16], 0
; File c:\program files (x86)\microsoft visual studio 14.0\vc\include\xstring

; 2260 : 		this->_Myres() = this->_BUF_SIZE - 1;

	mov	DWORD PTR [ecx+60], 15			; 0000000fH

; 2219 : 		_Traits::assign(_Dx._Myptr()[_Dx._Mysize = _Newsize], _Elem());

	mov	DWORD PTR [ecx+56], 0
; File c:\program files (x86)\microsoft visual studio 14.0\vc\include\iosfwd

; 565  : 		_Left = _Right;

	mov	BYTE PTR [ecx+40], 0
; File e:\tool\c++incolude\jsoncpp-src-0.5.0\src\lib_json\json_writer.cpp

; 270  :    : rightMargin_( 74 )

	mov	DWORD PTR [ecx+64], 74			; 0000004aH

; 271  :    , indentSize_( 3 )

	mov	DWORD PTR [ecx+68], 3

; 273  : }

	ret	0
??0StyledWriter@Json@@QAE@XZ ENDP			; Json::StyledWriter::StyledWriter
_TEXT	ENDS
; Function compile flags: /Ogtp
; File e:\tool\c++incolude\jsoncpp-src-0.5.0\src\lib_json\json_writer.cpp
; File c:\program files (x86)\microsoft visual studio 14.0\vc\include\xstring
; File e:\tool\c++incolude\jsoncpp-src-0.5.0\src\lib_json\json_writer.cpp
; File c:\program files (x86)\microsoft visual studio 14.0\vc\include\xstring
; File e:\tool\c++incolude\jsoncpp-src-0.5.0\src\lib_json\json_writer.cpp
; File c:\program files (x86)\microsoft visual studio 14.0\vc\include\xstring
; File e:\tool\c++incolude\jsoncpp-src-0.5.0\src\lib_json\json_writer.cpp
; File c:\program files (x86)\microsoft visual studio 14.0\vc\include\xstring
; File c:\program files (x86)\microsoft visual studio 14.0\vc\include\iosfwd
; File c:\program files (x86)\microsoft visual studio 14.0\vc\include\xstring
; File e:\tool\c++incolude\jsoncpp-src-0.5.0\src\lib_json\json_writer.cpp
;	COMDAT ?write@StyledWriter@Json@@UAE?AV?$basic_string@DU?$char_traits@D@std@@V?$allocator@D@2@@std@@ABVValue@2@@Z
_TEXT	SEGMENT
$T1 = -4						; size = 4
___$ReturnUdt$ = 8					; size = 4
_root$ = 12						; size = 4
?write@StyledWriter@Json@@UAE?AV?$basic_string@DU?$char_traits@D@std@@V?$allocator@D@2@@std@@ABVValue@2@@Z PROC ; Json::StyledWriter::write, COMDAT
; _this$ = ecx

; 278  : {

	push	ebp
	mov	ebp, esp
	and	esp, -8					; fffffff8H
	push	ecx
	push	ebx
	push	esi
	push	edi
	mov	edi, ecx
	mov	DWORD PTR $T1[esp+16], 0
; File c:\program files (x86)\microsoft visual studio 14.0\vc\include\xstring

; 1182 : 		return (assign(_Ptr, _Traits::length(_Ptr)));

	push	0
	push	OFFSET ??_C@_00CNPNBAHC@?$AA@
; File e:\tool\c++incolude\jsoncpp-src-0.5.0\src\lib_json\json_writer.cpp

; 279  :    document_ = "";

	lea	ebx, DWORD PTR [edi+16]
; File c:\program files (x86)\microsoft visual studio 14.0\vc\include\xstring

; 1182 : 		return (assign(_Ptr, _Traits::length(_Ptr)));

	mov	ecx, ebx
	call	?assign@?$basic_string@DU?$char_traits@D@std@@V?$allocator@D@2@@std@@QAEAAV12@PBDI@Z ; std::basic_string<char,std::char_traits<char>,std::allocator<char> >::assign
	push	0
	push	OFFSET ??_C@_00CNPNBAHC@?$AA@
; File e:\tool\c++incolude\jsoncpp-src-0.5.0\src\lib_json\json_writer.cpp

; 281  :    indentString_ = "";

	lea	ecx, DWORD PTR [edi+40]
	mov	BYTE PTR [edi+72], 0
; File c:\program files (x86)\microsoft visual studio 14.0\vc\include\xstring

; 1182 : 		return (assign(_Ptr, _Traits::length(_Ptr)));

	call	?assign@?$basic_string@DU?$char_traits@D@std@@V?$allocator@D@2@@std@@QAEAAV12@PBDI@Z ; std::basic_string<char,std::char_traits<char>,std::allocator<char> >::assign
; File e:\tool\c++incolude\jsoncpp-src-0.5.0\src\lib_json\json_writer.cpp

; 282  :    writeCommentBeforeValue( root );

	mov	esi, DWORD PTR _root$[ebp]
	mov	ecx, edi
	push	esi
	call	?writeCommentBeforeValue@StyledWriter@Json@@AAEXABVValue@2@@Z ; Json::StyledWriter::writeCommentBeforeValue

; 283  :    writeValue( root );

	push	esi
	mov	ecx, edi
	call	?writeValue@StyledWriter@Json@@AAEXABVValue@2@@Z ; Json::StyledWriter::writeValue

; 284  :    writeCommentAfterValueOnSameLine( root );

	push	esi
	mov	ecx, edi
	call	?writeCommentAfterValueOnSameLine@StyledWriter@Json@@AAEXABVValue@2@@Z ; Json::StyledWriter::writeCommentAfterValueOnSameLine
; File c:\program files (x86)\microsoft visual studio 14.0\vc\include\xstring

; 1107 : 		return (append(_Ptr, _Traits::length(_Ptr)));

	push	1
	push	OFFSET ??_C@_01EEMJAFIK@?6?$AA@
	mov	ecx, ebx
	call	?append@?$basic_string@DU?$char_traits@D@std@@V?$allocator@D@2@@std@@QAEAAV12@PBDI@Z ; std::basic_string<char,std::char_traits<char>,std::allocator<char> >::append

; 2260 : 		this->_Myres() = this->_BUF_SIZE - 1;

	mov	esi, DWORD PTR ___$ReturnUdt$[ebp]

; 782  : 		assign(_Right, 0, npos);

	mov	ecx, esi
	push	-1
	push	0
	push	ebx

; 2260 : 		this->_Myres() = this->_BUF_SIZE - 1;

	mov	DWORD PTR [esi+20], 15			; 0000000fH

; 2219 : 		_Traits::assign(_Dx._Myptr()[_Dx._Mysize = _Newsize], _Elem());

	mov	DWORD PTR [esi+16], 0
; File c:\program files (x86)\microsoft visual studio 14.0\vc\include\iosfwd

; 565  : 		_Left = _Right;

	mov	BYTE PTR [esi], 0
; File c:\program files (x86)\microsoft visual studio 14.0\vc\include\xstring

; 782  : 		assign(_Right, 0, npos);

	call	?assign@?$basic_string@DU?$char_traits@D@std@@V?$allocator@D@2@@std@@QAEAAV12@ABV12@II@Z ; std::basic_string<char,std::char_traits<char>,std::allocator<char> >::assign
; File e:\tool\c++incolude\jsoncpp-src-0.5.0\src\lib_json\json_writer.cpp

; 287  : }

	pop	edi
	mov	eax, esi
	pop	esi
	pop	ebx
	mov	esp, ebp
	pop	ebp
	ret	8
?write@StyledWriter@Json@@UAE?AV?$basic_string@DU?$char_traits@D@std@@V?$allocator@D@2@@std@@ABVValue@2@@Z ENDP ; Json::StyledWriter::write
_TEXT	ENDS
; Function compile flags: /Ogtp
; File e:\tool\c++incolude\jsoncpp-src-0.5.0\src\lib_json\json_writer.cpp
;	COMDAT ??1Writer@Json@@UAE@XZ
_TEXT	SEGMENT
??1Writer@Json@@UAE@XZ PROC				; Json::Writer::~Writer, COMDAT
; _this$ = ecx

; 177  : {

	mov	DWORD PTR [ecx], OFFSET ??_7Writer@Json@@6B@

; 178  : }

	ret	0
??1Writer@Json@@UAE@XZ ENDP				; Json::Writer::~Writer
_TEXT	ENDS
; Function compile flags: /Ogtp
; File e:\tool\c++incolude\jsoncpp-src-0.5.0\src\lib_json\json_writer.cpp
; File c:\program files (x86)\microsoft visual studio 14.0\vc\include\vector
; File e:\tool\c++incolude\jsoncpp-src-0.5.0\src\lib_json\json_writer.cpp
; File c:\program files (x86)\microsoft visual studio 14.0\vc\include\xstring
; File c:\program files (x86)\microsoft visual studio 14.0\vc\include\xstddef
; File c:\program files (x86)\microsoft visual studio 14.0\vc\include\iosfwd
; File e:\tool\c++incolude\jsoncpp-src-0.5.0\src\lib_json\json_writer.cpp
; File c:\program files (x86)\microsoft visual studio 14.0\vc\include\xstring
; File e:\tool\c++incolude\jsoncpp-src-0.5.0\src\lib_json\json_writer.cpp
; File c:\program files (x86)\microsoft visual studio 14.0\vc\include\xstring
; File c:\program files (x86)\microsoft visual studio 14.0\vc\include\iosfwd
; File c:\program files (x86)\microsoft visual studio 14.0\vc\include\xstring
; File e:\tool\c++incolude\jsoncpp-src-0.5.0\src\lib_json\json_writer.cpp
;	COMDAT ??0StyledStreamWriter@Json@@QAE@V?$basic_string@DU?$char_traits@D@std@@V?$allocator@D@2@@std@@@Z
_TEXT	SEGMENT
_this$GSCopy$ = -20					; size = 4
_this$ = -16						; size = 4
__$EHRec$ = -12						; size = 12
_indentation$ = 8					; size = 24
??0StyledStreamWriter@Json@@QAE@V?$basic_string@DU?$char_traits@D@std@@V?$allocator@D@2@@std@@@Z PROC ; Json::StyledStreamWriter::StyledStreamWriter, COMDAT
; _this$ = ecx

; 548  : {

	push	ebp
	mov	ebp, esp
	push	-1
	push	__ehhandler$??0StyledStreamWriter@Json@@QAE@V?$basic_string@DU?$char_traits@D@std@@V?$allocator@D@2@@std@@@Z
	mov	eax, DWORD PTR fs:0
	push	eax
	sub	esp, 8
	push	esi
	mov	eax, DWORD PTR ___security_cookie
	xor	eax, ebp
	push	eax
	lea	eax, DWORD PTR __$EHRec$[ebp]
	mov	DWORD PTR fs:0, eax
	mov	esi, ecx
	mov	DWORD PTR _this$[ebp], esi
	mov	DWORD PTR _this$GSCopy$[ebp], esi
	mov	DWORD PTR __$EHRec$[ebp+8], 0
; File c:\program files (x86)\microsoft visual studio 14.0\vc\include\vector

; 485  : 		: _Myfirst(),

	mov	DWORD PTR [esi], 0

; 486  : 		_Mylast(),

	mov	DWORD PTR [esi+4], 0

; 487  : 		_Myend()

	mov	DWORD PTR [esi+8], 0
; File e:\tool\c++incolude\jsoncpp-src-0.5.0\src\lib_json\json_writer.cpp

; 548  : {

	lea	eax, DWORD PTR [esi+16]
	mov	DWORD PTR [esi+12], 0
; File c:\program files (x86)\microsoft visual studio 14.0\vc\include\xstring

; 2260 : 		this->_Myres() = this->_BUF_SIZE - 1;

	mov	DWORD PTR [eax+20], 15			; 0000000fH

; 2219 : 		_Traits::assign(_Dx._Myptr()[_Dx._Mysize = _Newsize], _Elem());

	mov	DWORD PTR [eax+16], 0

; 514  : 		return (this->_BUF_SIZE <= _Myres

	cmp	DWORD PTR [eax+20], 16			; 00000010H
	jb	SHORT $LN117@StyledStre
; File c:\program files (x86)\microsoft visual studio 14.0\vc\include\xstddef

; 740  : 	return (_Ptr);

	mov	eax, DWORD PTR [eax]
$LN117@StyledStre:
; File c:\program files (x86)\microsoft visual studio 14.0\vc\include\iosfwd

; 565  : 		_Left = _Right;

	mov	BYTE PTR [eax], 0
; File e:\tool\c++incolude\jsoncpp-src-0.5.0\src\lib_json\json_writer.cpp

; 548  : {

	mov	BYTE PTR __$EHRec$[ebp+8], 2

; 547  :    , indentation_( indentation )

	lea	ecx, DWORD PTR [esi+44]
; File c:\program files (x86)\microsoft visual studio 14.0\vc\include\xstring

; 782  : 		assign(_Right, 0, npos);

	push	-1
; File e:\tool\c++incolude\jsoncpp-src-0.5.0\src\lib_json\json_writer.cpp

; 546  :    , rightMargin_( 74 )

	mov	DWORD PTR [esi+40], 74			; 0000004aH
; File c:\program files (x86)\microsoft visual studio 14.0\vc\include\xstring

; 782  : 		assign(_Right, 0, npos);

	lea	eax, DWORD PTR _indentation$[ebp]
	push	0

; 2260 : 		this->_Myres() = this->_BUF_SIZE - 1;

	mov	DWORD PTR [ecx+20], 15			; 0000000fH

; 2219 : 		_Traits::assign(_Dx._Myptr()[_Dx._Mysize = _Newsize], _Elem());

	mov	DWORD PTR [ecx+16], 0

; 782  : 		assign(_Right, 0, npos);

	push	eax
; File c:\program files (x86)\microsoft visual studio 14.0\vc\include\iosfwd

; 565  : 		_Left = _Right;

	mov	BYTE PTR [ecx], 0
; File c:\program files (x86)\microsoft visual studio 14.0\vc\include\xstring

; 782  : 		assign(_Right, 0, npos);

	call	?assign@?$basic_string@DU?$char_traits@D@std@@V?$allocator@D@2@@std@@QAEAAV12@ABV12@II@Z ; std::basic_string<char,std::char_traits<char>,std::allocator<char> >::assign

; 2251 : 		else if (this->_BUF_SIZE <= this->_Myres())

	mov	ecx, DWORD PTR _indentation$[ebp+20]
	cmp	ecx, 16					; 00000010H
	jb	SHORT $LN349@StyledStre

; 2252 : 			{	// copy any leftovers to small buffer and deallocate
; 2253 : 			pointer _Ptr = this->_Bx()._Ptr;
; 2254 : 			this->_Getal().destroy(_STD addressof(this->_Bx()._Ptr));
; 2255 : 			if (0 < _Newsize)
; 2256 : 				_Traits::copy(this->_Bx()._Buf,
; 2257 : 					_Unfancy(_Ptr), _Newsize);
; 2258 : 			this->_Getal().deallocate(_Ptr, this->_Myres() + 1);

	inc	ecx
	push	ecx
	push	DWORD PTR _indentation$[ebp]
	call	?deallocate@?$_Wrap_alloc@V?$allocator@D@std@@@std@@QAEXPADI@Z ; std::_Wrap_alloc<std::allocator<char> >::deallocate
$LN349@StyledStre:
; File e:\tool\c++incolude\jsoncpp-src-0.5.0\src\lib_json\json_writer.cpp

; 549  : }

	mov	eax, esi
	mov	ecx, DWORD PTR __$EHRec$[ebp]
	mov	DWORD PTR fs:0, ecx
	pop	ecx
	pop	esi
	mov	esp, ebp
	pop	ebp
	ret	24					; 00000018H
_TEXT	ENDS
;	COMDAT text$x
text$x	SEGMENT
__unwindfunclet$??0StyledStreamWriter@Json@@QAE@V?$basic_string@DU?$char_traits@D@std@@V?$allocator@D@2@@std@@@Z$0:
	lea	ecx, DWORD PTR _indentation$[ebp]
	jmp	??1?$basic_string@DU?$char_traits@D@std@@V?$allocator@D@2@@std@@QAE@XZ ; std::basic_string<char,std::char_traits<char>,std::allocator<char> >::~basic_string<char,std::char_traits<char>,std::allocator<char> >
__unwindfunclet$??0StyledStreamWriter@Json@@QAE@V?$basic_string@DU?$char_traits@D@std@@V?$allocator@D@2@@std@@@Z$1:
	mov	ecx, DWORD PTR _this$GSCopy$[ebp]
	jmp	??1?$vector@V?$basic_string@DU?$char_traits@D@std@@V?$allocator@D@2@@std@@V?$allocator@V?$basic_string@DU?$char_traits@D@std@@V?$allocator@D@2@@std@@@2@@std@@QAE@XZ ; std::vector<std::basic_string<char,std::char_traits<char>,std::allocator<char> >,std::allocator<std::basic_string<char,std::char_traits<char>,std::allocator<char> > > >::~vector<std::basic_string<char,std::char_traits<char>,std::allocator<char> >,std::allocator<std::basic_string<char,std::char_traits<char>,std::allocator<char> > > >
__unwindfunclet$??0StyledStreamWriter@Json@@QAE@V?$basic_string@DU?$char_traits@D@std@@V?$allocator@D@2@@std@@@Z$2:
	mov	ecx, DWORD PTR _this$GSCopy$[ebp]
	add	ecx, 16					; 00000010H
	jmp	??1?$basic_string@DU?$char_traits@D@std@@V?$allocator@D@2@@std@@QAE@XZ ; std::basic_string<char,std::char_traits<char>,std::allocator<char> >::~basic_string<char,std::char_traits<char>,std::allocator<char> >
__ehhandler$??0StyledStreamWriter@Json@@QAE@V?$basic_string@DU?$char_traits@D@std@@V?$allocator@D@2@@std@@@Z:
	mov	edx, DWORD PTR [esp+8]
	lea	eax, DWORD PTR [edx+12]
	mov	ecx, DWORD PTR [edx-16]
	xor	ecx, eax
	call	@__security_check_cookie@4
	mov	eax, OFFSET __ehfuncinfo$??0StyledStreamWriter@Json@@QAE@V?$basic_string@DU?$char_traits@D@std@@V?$allocator@D@2@@std@@@Z
	jmp	___CxxFrameHandler3
text$x	ENDS
??0StyledStreamWriter@Json@@QAE@V?$basic_string@DU?$char_traits@D@std@@V?$allocator@D@2@@std@@@Z ENDP ; Json::StyledStreamWriter::StyledStreamWriter
; Function compile flags: /Ogtp
; File e:\tool\c++incolude\jsoncpp-src-0.5.0\src\lib_json\json_writer.cpp
; File c:\program files (x86)\microsoft visual studio 14.0\vc\include\xstring
; File e:\tool\c++incolude\jsoncpp-src-0.5.0\src\lib_json\json_writer.cpp
; File c:\program files (x86)\microsoft visual studio 14.0\vc\include\xstring
; File e:\tool\c++incolude\jsoncpp-src-0.5.0\src\lib_json\json_writer.cpp
; File c:\program files (x86)\microsoft visual studio 14.0\vc\include\xstring
; File c:\program files (x86)\microsoft visual studio 14.0\vc\include\iosfwd
; File c:\program files (x86)\microsoft visual studio 14.0\vc\include\xstring
; File e:\tool\c++incolude\jsoncpp-src-0.5.0\src\lib_json\json_writer.cpp
;	COMDAT ?write@FastWriter@Json@@UAE?AV?$basic_string@DU?$char_traits@D@std@@V?$allocator@D@2@@std@@ABVValue@2@@Z
_TEXT	SEGMENT
$T1 = -4						; size = 4
___$ReturnUdt$ = 8					; size = 4
_root$ = 12						; size = 4
?write@FastWriter@Json@@UAE?AV?$basic_string@DU?$char_traits@D@std@@V?$allocator@D@2@@std@@ABVValue@2@@Z PROC ; Json::FastWriter::write, COMDAT
; _this$ = ecx

; 199  : {

	push	ebp
	mov	ebp, esp
	push	ecx
	push	esi
	mov	esi, ecx
	mov	DWORD PTR $T1[ebp], 0
	push	edi
; File c:\program files (x86)\microsoft visual studio 14.0\vc\include\xstring

; 1182 : 		return (assign(_Ptr, _Traits::length(_Ptr)));

	push	0
	push	OFFSET ??_C@_00CNPNBAHC@?$AA@
; File e:\tool\c++incolude\jsoncpp-src-0.5.0\src\lib_json\json_writer.cpp

; 200  :    document_ = "";

	lea	edi, DWORD PTR [esi+4]
; File c:\program files (x86)\microsoft visual studio 14.0\vc\include\xstring

; 1182 : 		return (assign(_Ptr, _Traits::length(_Ptr)));

	mov	ecx, edi
	call	?assign@?$basic_string@DU?$char_traits@D@std@@V?$allocator@D@2@@std@@QAEAAV12@PBDI@Z ; std::basic_string<char,std::char_traits<char>,std::allocator<char> >::assign
; File e:\tool\c++incolude\jsoncpp-src-0.5.0\src\lib_json\json_writer.cpp

; 201  :    writeValue( root );

	push	DWORD PTR _root$[ebp]
	mov	ecx, esi
	call	?writeValue@FastWriter@Json@@AAEXABVValue@2@@Z ; Json::FastWriter::writeValue
; File c:\program files (x86)\microsoft visual studio 14.0\vc\include\xstring

; 1107 : 		return (append(_Ptr, _Traits::length(_Ptr)));

	push	1
	push	OFFSET ??_C@_01EEMJAFIK@?6?$AA@
	mov	ecx, edi
	call	?append@?$basic_string@DU?$char_traits@D@std@@V?$allocator@D@2@@std@@QAEAAV12@PBDI@Z ; std::basic_string<char,std::char_traits<char>,std::allocator<char> >::append

; 2260 : 		this->_Myres() = this->_BUF_SIZE - 1;

	mov	esi, DWORD PTR ___$ReturnUdt$[ebp]

; 782  : 		assign(_Right, 0, npos);

	mov	ecx, esi
	push	-1
	push	0
	push	edi

; 2260 : 		this->_Myres() = this->_BUF_SIZE - 1;

	mov	DWORD PTR [esi+20], 15			; 0000000fH

; 2219 : 		_Traits::assign(_Dx._Myptr()[_Dx._Mysize = _Newsize], _Elem());

	mov	DWORD PTR [esi+16], 0
; File c:\program files (x86)\microsoft visual studio 14.0\vc\include\iosfwd

; 565  : 		_Left = _Right;

	mov	BYTE PTR [esi], 0
; File c:\program files (x86)\microsoft visual studio 14.0\vc\include\xstring

; 782  : 		assign(_Right, 0, npos);

	call	?assign@?$basic_string@DU?$char_traits@D@std@@V?$allocator@D@2@@std@@QAEAAV12@ABV12@II@Z ; std::basic_string<char,std::char_traits<char>,std::allocator<char> >::assign
	pop	edi
; File e:\tool\c++incolude\jsoncpp-src-0.5.0\src\lib_json\json_writer.cpp

; 203  :    return document_;

	mov	eax, esi
	pop	esi

; 204  : }

	mov	esp, ebp
	pop	ebp
	ret	8
?write@FastWriter@Json@@UAE?AV?$basic_string@DU?$char_traits@D@std@@V?$allocator@D@2@@std@@ABVValue@2@@Z ENDP ; Json::FastWriter::write
_TEXT	ENDS
; Function compile flags: /Ogtp
; File c:\program files (x86)\windows kits\10\include\10.0.10240.0\ucrt\stdio.h
;	COMDAT __vsprintf_s_l
_TEXT	SEGMENT
__Format$ = 8						; size = 4
__Locale$dead$ = 12					; size = 4
__ArgList$ = 16						; size = 4
__vsprintf_s_l PROC					; COMDAT
; __Buffer$ = ecx
; __BufferCount$ = edx

; 1493 : {

	push	ebp
	mov	ebp, esp

; 1494 :     int const _Result = __stdio_common_vsprintf_s(

	push	DWORD PTR __ArgList$[ebp]
	push	0
	push	DWORD PTR __Format$[ebp]
	push	edx
	push	ecx
	call	___local_stdio_printf_options
	push	DWORD PTR [eax+4]
	push	DWORD PTR [eax]
	call	DWORD PTR __imp____stdio_common_vsprintf_s

; 1495 :         _CRT_INTERNAL_LOCAL_PRINTF_OPTIONS,
; 1496 :         _Buffer, _BufferCount, _Format, _Locale, _ArgList);
; 1497 : 
; 1498 :     return _Result < 0 ? -1 : _Result;

	or	ecx, -1
	add	esp, 28					; 0000001cH
	test	eax, eax
	cmovs	eax, ecx

; 1499 : }

	pop	ebp
	ret	0
__vsprintf_s_l ENDP
_TEXT	ENDS
; Function compile flags: /Ogtp
; File c:\program files (x86)\windows kits\10\include\10.0.10240.0\ucrt\stdio.h
;	COMDAT _sprintf_s
_TEXT	SEGMENT
__Buffer$ = 8						; size = 4
__BufferCount$ = 12					; size = 4
__Format$ = 16						; size = 4
_sprintf_s PROC						; COMDAT

; 1834 :     {

	push	ebp
	mov	ebp, esp

; 1494 :     int const _Result = __stdio_common_vsprintf_s(

	lea	eax, DWORD PTR __Format$[ebp+4]
	push	eax
	push	0
	push	DWORD PTR __Format$[ebp]
	push	DWORD PTR __BufferCount$[ebp]
	push	DWORD PTR __Buffer$[ebp]
	call	___local_stdio_printf_options
	push	DWORD PTR [eax+4]
	push	DWORD PTR [eax]
	call	DWORD PTR __imp____stdio_common_vsprintf_s

; 1495 :         _CRT_INTERNAL_LOCAL_PRINTF_OPTIONS,
; 1496 :         _Buffer, _BufferCount, _Format, _Locale, _ArgList);
; 1497 : 
; 1498 :     return _Result < 0 ? -1 : _Result;

	or	ecx, -1
	add	esp, 28					; 0000001cH
	test	eax, eax
	cmovs	eax, ecx

; 1835 :         int _Result;
; 1836 :         va_list _ArgList;
; 1837 :         __crt_va_start(_ArgList, _Format);
; 1838 :         _Result = _vsprintf_s_l(_Buffer, _BufferCount, _Format, NULL, _ArgList);
; 1839 :         __crt_va_end(_ArgList);
; 1840 :         return _Result;
; 1841 :     }

	pop	ebp
	ret	0
_sprintf_s ENDP
_TEXT	ENDS
; Function compile flags: /Ogtp
; File c:\program files (x86)\microsoft visual studio 14.0\vc\include\iosfwd
;	COMDAT ?eq@?$char_traits@D@std@@SA_NABD0@Z
_TEXT	SEGMENT
?eq@?$char_traits@D@std@@SA_NABD0@Z PROC		; std::char_traits<char>::eq, COMDAT
; __Left$ = ecx
; __Right$ = edx

; 570  : 		{	// test for element equality

	mov	al, BYTE PTR [ecx]
	cmp	al, BYTE PTR [edx]
	sete	al

; 571  : 		return (_Left == _Right);
; 572  : 		}

	ret	0
?eq@?$char_traits@D@std@@SA_NABD0@Z ENDP		; std::char_traits<char>::eq
_TEXT	ENDS
; Function compile flags: /Ogtp
; File c:\program files (x86)\microsoft visual studio 14.0\vc\include\iosfwd
;	COMDAT ?not_eof@?$char_traits@D@std@@SAHABH@Z
_TEXT	SEGMENT
?not_eof@?$char_traits@D@std@@SAHABH@Z PROC		; std::char_traits<char>::not_eof, COMDAT
; __Meta$ = ecx

; 601  : 		return (_Meta != eof() ? _Meta : !eof());

	mov	ecx, DWORD PTR [ecx]
	xor	eax, eax
	cmp	ecx, -1
	cmovne	eax, ecx

; 602  : 		}

	ret	0
?not_eof@?$char_traits@D@std@@SAHABH@Z ENDP		; std::char_traits<char>::not_eof
_TEXT	ENDS
; Function compile flags: /Ogtp
; File c:\program files (x86)\microsoft visual studio 14.0\vc\include\ios
; File c:\program files (x86)\microsoft visual studio 14.0\vc\include\xiosbase
; File c:\program files (x86)\microsoft visual studio 14.0\vc\include\ios
;	COMDAT ?hex@std@@YAAAVios_base@1@AAV21@@Z
_TEXT	SEGMENT
__Iosbase$ = 8						; size = 4
?hex@std@@YAAAVios_base@1@AAV21@@Z PROC			; std::hex, COMDAT

; 238  : 	{	// set basefield to hex

	push	ebp
	mov	ebp, esp
; File c:\program files (x86)\microsoft visual studio 14.0\vc\include\xiosbase

; 399  : 		_Fmtfl = (fmtflags)(((int)_Fmtfl & (int)~_Mask)

	mov	eax, DWORD PTR __Iosbase$[ebp]
	mov	ecx, DWORD PTR [eax+20]
	and	ecx, -1537				; fffff9ffH
	or	ecx, 2048				; 00000800H
	mov	DWORD PTR [eax+20], ecx
; File c:\program files (x86)\microsoft visual studio 14.0\vc\include\ios

; 241  : 	}

	pop	ebp
	ret	0
?hex@std@@YAAAVios_base@1@AAV21@@Z ENDP			; std::hex
_TEXT	ENDS
; Function compile flags: /Ogtp
; File c:\program files (x86)\microsoft visual studio 14.0\vc\include\ios
; File c:\program files (x86)\microsoft visual studio 14.0\vc\include\xiosbase
; File c:\program files (x86)\microsoft visual studio 14.0\vc\include\ios
;	COMDAT ?uppercase@std@@YAAAVios_base@1@AAV21@@Z
_TEXT	SEGMENT
__Iosbase$ = 8						; size = 4
?uppercase@std@@YAAAVios_base@1@AAV21@@Z PROC		; std::uppercase, COMDAT

; 358  : 	{	// set uppercase

	push	ebp
	mov	ebp, esp
; File c:\program files (x86)\microsoft visual studio 14.0\vc\include\xiosbase

; 391  : 		_Fmtfl = (fmtflags)((int)_Fmtfl

	mov	eax, DWORD PTR __Iosbase$[ebp]
	or	DWORD PTR [eax+20], 4
; File c:\program files (x86)\microsoft visual studio 14.0\vc\include\ios

; 361  : 	}

	pop	ebp
	ret	0
?uppercase@std@@YAAAVios_base@1@AAV21@@Z ENDP		; std::uppercase
_TEXT	ENDS
; Function compile flags: /Ogtp
; File e:\tool\c++incolude\jsoncpp-src-0.5.0\src\lib_json\json_writer.cpp
;	COMDAT ?isControlCharacter@Json@@YA_ND@Z
_TEXT	SEGMENT
?isControlCharacter@Json@@YA_ND@Z PROC			; Json::isControlCharacter, COMDAT
; _ch$ = cl

; 18   :    return ch > 0 && ch <= 0x1F;

	dec	cl
	mov	eax, 30					; 0000001eH
	cmp	al, cl
	sbb	eax, eax
	inc	eax

; 19   : }

	ret	0
?isControlCharacter@Json@@YA_ND@Z ENDP			; Json::isControlCharacter
_TEXT	ENDS
; Function compile flags: /Ogtp
; File e:\tool\c++incolude\jsoncpp-src-0.5.0\src\lib_json\json_writer.cpp
;	COMDAT ?containsControlCharacter@Json@@YA_NPBD@Z
_TEXT	SEGMENT
?containsControlCharacter@Json@@YA_NPBD@Z PROC		; Json::containsControlCharacter, COMDAT
; _str$ = ecx

; 23   :    while ( *str ) 

	mov	al, BYTE PTR [ecx]
	test	al, al
	je	SHORT $LN3@containsCo
$LL2@containsCo:

; 18   :    return ch > 0 && ch <= 0x1F;

	dec	al

; 24   :    {
; 25   :       if ( isControlCharacter( *(str++) ) )

	lea	ecx, DWORD PTR [ecx+1]

; 18   :    return ch > 0 && ch <= 0x1F;

	mov	dl, 30					; 0000001eH
	cmp	dl, al
	sbb	eax, eax
	inc	eax

; 24   :    {
; 25   :       if ( isControlCharacter( *(str++) ) )

	test	al, al
	jne	SHORT $LN11@containsCo

; 23   :    while ( *str ) 

	mov	al, BYTE PTR [ecx]
	test	al, al
	jne	SHORT $LL2@containsCo
$LN3@containsCo:

; 27   :    }
; 28   :    return false;

	xor	al, al

; 29   : }

	ret	0
$LN11@containsCo:

; 26   :          return true;

	mov	al, 1

; 29   : }

	ret	0
?containsControlCharacter@Json@@YA_NPBD@Z ENDP		; Json::containsControlCharacter
_TEXT	ENDS
; Function compile flags: /Ogtp
; File e:\tool\c++incolude\jsoncpp-src-0.5.0\src\lib_json\json_writer.cpp
;	COMDAT ?uintToString@Json@@YAXIAAPAD@Z
_TEXT	SEGMENT
?uintToString@Json@@YAXIAAPAD@Z PROC			; Json::uintToString, COMDAT
; _value$ = ecx
; _current$ = edx

; 32   : {

	push	ebx
	push	esi
	push	edi
	mov	edi, edx

; 33   :    *--current = 0;

	dec	DWORD PTR [edi]
	mov	esi, DWORD PTR [edi]
	mov	BYTE PTR [esi], 0
	npad	4
$LL4@uintToStri:

; 34   :    do
; 35   :    {
; 36   :       *--current = (value % 10) + '0';

	mov	eax, -858993459				; cccccccdH
	dec	esi
	mul	ecx
	mov	DWORD PTR [edi], esi
	shr	edx, 3
	mov	al, dl
	shl	al, 2
	lea	ebx, DWORD PTR [eax+edx]
	add	bl, bl
	sub	cl, bl
	add	cl, 48					; 00000030H
	mov	BYTE PTR [esi], cl

; 37   :       value /= 10;

	mov	ecx, edx

; 38   :    }
; 39   :    while ( value != 0 );

	test	ecx, ecx
	jne	SHORT $LL4@uintToStri

; 40   : }

	pop	edi
	pop	esi
	pop	ebx
	ret	0
?uintToString@Json@@YAXIAAPAD@Z ENDP			; Json::uintToString
_TEXT	ENDS
; Function compile flags: /Ogtp
; File e:\tool\c++incolude\jsoncpp-src-0.5.0\src\lib_json\json_writer.cpp
; File c:\program files (x86)\microsoft visual studio 14.0\vc\include\xstring
; File c:\program files (x86)\microsoft visual studio 14.0\vc\include\iosfwd
; File c:\program files (x86)\microsoft visual studio 14.0\vc\include\xstring
; File e:\tool\c++incolude\jsoncpp-src-0.5.0\src\lib_json\json_writer.cpp
;	COMDAT ?valueToString@Json@@YA?AV?$basic_string@DU?$char_traits@D@std@@V?$allocator@D@2@@std@@H@Z
_TEXT	SEGMENT
$T1 = -48						; size = 4
tv450 = -44						; size = 4
_buffer$ = -40						; size = 32
__$ArrayPad$ = -4					; size = 4
___$ReturnUdt$ = 8					; size = 4
_value$ = 12						; size = 4
?valueToString@Json@@YA?AV?$basic_string@DU?$char_traits@D@std@@V?$allocator@D@2@@std@@H@Z PROC ; Json::valueToString, COMDAT

; 43   : {

	push	ebp
	mov	ebp, esp
	sub	esp, 48					; 00000030H
	mov	eax, DWORD PTR ___security_cookie
	xor	eax, ebp
	mov	DWORD PTR __$ArrayPad$[ebp], eax

; 44   :    char buffer[32];
; 45   :    char *current = buffer + sizeof(buffer);
; 46   :    bool isNegative = value < 0;

	mov	eax, DWORD PTR _value$[ebp]
	mov	ecx, eax
	push	ebx
	shr	ecx, 31					; 0000001fH
	mov	ebx, eax
	neg	ebx
	mov	DWORD PTR $T1[ebp], 0
	push	esi
	test	cl, cl
	mov	DWORD PTR tv450[ebp], ecx
	push	edi
	mov	edi, DWORD PTR ___$ReturnUdt$[ebp]

; 33   :    *--current = 0;

	lea	esi, DWORD PTR _buffer$[ebp+31]
	cmove	ebx, eax
	mov	BYTE PTR _buffer$[ebp+31], 0
$LL10@valueToStr:

; 34   :    do
; 35   :    {
; 36   :       *--current = (value % 10) + '0';

	mov	eax, -858993459				; cccccccdH
	dec	esi
	mul	ebx
	shr	edx, 3
	mov	al, dl
	shl	al, 2
	lea	ecx, DWORD PTR [eax+edx]
	add	cl, cl
	sub	bl, cl
	add	bl, 48					; 00000030H
	mov	BYTE PTR [esi], bl

; 37   :       value /= 10;

	mov	ebx, edx

; 38   :    }
; 39   :    while ( value != 0 );

	test	ebx, ebx
	jne	SHORT $LL10@valueToStr

; 47   :    if ( isNegative )
; 48   :       value = -value;
; 49   :    uintToString( UInt(value), current );
; 50   :    if ( isNegative )

	cmp	BYTE PTR tv450[ebp], dl
	je	SHORT $LN3@valueToStr

; 51   :       *--current = '-';

	dec	esi
	mov	BYTE PTR [esi], 45			; 0000002dH
$LN3@valueToStr:
; File c:\program files (x86)\microsoft visual studio 14.0\vc\include\xstring

; 2260 : 		this->_Myres() = this->_BUF_SIZE - 1;

	mov	DWORD PTR [edi+20], 15			; 0000000fH

; 2219 : 		_Traits::assign(_Dx._Myptr()[_Dx._Mysize = _Newsize], _Elem());

	mov	DWORD PTR [edi+16], 0
; File c:\program files (x86)\microsoft visual studio 14.0\vc\include\iosfwd

; 565  : 		_Left = _Right;

	mov	BYTE PTR [edi], 0

; 523  : 		return (*_First == 0 ? 0

	cmp	BYTE PTR [esi], 0
	jne	SHORT $LN122@valueToStr
	xor	eax, eax
	jmp	SHORT $LN123@valueToStr
$LN122@valueToStr:
	mov	eax, esi
	lea	edx, DWORD PTR [eax+1]
$LL127@valueToStr:
	mov	cl, BYTE PTR [eax]
	inc	eax
	test	cl, cl
	jne	SHORT $LL127@valueToStr
	sub	eax, edx
$LN123@valueToStr:
; File c:\program files (x86)\microsoft visual studio 14.0\vc\include\xstring

; 1182 : 		return (assign(_Ptr, _Traits::length(_Ptr)));

	push	eax
	push	esi
	mov	ecx, edi
	call	?assign@?$basic_string@DU?$char_traits@D@std@@V?$allocator@D@2@@std@@QAEAAV12@PBDI@Z ; std::basic_string<char,std::char_traits<char>,std::allocator<char> >::assign
; File e:\tool\c++incolude\jsoncpp-src-0.5.0\src\lib_json\json_writer.cpp

; 54   : }

	mov	ecx, DWORD PTR __$ArrayPad$[ebp]
	mov	eax, edi
	pop	edi
	pop	esi
	xor	ecx, ebp
	pop	ebx
	call	@__security_check_cookie@4
	mov	esp, ebp
	pop	ebp
	ret	0
?valueToString@Json@@YA?AV?$basic_string@DU?$char_traits@D@std@@V?$allocator@D@2@@std@@H@Z ENDP ; Json::valueToString
_TEXT	ENDS
; Function compile flags: /Ogtp
; File e:\tool\c++incolude\jsoncpp-src-0.5.0\src\lib_json\json_writer.cpp
; File c:\program files (x86)\microsoft visual studio 14.0\vc\include\xstring
; File c:\program files (x86)\microsoft visual studio 14.0\vc\include\iosfwd
; File c:\program files (x86)\microsoft visual studio 14.0\vc\include\xstring
; File e:\tool\c++incolude\jsoncpp-src-0.5.0\src\lib_json\json_writer.cpp
;	COMDAT ?valueToString@Json@@YA?AV?$basic_string@DU?$char_traits@D@std@@V?$allocator@D@2@@std@@I@Z
_TEXT	SEGMENT
$T1 = -40						; size = 4
_buffer$ = -36						; size = 32
__$ArrayPad$ = -4					; size = 4
___$ReturnUdt$ = 8					; size = 4
_value$ = 12						; size = 4
?valueToString@Json@@YA?AV?$basic_string@DU?$char_traits@D@std@@V?$allocator@D@2@@std@@I@Z PROC ; Json::valueToString, COMDAT

; 58   : {

	push	ebp
	mov	ebp, esp
	sub	esp, 40					; 00000028H
	mov	eax, DWORD PTR ___security_cookie
	xor	eax, ebp
	mov	DWORD PTR __$ArrayPad$[ebp], eax
	push	ebx

; 59   :    char buffer[32];
; 60   :    char *current = buffer + sizeof(buffer);
; 61   :    uintToString( value, current );

	mov	ebx, DWORD PTR _value$[ebp]
	push	esi
	push	edi
	mov	edi, DWORD PTR ___$ReturnUdt$[ebp]

; 33   :    *--current = 0;

	lea	esi, DWORD PTR _buffer$[ebp+31]
	mov	DWORD PTR $T1[ebp], 0
	mov	BYTE PTR _buffer$[ebp+31], 0
$LL8@valueToStr:

; 34   :    do
; 35   :    {
; 36   :       *--current = (value % 10) + '0';

	mov	eax, -858993459				; cccccccdH
	dec	esi
	mul	ebx
	shr	edx, 3
	mov	al, dl
	shl	al, 2
	lea	ecx, DWORD PTR [eax+edx]
	add	cl, cl
	sub	bl, cl
	add	bl, 48					; 00000030H
	mov	BYTE PTR [esi], bl

; 37   :       value /= 10;

	mov	ebx, edx

; 38   :    }
; 39   :    while ( value != 0 );

	test	ebx, ebx
	jne	SHORT $LL8@valueToStr
; File c:\program files (x86)\microsoft visual studio 14.0\vc\include\xstring

; 2260 : 		this->_Myres() = this->_BUF_SIZE - 1;

	mov	DWORD PTR [edi+20], 15			; 0000000fH

; 2219 : 		_Traits::assign(_Dx._Myptr()[_Dx._Mysize = _Newsize], _Elem());

	mov	DWORD PTR [edi+16], edx
; File c:\program files (x86)\microsoft visual studio 14.0\vc\include\iosfwd

; 565  : 		_Left = _Right;

	mov	BYTE PTR [edi], dl

; 523  : 		return (*_First == 0 ? 0

	cmp	BYTE PTR [esi], dl
	jne	SHORT $LN120@valueToStr
	xor	eax, eax
	jmp	SHORT $LN121@valueToStr
$LN120@valueToStr:
	mov	eax, esi
	lea	edx, DWORD PTR [eax+1]
$LL125@valueToStr:
	mov	cl, BYTE PTR [eax]
	inc	eax
	test	cl, cl
	jne	SHORT $LL125@valueToStr
	sub	eax, edx
$LN121@valueToStr:
; File c:\program files (x86)\microsoft visual studio 14.0\vc\include\xstring

; 1182 : 		return (assign(_Ptr, _Traits::length(_Ptr)));

	push	eax
	push	esi
	mov	ecx, edi
	call	?assign@?$basic_string@DU?$char_traits@D@std@@V?$allocator@D@2@@std@@QAEAAV12@PBDI@Z ; std::basic_string<char,std::char_traits<char>,std::allocator<char> >::assign
; File e:\tool\c++incolude\jsoncpp-src-0.5.0\src\lib_json\json_writer.cpp

; 64   : }

	mov	ecx, DWORD PTR __$ArrayPad$[ebp]
	mov	eax, edi
	pop	edi
	pop	esi
	xor	ecx, ebp
	pop	ebx
	call	@__security_check_cookie@4
	mov	esp, ebp
	pop	ebp
	ret	0
?valueToString@Json@@YA?AV?$basic_string@DU?$char_traits@D@std@@V?$allocator@D@2@@std@@I@Z ENDP ; Json::valueToString
_TEXT	ENDS
; Function compile flags: /Ogtp
; File e:\tool\c++incolude\jsoncpp-src-0.5.0\src\lib_json\json_writer.cpp
; File c:\program files (x86)\microsoft visual studio 14.0\vc\include\xstring
; File c:\program files (x86)\microsoft visual studio 14.0\vc\include\iosfwd
; File e:\tool\c++incolude\jsoncpp-src-0.5.0\src\lib_json\json_writer.cpp
; File c:\program files (x86)\microsoft visual studio 14.0\vc\include\xstring
; File c:\program files (x86)\microsoft visual studio 14.0\vc\include\iosfwd
; File c:\program files (x86)\microsoft visual studio 14.0\vc\include\xstring
; File c:\program files (x86)\microsoft visual studio 14.0\vc\include\iosfwd
; File e:\tool\c++incolude\jsoncpp-src-0.5.0\src\lib_json\json_writer.cpp
; File c:\program files (x86)\microsoft visual studio 14.0\vc\include\xstring
; File c:\program files (x86)\microsoft visual studio 14.0\vc\include\iosfwd
; File e:\tool\c++incolude\jsoncpp-src-0.5.0\src\lib_json\json_writer.cpp
; File c:\program files (x86)\microsoft visual studio 14.0\vc\include\iosfwd
; File c:\program files (x86)\microsoft visual studio 14.0\vc\include\xstring
; File e:\tool\c++incolude\jsoncpp-src-0.5.0\src\lib_json\json_writer.cpp
;	COMDAT ?valueToString@Json@@YA?AV?$basic_string@DU?$char_traits@D@std@@V?$allocator@D@2@@std@@N@Z
_TEXT	SEGMENT
$T1 = -40						; size = 4
_buffer$ = -36						; size = 32
__$ArrayPad$ = -4					; size = 4
___$ReturnUdt$ = 8					; size = 4
_value$ = 12						; size = 8
?valueToString@Json@@YA?AV?$basic_string@DU?$char_traits@D@std@@V?$allocator@D@2@@std@@N@Z PROC ; Json::valueToString, COMDAT

; 67   : {

	push	ebp
	mov	ebp, esp
	sub	esp, 40					; 00000028H
	mov	eax, DWORD PTR ___security_cookie
	xor	eax, ebp
	mov	DWORD PTR __$ArrayPad$[ebp], eax

; 68   :    char buffer[32];
; 69   : #if defined(_MSC_VER) && defined(__STDC_SECURE_LIB__) // Use secure version with visual studio 2005 to avoid warning. 
; 70   :    sprintf_s(buffer, sizeof(buffer), "%#.16g", value); 

	movsd	xmm0, QWORD PTR _value$[ebp]
	lea	eax, DWORD PTR _buffer$[ebp]
	push	esi
	mov	esi, DWORD PTR ___$ReturnUdt$[ebp]
	sub	esp, 8
	mov	DWORD PTR $T1[ebp], 0
	movsd	QWORD PTR [esp], xmm0
	push	OFFSET ??_C@_06ECBCCLMB@?$CF?$CD?416g?$AA@
	push	32					; 00000020H
	push	eax
	call	_sprintf_s

; 71   : #else	
; 72   :    sprintf(buffer, "%#.16g", value); 
; 73   : #endif
; 74   :    char* ch = buffer + strlen(buffer) - 1;

	lea	ecx, DWORD PTR _buffer$[ebp]
	add	esp, 20					; 00000014H
	lea	edx, DWORD PTR [ecx+1]
$LL472@valueToStr:
	mov	al, BYTE PTR [ecx]
	inc	ecx
	test	al, al
	jne	SHORT $LL472@valueToStr
	sub	ecx, edx

; 75   :    if (*ch != '0') return buffer; // nothing to truncate, so save time

	cmp	BYTE PTR _buffer$[ebp+ecx-1], 48	; 00000030H
	lea	eax, DWORD PTR _buffer$[ebp+ecx-1]
	je	SHORT $LN463@valueToStr
; File c:\program files (x86)\microsoft visual studio 14.0\vc\include\xstring

; 2260 : 		this->_Myres() = this->_BUF_SIZE - 1;

	mov	DWORD PTR [esi+20], 15			; 0000000fH

; 2219 : 		_Traits::assign(_Dx._Myptr()[_Dx._Mysize = _Newsize], _Elem());

	mov	DWORD PTR [esi+16], 0
; File c:\program files (x86)\microsoft visual studio 14.0\vc\include\iosfwd

; 565  : 		_Left = _Right;

	mov	BYTE PTR [esi], 0

; 523  : 		return (*_First == 0 ? 0

	cmp	BYTE PTR _buffer$[ebp], 0
	je	SHORT $LN479@valueToStr
	lea	ecx, DWORD PTR _buffer$[ebp]
	lea	edx, DWORD PTR [ecx+1]
$LL473@valueToStr:
	mov	al, BYTE PTR [ecx]
	inc	ecx
	test	al, al
	jne	SHORT $LL473@valueToStr
; File e:\tool\c++incolude\jsoncpp-src-0.5.0\src\lib_json\json_writer.cpp

; 75   :    if (*ch != '0') return buffer; // nothing to truncate, so save time

	jmp	$LN478@valueToStr
$LN463@valueToStr:

; 76   :    while(ch > buffer && *ch == '0'){

	lea	ecx, DWORD PTR _buffer$[ebp]
	cmp	eax, ecx
	jbe	SHORT $LN477@valueToStr
$LL2@valueToStr:
	cmp	BYTE PTR [eax], 48			; 00000030H
	jne	SHORT $LN477@valueToStr

; 77   :      --ch;

	dec	eax
	lea	ecx, DWORD PTR _buffer$[ebp]
	cmp	eax, ecx
	ja	SHORT $LL2@valueToStr
$LN477@valueToStr:

; 78   :    }
; 79   :    char* last_nonzero = ch;
; 80   :    while(ch >= buffer){

	lea	ecx, DWORD PTR _buffer$[ebp]
	mov	edx, eax
	cmp	eax, ecx
	jb	SHORT $LN5@valueToStr
	npad	5
$LL4@valueToStr:

; 81   :      switch(*ch){

	mov	cl, BYTE PTR [eax]
	cmp	cl, 46					; 0000002eH
	je	SHORT $LN10@valueToStr
	sub	cl, 48					; 00000030H
	cmp	cl, 9
	ja	SHORT $LN465@valueToStr

; 82   :      case '0':
; 83   :      case '1':
; 84   :      case '2':
; 85   :      case '3':
; 86   :      case '4':
; 87   :      case '5':
; 88   :      case '6':
; 89   :      case '7':
; 90   :      case '8':
; 91   :      case '9':
; 92   :        --ch;

	dec	eax
	lea	ecx, DWORD PTR _buffer$[ebp]
	cmp	eax, ecx
	jae	SHORT $LL4@valueToStr
$LN5@valueToStr:
; File c:\program files (x86)\microsoft visual studio 14.0\vc\include\xstring

; 2260 : 		this->_Myres() = this->_BUF_SIZE - 1;

	mov	DWORD PTR [esi+20], 15			; 0000000fH

; 2219 : 		_Traits::assign(_Dx._Myptr()[_Dx._Mysize = _Newsize], _Elem());

	mov	DWORD PTR [esi+16], 0
; File c:\program files (x86)\microsoft visual studio 14.0\vc\include\iosfwd

; 565  : 		_Left = _Right;

	mov	BYTE PTR [esi], 0

; 523  : 		return (*_First == 0 ? 0

	cmp	BYTE PTR _buffer$[ebp], 0
	jne	SHORT $LN461@valueToStr
$LN479@valueToStr:
	xor	ecx, ecx
	jmp	SHORT $LN462@valueToStr
$LN465@valueToStr:
; File c:\program files (x86)\microsoft visual studio 14.0\vc\include\xstring

; 2260 : 		this->_Myres() = this->_BUF_SIZE - 1;

	mov	DWORD PTR [esi+20], 15			; 0000000fH

; 2219 : 		_Traits::assign(_Dx._Myptr()[_Dx._Mysize = _Newsize], _Elem());

	mov	DWORD PTR [esi+16], 0
; File c:\program files (x86)\microsoft visual studio 14.0\vc\include\iosfwd

; 565  : 		_Left = _Right;

	mov	BYTE PTR [esi], 0

; 523  : 		return (*_First == 0 ? 0

	cmp	BYTE PTR _buffer$[ebp], 0
	je	SHORT $LN479@valueToStr
	lea	ecx, DWORD PTR _buffer$[ebp]
	lea	edx, DWORD PTR [ecx+1]
	npad	1
$LL474@valueToStr:
	mov	al, BYTE PTR [ecx]
	inc	ecx
	test	al, al
	jne	SHORT $LL474@valueToStr
; File e:\tool\c++incolude\jsoncpp-src-0.5.0\src\lib_json\json_writer.cpp

; 99   :        return buffer;

	jmp	SHORT $LN478@valueToStr
$LN10@valueToStr:

; 93   :        continue;
; 94   :      case '.':
; 95   :        // Truncate zeroes to save bytes in output, but keep one.
; 96   :        *(last_nonzero+2) = '\0';

	mov	BYTE PTR [edx+2], 0
; File c:\program files (x86)\microsoft visual studio 14.0\vc\include\xstring

; 2260 : 		this->_Myres() = this->_BUF_SIZE - 1;

	mov	DWORD PTR [esi+20], 15			; 0000000fH

; 2219 : 		_Traits::assign(_Dx._Myptr()[_Dx._Mysize = _Newsize], _Elem());

	mov	DWORD PTR [esi+16], 0
; File c:\program files (x86)\microsoft visual studio 14.0\vc\include\iosfwd

; 565  : 		_Left = _Right;

	mov	BYTE PTR [esi], 0

; 523  : 		return (*_First == 0 ? 0

	cmp	BYTE PTR _buffer$[ebp], 0
	je	SHORT $LN479@valueToStr
	lea	ecx, DWORD PTR _buffer$[ebp]
	lea	edx, DWORD PTR [ecx+1]
	npad	6
$LL475@valueToStr:
	mov	al, BYTE PTR [ecx]
	inc	ecx
	test	al, al
	jne	SHORT $LL475@valueToStr
; File e:\tool\c++incolude\jsoncpp-src-0.5.0\src\lib_json\json_writer.cpp

; 97   :        return buffer;

	jmp	SHORT $LN478@valueToStr
$LN461@valueToStr:
; File c:\program files (x86)\microsoft visual studio 14.0\vc\include\iosfwd

; 523  : 		return (*_First == 0 ? 0

	lea	ecx, DWORD PTR _buffer$[ebp]
	lea	edx, DWORD PTR [ecx+1]
	npad	1
$LL476@valueToStr:
	mov	al, BYTE PTR [ecx]
	inc	ecx
	test	al, al
	jne	SHORT $LL476@valueToStr
$LN478@valueToStr:
	sub	ecx, edx
$LN462@valueToStr:
; File c:\program files (x86)\microsoft visual studio 14.0\vc\include\xstring

; 1182 : 		return (assign(_Ptr, _Traits::length(_Ptr)));

	push	ecx
	lea	eax, DWORD PTR _buffer$[ebp]
	mov	ecx, esi
	push	eax
	call	?assign@?$basic_string@DU?$char_traits@D@std@@V?$allocator@D@2@@std@@QAEAAV12@PBDI@Z ; std::basic_string<char,std::char_traits<char>,std::allocator<char> >::assign
; File e:\tool\c++incolude\jsoncpp-src-0.5.0\src\lib_json\json_writer.cpp

; 103  : }

	mov	ecx, DWORD PTR __$ArrayPad$[ebp]
	mov	eax, esi
	xor	ecx, ebp
	pop	esi
	call	@__security_check_cookie@4
	mov	esp, ebp
	pop	ebp
	ret	0
?valueToString@Json@@YA?AV?$basic_string@DU?$char_traits@D@std@@V?$allocator@D@2@@std@@N@Z ENDP ; Json::valueToString
_TEXT	ENDS
; Function compile flags: /Ogtp
; File e:\tool\c++incolude\jsoncpp-src-0.5.0\src\lib_json\json_writer.cpp
; File c:\program files (x86)\microsoft visual studio 14.0\vc\include\xstring
; File e:\tool\c++incolude\jsoncpp-src-0.5.0\src\lib_json\json_writer.cpp
; File c:\program files (x86)\microsoft visual studio 14.0\vc\include\xstring
; File c:\program files (x86)\microsoft visual studio 14.0\vc\include\iosfwd
; File c:\program files (x86)\microsoft visual studio 14.0\vc\include\xstring
; File e:\tool\c++incolude\jsoncpp-src-0.5.0\src\lib_json\json_writer.cpp
; File c:\program files (x86)\microsoft visual studio 14.0\vc\include\iosfwd
; File c:\program files (x86)\microsoft visual studio 14.0\vc\include\xstring
; File e:\tool\c++incolude\jsoncpp-src-0.5.0\src\lib_json\json_writer.cpp
;	COMDAT ?valueToString@Json@@YA?AV?$basic_string@DU?$char_traits@D@std@@V?$allocator@D@2@@std@@_N@Z
_TEXT	SEGMENT
$T1 = -4						; size = 4
___$ReturnUdt$ = 8					; size = 4
_value$ = 12						; size = 1
?valueToString@Json@@YA?AV?$basic_string@DU?$char_traits@D@std@@V?$allocator@D@2@@std@@_N@Z PROC ; Json::valueToString, COMDAT

; 107  : {

	push	ebp
	mov	ebp, esp
	push	ecx

; 108  :    return value ? "true" : "false";

	cmp	BYTE PTR _value$[ebp], 0
	mov	edx, OFFSET ??_C@_04LOAJBDKD@true?$AA@
	push	esi
; File c:\program files (x86)\microsoft visual studio 14.0\vc\include\xstring

; 2260 : 		this->_Myres() = this->_BUF_SIZE - 1;

	mov	esi, DWORD PTR ___$ReturnUdt$[ebp]
; File e:\tool\c++incolude\jsoncpp-src-0.5.0\src\lib_json\json_writer.cpp

; 108  :    return value ? "true" : "false";

	mov	eax, OFFSET ??_C@_05LAPONLG@false?$AA@
	cmove	edx, eax
	mov	DWORD PTR $T1[ebp], 0
; File c:\program files (x86)\microsoft visual studio 14.0\vc\include\xstring

; 2260 : 		this->_Myres() = this->_BUF_SIZE - 1;

	mov	DWORD PTR [esi+20], 15			; 0000000fH

; 2219 : 		_Traits::assign(_Dx._Myptr()[_Dx._Mysize = _Newsize], _Elem());

	mov	DWORD PTR [esi+16], 0
; File c:\program files (x86)\microsoft visual studio 14.0\vc\include\iosfwd

; 565  : 		_Left = _Right;

	mov	BYTE PTR [esi], 0

; 523  : 		return (*_First == 0 ? 0

	cmp	BYTE PTR [edx], 0
	jne	SHORT $LN115@valueToStr
	xor	ecx, ecx
; File c:\program files (x86)\microsoft visual studio 14.0\vc\include\xstring

; 1182 : 		return (assign(_Ptr, _Traits::length(_Ptr)));

	push	ecx
	push	edx
	mov	ecx, esi
	call	?assign@?$basic_string@DU?$char_traits@D@std@@V?$allocator@D@2@@std@@QAEAAV12@PBDI@Z ; std::basic_string<char,std::char_traits<char>,std::allocator<char> >::assign
; File e:\tool\c++incolude\jsoncpp-src-0.5.0\src\lib_json\json_writer.cpp

; 108  :    return value ? "true" : "false";

	mov	eax, esi
	pop	esi

; 109  : }

	mov	esp, ebp
	pop	ebp
	ret	0
$LN115@valueToStr:
; File c:\program files (x86)\microsoft visual studio 14.0\vc\include\iosfwd

; 523  : 		return (*_First == 0 ? 0

	mov	ecx, edx
	push	edi
	lea	edi, DWORD PTR [ecx+1]
	npad	2
$LL117@valueToStr:
	mov	al, BYTE PTR [ecx]
	inc	ecx
	test	al, al
	jne	SHORT $LL117@valueToStr
	sub	ecx, edi
	pop	edi
; File c:\program files (x86)\microsoft visual studio 14.0\vc\include\xstring

; 1182 : 		return (assign(_Ptr, _Traits::length(_Ptr)));

	push	ecx
	push	edx
	mov	ecx, esi
	call	?assign@?$basic_string@DU?$char_traits@D@std@@V?$allocator@D@2@@std@@QAEAAV12@PBDI@Z ; std::basic_string<char,std::char_traits<char>,std::allocator<char> >::assign
; File e:\tool\c++incolude\jsoncpp-src-0.5.0\src\lib_json\json_writer.cpp

; 108  :    return value ? "true" : "false";

	mov	eax, esi
	pop	esi

; 109  : }

	mov	esp, ebp
	pop	ebp
	ret	0
?valueToString@Json@@YA?AV?$basic_string@DU?$char_traits@D@std@@V?$allocator@D@2@@std@@_N@Z ENDP ; Json::valueToString
_TEXT	ENDS
; Function compile flags: /Ogtp
; File e:\tool\c++incolude\jsoncpp-src-0.5.0\src\lib_json\json_writer.cpp
; File c:\program files (x86)\microsoft visual studio 14.0\vc\include\xstring
; File c:\program files (x86)\microsoft visual studio 14.0\vc\include\iosfwd
; File c:\program files (x86)\microsoft visual studio 14.0\vc\include\xstring
; File e:\tool\c++incolude\jsoncpp-src-0.5.0\src\lib_json\json_writer.cpp
; File c:\program files (x86)\microsoft visual studio 14.0\vc\include\xstring
; File e:\tool\c++incolude\jsoncpp-src-0.5.0\src\lib_json\json_writer.cpp
; File c:\program files (x86)\microsoft visual studio 14.0\vc\include\xstring
; File c:\program files (x86)\microsoft visual studio 14.0\vc\include\iosfwd
; File c:\program files (x86)\microsoft visual studio 14.0\vc\include\xstring
; File e:\tool\c++incolude\jsoncpp-src-0.5.0\src\lib_json\json_writer.cpp
; File c:\program files (x86)\microsoft visual studio 14.0\vc\include\xstring
; File c:\program files (x86)\microsoft visual studio 14.0\vc\include\iosfwd
; File e:\tool\c++incolude\jsoncpp-src-0.5.0\src\lib_json\json_writer.cpp
; File c:\program files (x86)\microsoft visual studio 14.0\vc\include\xstring
; File c:\program files (x86)\microsoft visual studio 14.0\vc\include\iosfwd
; File c:\program files (x86)\microsoft visual studio 14.0\vc\include\xstring
; File e:\tool\c++incolude\jsoncpp-src-0.5.0\src\lib_json\json_writer.cpp
; File c:\program files (x86)\microsoft visual studio 14.0\vc\include\xstring
; File e:\tool\c++incolude\jsoncpp-src-0.5.0\src\lib_json\json_writer.cpp
; File c:\program files (x86)\microsoft visual studio 14.0\vc\include\xstring
; File e:\tool\c++incolude\jsoncpp-src-0.5.0\src\lib_json\json_writer.cpp
; File c:\program files (x86)\microsoft visual studio 14.0\vc\include\xstring
; File e:\tool\c++incolude\jsoncpp-src-0.5.0\src\lib_json\json_writer.cpp
; File c:\program files (x86)\microsoft visual studio 14.0\vc\include\xstring
; File e:\tool\c++incolude\jsoncpp-src-0.5.0\src\lib_json\json_writer.cpp
; File c:\program files (x86)\microsoft visual studio 14.0\vc\include\xstring
; File e:\tool\c++incolude\jsoncpp-src-0.5.0\src\lib_json\json_writer.cpp
; File c:\program files (x86)\microsoft visual studio 14.0\vc\include\xstring
; File e:\tool\c++incolude\jsoncpp-src-0.5.0\src\lib_json\json_writer.cpp
; File c:\program files (x86)\microsoft visual studio 14.0\vc\include\xstring
; File e:\tool\c++incolude\jsoncpp-src-0.5.0\src\lib_json\json_writer.cpp
; File c:\program files (x86)\microsoft visual studio 14.0\vc\include\sstream
; File e:\tool\c++incolude\jsoncpp-src-0.5.0\src\lib_json\json_writer.cpp
; File c:\program files (x86)\microsoft visual studio 14.0\vc\include\iomanip
; File c:\program files (x86)\microsoft visual studio 14.0\vc\include\ios
; File e:\tool\c++incolude\jsoncpp-src-0.5.0\src\lib_json\json_writer.cpp
; File c:\program files (x86)\microsoft visual studio 14.0\vc\include\iomanip
; File e:\tool\c++incolude\jsoncpp-src-0.5.0\src\lib_json\json_writer.cpp
; File c:\program files (x86)\microsoft visual studio 14.0\vc\include\iomanip
; File e:\tool\c++incolude\jsoncpp-src-0.5.0\src\lib_json\json_writer.cpp
; File c:\program files (x86)\microsoft visual studio 14.0\vc\include\xstring
; File e:\tool\c++incolude\jsoncpp-src-0.5.0\src\lib_json\json_writer.cpp
; File c:\program files (x86)\microsoft visual studio 14.0\vc\include\xstring
; File e:\tool\c++incolude\jsoncpp-src-0.5.0\src\lib_json\json_writer.cpp
; File c:\program files (x86)\microsoft visual studio 14.0\vc\include\sstream
; File e:\tool\c++incolude\jsoncpp-src-0.5.0\src\lib_json\json_writer.cpp
; File c:\program files (x86)\microsoft visual studio 14.0\vc\include\xstring
; File c:\program files (x86)\microsoft visual studio 14.0\vc\include\iosfwd
; File c:\program files (x86)\microsoft visual studio 14.0\vc\include\xstring
; File c:\program files (x86)\microsoft visual studio 14.0\vc\include\iosfwd
; File c:\program files (x86)\microsoft visual studio 14.0\vc\include\xstring
; File c:\program files (x86)\microsoft visual studio 14.0\vc\include\iosfwd
; File c:\program files (x86)\microsoft visual studio 14.0\vc\include\xstring
; File c:\program files (x86)\microsoft visual studio 14.0\vc\include\xmemory0
; File c:\program files (x86)\microsoft visual studio 14.0\vc\include\xstring
; File e:\tool\c++incolude\jsoncpp-src-0.5.0\src\lib_json\json_writer.cpp
;	COMDAT ?valueToQuotedString@Json@@YA?AV?$basic_string@DU?$char_traits@D@std@@V?$allocator@D@2@@std@@PBD@Z
_TEXT	SEGMENT
_oss$279 = -276						; size = 152
_this$ = -124						; size = 4
___$ReturnUdt$GSCopy$1$ = -120				; size = 4
$T1 = -116						; size = 4
$T126 = -112						; size = 24
$T31 = -88						; size = 24
$T4 = -64						; size = 24
$T125 = -56						; size = 16
_result$ = -40						; size = 24
__$ArrayPad$ = -16					; size = 4
__$EHRec$ = -12						; size = 12
___$ReturnUdt$ = 8					; size = 4
_value$ = 12						; size = 4
?valueToQuotedString@Json@@YA?AV?$basic_string@DU?$char_traits@D@std@@V?$allocator@D@2@@std@@PBD@Z PROC ; Json::valueToQuotedString, COMDAT

; 112  : {

	push	ebp
	mov	ebp, esp
	push	-1
	push	__ehhandler$?valueToQuotedString@Json@@YA?AV?$basic_string@DU?$char_traits@D@std@@V?$allocator@D@2@@std@@PBD@Z
	mov	eax, DWORD PTR fs:0
	push	eax
	sub	esp, 264				; 00000108H
	mov	eax, DWORD PTR ___security_cookie
	xor	eax, ebp
	mov	DWORD PTR __$ArrayPad$[ebp], eax
	push	ebx
	push	esi
	push	edi
	push	eax
	lea	eax, DWORD PTR __$EHRec$[ebp]
	mov	DWORD PTR fs:0, eax
	mov	esi, DWORD PTR _value$[ebp]
	mov	ebx, DWORD PTR ___$ReturnUdt$[ebp]

; 113  :    // Not sure how to handle unicode...
; 114  :    if (strpbrk(value, "\"\\\b\f\n\r\t") == NULL && !containsControlCharacter( value ))

	push	OFFSET ??_C@_07FKPPGBGM@?$CC?2?$AI?$AM?6?$AN?7?$AA@
	push	esi
	mov	DWORD PTR ___$ReturnUdt$GSCopy$1$[ebp], ebx
	mov	DWORD PTR $T1[ebp], 0
	call	DWORD PTR __imp__strpbrk
	add	esp, 8
	test	eax, eax
	jne	$LN7@valueToQuo
	mov	ecx, esi

; 23   :    while ( *str ) 

	cmp	BYTE PTR [esi], al
	je	SHORT $LN28@valueToQuo
	npad	5
$LL27@valueToQuo:

; 24   :    {
; 25   :       if ( isControlCharacter( *(str++) ) )

	mov	al, BYTE PTR [ecx]
	lea	ecx, DWORD PTR [ecx+1]

; 18   :    return ch > 0 && ch <= 0x1F;

	dec	al
	mov	dl, 30					; 0000001eH
	cmp	dl, al
	sbb	eax, eax
	inc	eax

; 25   :       if ( isControlCharacter( *(str++) ) )

	test	al, al
	jne	$LN7@valueToQuo

; 19   : }
; 20   : 
; 21   : static bool containsControlCharacter( const char* str )
; 22   : {
; 23   :    while ( *str ) 

	cmp	BYTE PTR [ecx], al
	jne	SHORT $LL27@valueToQuo
$LN28@valueToQuo:
; File c:\program files (x86)\microsoft visual studio 14.0\vc\include\xstring

; 1182 : 		return (assign(_Ptr, _Traits::length(_Ptr)));

	push	1
	push	OFFSET ??_C@_01BJJEKLCA@?$CC?$AA@
	lea	ecx, DWORD PTR $T4[ebp]

; 2260 : 		this->_Myres() = this->_BUF_SIZE - 1;

	mov	DWORD PTR $T4[ebp+20], 15		; 0000000fH

; 2219 : 		_Traits::assign(_Dx._Myptr()[_Dx._Mysize = _Newsize], _Elem());

	mov	DWORD PTR $T4[ebp+16], 0
; File c:\program files (x86)\microsoft visual studio 14.0\vc\include\iosfwd

; 565  : 		_Left = _Right;

	mov	BYTE PTR $T4[ebp], 0
; File c:\program files (x86)\microsoft visual studio 14.0\vc\include\xstring

; 1182 : 		return (assign(_Ptr, _Traits::length(_Ptr)));

	call	?assign@?$basic_string@DU?$char_traits@D@std@@V?$allocator@D@2@@std@@QAEAAV12@PBDI@Z ; std::basic_string<char,std::char_traits<char>,std::allocator<char> >::assign
; File e:\tool\c++incolude\jsoncpp-src-0.5.0\src\lib_json\json_writer.cpp

; 115  :       return std::string("\"") + value + "\"";

	push	esi
	lea	edx, DWORD PTR $T4[ebp]
	mov	DWORD PTR __$EHRec$[ebp+8], 0
	lea	ecx, DWORD PTR $T31[ebp]
	call	??$?HDU?$char_traits@D@std@@V?$allocator@D@1@@std@@YA?AV?$basic_string@DU?$char_traits@D@std@@V?$allocator@D@2@@0@$$QAV10@PBD@Z ; std::operator+<char,std::char_traits<char>,std::allocator<char> >
	push	OFFSET ??_C@_01BJJEKLCA@?$CC?$AA@
	mov	edx, eax
	mov	BYTE PTR __$EHRec$[ebp+8], 1
	mov	ecx, ebx
	call	??$?HDU?$char_traits@D@std@@V?$allocator@D@1@@std@@YA?AV?$basic_string@DU?$char_traits@D@std@@V?$allocator@D@2@@0@$$QAV10@PBD@Z ; std::operator+<char,std::char_traits<char>,std::allocator<char> >
; File c:\program files (x86)\microsoft visual studio 14.0\vc\include\xstring

; 2251 : 		else if (this->_BUF_SIZE <= this->_Myres())

	mov	eax, DWORD PTR $T31[ebp+20]
; File e:\tool\c++incolude\jsoncpp-src-0.5.0\src\lib_json\json_writer.cpp

; 115  :       return std::string("\"") + value + "\"";

	add	esp, 8
; File c:\program files (x86)\microsoft visual studio 14.0\vc\include\xstring

; 2251 : 		else if (this->_BUF_SIZE <= this->_Myres())

	cmp	eax, 16					; 00000010H
	jb	SHORT $LN153@valueToQuo

; 2252 : 			{	// copy any leftovers to small buffer and deallocate
; 2253 : 			pointer _Ptr = this->_Bx()._Ptr;
; 2254 : 			this->_Getal().destroy(_STD addressof(this->_Bx()._Ptr));
; 2255 : 			if (0 < _Newsize)
; 2256 : 				_Traits::copy(this->_Bx()._Buf,
; 2257 : 					_Unfancy(_Ptr), _Newsize);
; 2258 : 			this->_Getal().deallocate(_Ptr, this->_Myres() + 1);

	inc	eax
	push	eax
	push	DWORD PTR $T31[ebp]
	call	?deallocate@?$_Wrap_alloc@V?$allocator@D@std@@@std@@QAEXPADI@Z ; std::_Wrap_alloc<std::allocator<char> >::deallocate
$LN153@valueToQuo:

; 2251 : 		else if (this->_BUF_SIZE <= this->_Myres())

	mov	ecx, DWORD PTR $T4[ebp+20]

; 2260 : 		this->_Myres() = this->_BUF_SIZE - 1;

	mov	DWORD PTR $T31[ebp+20], 15		; 0000000fH

; 2219 : 		_Traits::assign(_Dx._Myptr()[_Dx._Mysize = _Newsize], _Elem());

	mov	DWORD PTR $T31[ebp+16], 0
; File c:\program files (x86)\microsoft visual studio 14.0\vc\include\iosfwd

; 565  : 		_Left = _Right;

	mov	BYTE PTR $T31[ebp], 0
; File c:\program files (x86)\microsoft visual studio 14.0\vc\include\xstring

; 2251 : 		else if (this->_BUF_SIZE <= this->_Myres())

	cmp	ecx, 16					; 00000010H
	jb	$LN254@valueToQuo

; 2252 : 			{	// copy any leftovers to small buffer and deallocate
; 2253 : 			pointer _Ptr = this->_Bx()._Ptr;
; 2254 : 			this->_Getal().destroy(_STD addressof(this->_Bx()._Ptr));
; 2255 : 			if (0 < _Newsize)
; 2256 : 				_Traits::copy(this->_Bx()._Buf,
; 2257 : 					_Unfancy(_Ptr), _Newsize);
; 2258 : 			this->_Getal().deallocate(_Ptr, this->_Myres() + 1);

	inc	ecx
	push	ecx
	push	DWORD PTR $T4[ebp]
	call	?deallocate@?$_Wrap_alloc@V?$allocator@D@std@@@std@@QAEXPADI@Z ; std::_Wrap_alloc<std::allocator<char> >::deallocate
; File e:\tool\c++incolude\jsoncpp-src-0.5.0\src\lib_json\json_writer.cpp

; 115  :       return std::string("\"") + value + "\"";

	jmp	$LN254@valueToQuo
$LN7@valueToQuo:

; 119  :    unsigned maxsize = strlen(value)*2 + 3; // allescaped+quotes+NULL

	mov	ecx, esi
	lea	edx, DWORD PTR [ecx+1]
$LL1213@valueToQuo:
	mov	al, BYTE PTR [ecx]
	inc	ecx
	test	al, al
	jne	SHORT $LL1213@valueToQuo
	sub	ecx, edx
; File c:\program files (x86)\microsoft visual studio 14.0\vc\include\xstring

; 2260 : 		this->_Myres() = this->_BUF_SIZE - 1;

	mov	DWORD PTR _result$[ebp+20], 15		; 0000000fH

; 2219 : 		_Traits::assign(_Dx._Myptr()[_Dx._Mysize = _Newsize], _Elem());

	mov	DWORD PTR _result$[ebp+16], 0
; File c:\program files (x86)\microsoft visual studio 14.0\vc\include\iosfwd

; 565  : 		_Left = _Right;

	mov	BYTE PTR _result$[ebp], al
; File e:\tool\c++incolude\jsoncpp-src-0.5.0\src\lib_json\json_writer.cpp

; 119  :    unsigned maxsize = strlen(value)*2 + 3; // allescaped+quotes+NULL

	lea	ecx, DWORD PTR [ecx*2+3]

; 120  :    std::string result;

	mov	DWORD PTR __$EHRec$[ebp+8], 2
; File c:\program files (x86)\microsoft visual studio 14.0\vc\include\xstring

; 1794 : 		if (this->_Mysize() <= _Newcap && this->_Myres() != _Newcap)

	cmp	ecx, 15					; 0000000fH
	je	SHORT $LN510@valueToQuo

; 1795 : 			{	// change reservation
; 1796 : 			size_type _Size = this->_Mysize();
; 1797 : 			if (_Grow(_Newcap, true))

	push	1
	push	ecx
	lea	ecx, DWORD PTR _result$[ebp]
	call	?_Grow@?$basic_string@DU?$char_traits@D@std@@V?$allocator@D@2@@std@@QAE_NI_N@Z ; std::basic_string<char,std::char_traits<char>,std::allocator<char> >::_Grow
	test	al, al
	je	SHORT $LN510@valueToQuo

; 514  : 		return (this->_BUF_SIZE <= _Myres

	cmp	DWORD PTR _result$[ebp+20], 16		; 00000010H
	lea	eax, DWORD PTR _result$[ebp]

; 2219 : 		_Traits::assign(_Dx._Myptr()[_Dx._Mysize = _Newsize], _Elem());

	mov	DWORD PTR _result$[ebp+16], 0

; 514  : 		return (this->_BUF_SIZE <= _Myres

	cmovae	eax, DWORD PTR _result$[ebp]
; File c:\program files (x86)\microsoft visual studio 14.0\vc\include\iosfwd

; 565  : 		_Left = _Right;

	mov	BYTE PTR [eax], 0
$LN510@valueToQuo:
; File c:\program files (x86)\microsoft visual studio 14.0\vc\include\xstring

; 1107 : 		return (append(_Ptr, _Traits::length(_Ptr)));

	push	1
	push	OFFSET ??_C@_01BJJEKLCA@?$CC?$AA@
	lea	ecx, DWORD PTR _result$[ebp]
	call	?append@?$basic_string@DU?$char_traits@D@std@@V?$allocator@D@2@@std@@QAEAAV12@PBDI@Z ; std::basic_string<char,std::char_traits<char>,std::allocator<char> >::append
; File e:\tool\c++incolude\jsoncpp-src-0.5.0\src\lib_json\json_writer.cpp

; 123  :    for (const char* c=value; *c != 0; ++c)

	cmp	BYTE PTR [esi], 0
	je	$LN743@valueToQuo
	mov	ebx, DWORD PTR $T1[ebp]
$LL4@valueToQuo:

; 124  :    {
; 125  :       switch(*c)

	mov	cl, BYTE PTR [esi]
	movsx	eax, cl
	add	eax, -8					; fffffff8H
	cmp	eax, 84					; 00000054H
	ja	$LN15@valueToQuo
	movzx	eax, BYTE PTR $LN1214@valueToQuo[eax]
	jmp	DWORD PTR $LN1216@valueToQuo[eax*4]
$LN8@valueToQuo:
; File c:\program files (x86)\microsoft visual studio 14.0\vc\include\xstring

; 1107 : 		return (append(_Ptr, _Traits::length(_Ptr)));

	push	2
	push	OFFSET ??_C@_02MCKKLHBJ@?2?$CC?$AA@
	lea	ecx, DWORD PTR _result$[ebp]
	call	?append@?$basic_string@DU?$char_traits@D@std@@V?$allocator@D@2@@std@@QAEAAV12@PBDI@Z ; std::basic_string<char,std::char_traits<char>,std::allocator<char> >::append
; File e:\tool\c++incolude\jsoncpp-src-0.5.0\src\lib_json\json_writer.cpp

; 129  :             break;

	jmp	$LN2@valueToQuo
$LN9@valueToQuo:
; File c:\program files (x86)\microsoft visual studio 14.0\vc\include\xstring

; 1107 : 		return (append(_Ptr, _Traits::length(_Ptr)));

	push	2
	push	OFFSET ??_C@_02HDBGODGB@?2?2?$AA@
	lea	ecx, DWORD PTR _result$[ebp]
	call	?append@?$basic_string@DU?$char_traits@D@std@@V?$allocator@D@2@@std@@QAEAAV12@PBDI@Z ; std::basic_string<char,std::char_traits<char>,std::allocator<char> >::append
; File e:\tool\c++incolude\jsoncpp-src-0.5.0\src\lib_json\json_writer.cpp

; 132  :             break;

	jmp	$LN2@valueToQuo
$LN10@valueToQuo:
; File c:\program files (x86)\microsoft visual studio 14.0\vc\include\xstring

; 1107 : 		return (append(_Ptr, _Traits::length(_Ptr)));

	push	2
	push	OFFSET ??_C@_02DCNDPIBM@?2b?$AA@
	lea	ecx, DWORD PTR _result$[ebp]
	call	?append@?$basic_string@DU?$char_traits@D@std@@V?$allocator@D@2@@std@@QAEAAV12@PBDI@Z ; std::basic_string<char,std::char_traits<char>,std::allocator<char> >::append
; File e:\tool\c++incolude\jsoncpp-src-0.5.0\src\lib_json\json_writer.cpp

; 135  :             break;

	jmp	$LN2@valueToQuo
$LN11@valueToQuo:
; File c:\program files (x86)\microsoft visual studio 14.0\vc\include\xstring

; 1107 : 		return (append(_Ptr, _Traits::length(_Ptr)));

	push	2
	push	OFFSET ??_C@_02FGLPDNBI@?2f?$AA@
	lea	ecx, DWORD PTR _result$[ebp]
	call	?append@?$basic_string@DU?$char_traits@D@std@@V?$allocator@D@2@@std@@QAEAAV12@PBDI@Z ; std::basic_string<char,std::char_traits<char>,std::allocator<char> >::append
; File e:\tool\c++incolude\jsoncpp-src-0.5.0\src\lib_json\json_writer.cpp

; 138  :             break;

	jmp	$LN2@valueToQuo
$LN12@valueToQuo:
; File c:\program files (x86)\microsoft visual studio 14.0\vc\include\xstring

; 1107 : 		return (append(_Ptr, _Traits::length(_Ptr)));

	push	2
	push	OFFSET ??_C@_02JOGGLHBA@?2n?$AA@
	lea	ecx, DWORD PTR _result$[ebp]
	call	?append@?$basic_string@DU?$char_traits@D@std@@V?$allocator@D@2@@std@@QAEAAV12@PBDI@Z ; std::basic_string<char,std::char_traits<char>,std::allocator<char> >::append
; File e:\tool\c++incolude\jsoncpp-src-0.5.0\src\lib_json\json_writer.cpp

; 141  :             break;

	jmp	$LN2@valueToQuo
$LN13@valueToQuo:
; File c:\program files (x86)\microsoft visual studio 14.0\vc\include\xstring

; 1107 : 		return (append(_Ptr, _Traits::length(_Ptr)));

	push	2
	push	OFFSET ??_C@_02HIBBOKEN@?2r?$AA@
	lea	ecx, DWORD PTR _result$[ebp]
	call	?append@?$basic_string@DU?$char_traits@D@std@@V?$allocator@D@2@@std@@QAEAAV12@PBDI@Z ; std::basic_string<char,std::char_traits<char>,std::allocator<char> >::append
; File e:\tool\c++incolude\jsoncpp-src-0.5.0\src\lib_json\json_writer.cpp

; 144  :             break;

	jmp	$LN2@valueToQuo
$LN566@valueToQuo:
; File c:\program files (x86)\microsoft visual studio 14.0\vc\include\xstring

; 1107 : 		return (append(_Ptr, _Traits::length(_Ptr)));

	push	2
	push	OFFSET ??_C@_02COELENML@?2t?$AA@
	lea	ecx, DWORD PTR _result$[ebp]
	call	?append@?$basic_string@DU?$char_traits@D@std@@V?$allocator@D@2@@std@@QAEAAV12@PBDI@Z ; std::basic_string<char,std::char_traits<char>,std::allocator<char> >::append
; File e:\tool\c++incolude\jsoncpp-src-0.5.0\src\lib_json\json_writer.cpp

; 147  :             break;

	jmp	$LN2@valueToQuo
$LN15@valueToQuo:

; 18   :    return ch > 0 && ch <= 0x1F;

	mov	al, cl
	mov	dl, 30					; 0000001eH
	dec	al
	cmp	dl, al
	sbb	eax, eax
	inc	eax

; 148  :          //case '/':
; 149  :             // Even though \/ is considered a legal escape in JSON, a bare
; 150  :             // slash is also legal, so I see no reason to escape it.
; 151  :             // (I hope I am not misunderstanding something.
; 152  :             // blep notes: actually escaping \/ may be useful in javascript to avoid </ 
; 153  :             // sequence.
; 154  :             // Should add a flag to allow this compatibility mode and prevent this 
; 155  :             // sequence from occurring.
; 156  :          default:
; 157  :             if ( isControlCharacter( *c ) )

	test	al, al
	je	$LN16@valueToQuo
; File c:\program files (x86)\microsoft visual studio 14.0\vc\include\sstream

; 492  : 		{	// construct empty writable character buffer

	lea	ecx, DWORD PTR _oss$279[ebp+80]
	mov	DWORD PTR _oss$279[ebp], OFFSET ??_8?$basic_ostringstream@DU?$char_traits@D@std@@V?$allocator@D@2@@std@@7B@
	call	DWORD PTR __imp_??0?$basic_ios@DU?$char_traits@D@std@@@std@@IAE@XZ
	push	0
	push	0
	lea	eax, DWORD PTR _oss$279[ebp+4]
	mov	BYTE PTR __$EHRec$[ebp+8], 3
	or	ebx, 2

; 313  : 
; 314  : 		if (_Count != 0
; 315  : 			&& (_Mystate & (_Noread | _Constant)) != (_Noread | _Constant))
; 316  : 			{	// finite buffer that can be read or written, set it up
; 317  : 			_Elem *_Pnew = _Al.allocate(_Count);
; 318  : 			_Traits::copy(_Pnew, _Ptr, _Count);
; 319  : 			_Seekhigh = _Pnew + _Count;
; 320  : 
; 321  : 			if (!(_Mystate & _Noread))
; 322  : 				_Mysb::setg(_Pnew, _Pnew,
; 323  : 					_Pnew + _Count);	// setup read buffer
; 324  : 			if (!(_Mystate & _Constant))
; 325  : 				{	// setup write buffer, and maybe read buffer
; 326  : 				_Mysb::setp(_Pnew,
; 327  : 					(_Mystate & (_Atend | _Append)) ? _Pnew + _Count : _Pnew,
; 328  : 					_Pnew + _Count);
; 329  : 				if (_Mysb::gptr() == 0)
; 330  : 					_Mysb::setg(_Pnew, 0, _Pnew);
; 331  : 				}
; 332  : 			_Mystate |= _Allocated;
; 333  : 			}
; 334  : 		}
; 335  : 
; 336  : 	void _Tidy()
; 337  : 		{	// discard any allocated buffer and clear pointers
; 338  : 		if (_Mystate & _Allocated)
; 339  : 			_Al.deallocate(_Mysb::eback(),
; 340  : 				(_Mysb::pptr() != 0 ? _Mysb::epptr()
; 341  : 					: _Mysb::egptr()) - _Mysb::eback());
; 342  : 		_Mysb::setg(0, 0, 0);
; 343  : 		_Mysb::setp(0, 0);
; 344  : 		_Seekhigh = 0;
; 345  : 		_Mystate &= ~_Allocated;
; 346  : 		}
; 347  : 
; 348  : private:
; 349  : 	enum
; 350  : 		{	// constant for minimum buffer size
; 351  : 		_MINSIZE = 32};
; 352  : 
; 353  : 	_Strstate _Getstate(ios_base::openmode _Mode)
; 354  : 		{	// convert open mode to stream state bits
; 355  : 		_Strstate _State = (_Strstate)0;
; 356  : 		if (!(_Mode & ios_base::in))
; 357  : 			_State |= _Noread;
; 358  : 		if (!(_Mode & ios_base::out))
; 359  : 			_State |= _Constant;
; 360  : 		if (_Mode & ios_base::app)
; 361  : 			_State |= _Append;
; 362  : 		if (_Mode & ios_base::ate)
; 363  : 			_State |= _Atend;
; 364  : 		return (_State);
; 365  : 		}
; 366  : 
; 367  : 	_Elem *_Seekhigh;	// the high-water pointer in character array
; 368  : 	_Strstate _Mystate;	// the stream state
; 369  : 	allocator_type _Al;	// the allocator object
; 370  : 	};
; 371  : 
; 372  : 	// basic_stringbuf TEMPLATE OPERATORS
; 373  : template<class _Elem,
; 374  : 	class _Traits,
; 375  : 	class _Alloc> inline
; 376  : 	void swap(basic_stringbuf<_Elem, _Traits, _Alloc>& _Left,
; 377  : 		basic_stringbuf<_Elem, _Traits, _Alloc>& _Right)
; 378  : 	{	// swap _Left and _Right basic_stringbufs
; 379  : 	_Left.swap(_Right);
; 380  : 	}
; 381  : 
; 382  : 		// TEMPLATE CLASS basic_istringstream
; 383  : template<class _Elem,
; 384  : 	class _Traits,
; 385  : 	class _Alloc>
; 386  : 	class basic_istringstream
; 387  : 		: public basic_istream<_Elem, _Traits>
; 388  : 	{	// input stream associated with a character array
; 389  : public:
; 390  : 	typedef basic_istringstream<_Elem, _Traits, _Alloc> _Myt;
; 391  : 	typedef basic_istream<_Elem, _Traits> _Mybase;
; 392  : 	typedef _Alloc allocator_type;
; 393  : 	typedef basic_stringbuf<_Elem, _Traits, _Alloc> _Mysb;
; 394  : 	typedef basic_string<_Elem, _Traits, _Alloc> _Mystr;
; 395  : 
; 396  : 	explicit basic_istringstream(ios_base::openmode _Mode = ios_base::in)
; 397  : 		: _Mybase(&_Stringbuffer),
; 398  : 			_Stringbuffer(_Mode | ios_base::in)
; 399  : 		{	// construct empty readable character buffer
; 400  : 		}
; 401  : 
; 402  : 	explicit basic_istringstream(const _Mystr& _Str,
; 403  : 		ios_base::openmode _Mode = ios_base::in)
; 404  : 		: _Mybase(&_Stringbuffer),
; 405  : 			_Stringbuffer(_Str, _Mode | ios_base::in)
; 406  : 		{	// construct readable character buffer from NTCS
; 407  : 		}
; 408  : 
; 409  : 	basic_istringstream(_Myt&& _Right)
; 410  : 		: _Mybase(&_Stringbuffer)
; 411  : 		{	// construct by moving _Right
; 412  : 		_Assign_rv(_STD forward<_Myt>(_Right));
; 413  : 		}
; 414  : 
; 415  : 	_Myt& operator=(_Myt&& _Right)
; 416  : 		{	// move from _Right
; 417  : 		_Assign_rv(_STD forward<_Myt>(_Right));
; 418  : 		return (*this);
; 419  : 		}
; 420  : 
; 421  : 	void _Assign_rv(_Myt&& _Right)
; 422  : 		{	// assign by moving _Right
; 423  : 		if (this != &_Right)
; 424  : 			{	// different, worth moving
; 425  : 			_Stringbuffer.str(_Mystr());
; 426  : 			this->swap(_Right);
; 427  : 			}
; 428  : 		}
; 429  : 
; 430  : 	void swap(_Myt& _Right)
; 431  : 		{	// swap with _Right
; 432  : 		if (this != &_Right)
; 433  : 			{	// different, swap base and buffer
; 434  : 			_Mybase::swap(_Right);
; 435  : 			_Stringbuffer.swap(_Right._Stringbuffer);
; 436  : 			}
; 437  : 		}
; 438  : 
; 439  : 	basic_istringstream(const _Myt&) = delete;
; 440  : 	_Myt& operator=(const _Myt&) = delete;
; 441  : 
; 442  : 	virtual ~basic_istringstream() _NOEXCEPT
; 443  : 		{	// destroy the object
; 444  : 		}
; 445  : 
; 446  : 	_Mysb *rdbuf() const
; 447  : 		{	// return pointer to file buffer
; 448  : 		return ((_Mysb *)&_Stringbuffer);
; 449  : 		}
; 450  : 
; 451  : 	_Mystr str() const
; 452  : 		{	// return string copy of character array
; 453  : 		return (_Stringbuffer.str());
; 454  : 		}
; 455  : 
; 456  : 	void str(const _Mystr& _Newstr)
; 457  : 		{	// replace character array from string
; 458  : 		_Stringbuffer.str(_Newstr);
; 459  : 		}
; 460  : 
; 461  : private:
; 462  : 	_Mysb _Stringbuffer;	// the string buffer
; 463  : 	};
; 464  : 
; 465  : 	// basic_istringstream TEMPLATE OPERATORS
; 466  : template<class _Elem,
; 467  : 	class _Traits,
; 468  : 	class _Alloc> inline
; 469  : 	void swap(basic_istringstream<_Elem, _Traits, _Alloc>& _Left,
; 470  : 		basic_istringstream<_Elem, _Traits, _Alloc>& _Right)
; 471  : 	{	// swap _Left and _Right basic_istringstreams
; 472  : 	_Left.swap(_Right);
; 473  : 	}
; 474  : 
; 475  : 		// TEMPLATE CLASS basic_ostringstream
; 476  : template<class _Elem,
; 477  : 	class _Traits,
; 478  : 	class _Alloc>
; 479  : 	class basic_ostringstream
; 480  : 		: public basic_ostream<_Elem, _Traits>
; 481  : 	{	// output stream associated with a character array
; 482  : public:
; 483  : 	typedef basic_ostringstream<_Elem, _Traits, _Alloc> _Myt;
; 484  : 	typedef basic_ostream<_Elem, _Traits> _Mybase;
; 485  : 	typedef _Alloc allocator_type;
; 486  : 	typedef basic_stringbuf<_Elem, _Traits, _Alloc> _Mysb;
; 487  : 	typedef basic_string<_Elem, _Traits, _Alloc> _Mystr;
; 488  : 
; 489  : 	explicit basic_ostringstream(ios_base::openmode _Mode = ios_base::out)
; 490  : 		: _Mybase(&_Stringbuffer),

	lea	ecx, DWORD PTR _oss$279[ebp]
	push	eax
	mov	DWORD PTR $T1[ebp], ebx
	call	DWORD PTR __imp_??0?$basic_ostream@DU?$char_traits@D@std@@@std@@QAE@PAV?$basic_streambuf@DU?$char_traits@D@std@@@1@_N@Z
	mov	DWORD PTR __$EHRec$[ebp+8], 4

; 492  : 		{	// construct empty writable character buffer

	mov	eax, DWORD PTR _oss$279[ebp]
	mov	eax, DWORD PTR [eax+4]
	mov	DWORD PTR _oss$279[ebp+eax], OFFSET ??_7?$basic_ostringstream@DU?$char_traits@D@std@@V?$allocator@D@2@@std@@6B@
	mov	eax, DWORD PTR _oss$279[ebp]
	mov	ecx, DWORD PTR [eax+4]
	lea	eax, DWORD PTR [ecx-80]
	mov	DWORD PTR _oss$279[ebp+ecx-4], eax
	lea	eax, DWORD PTR _oss$279[ebp+4]

; 30   : 		{	// construct empty character buffer from mode

	mov	ecx, eax

; 491  : 			_Stringbuffer(_Mode | ios_base::out)

	mov	DWORD PTR _this$[ebp], eax

; 30   : 		{	// construct empty character buffer from mode

	call	DWORD PTR __imp_??0?$basic_streambuf@DU?$char_traits@D@std@@@std@@IAE@XZ
	mov	DWORD PTR _oss$279[ebp+4], OFFSET ??_7?$basic_stringbuf@DU?$char_traits@D@std@@V?$allocator@D@2@@std@@6B@

; 311  : 		_Seekhigh = 0;

	mov	DWORD PTR _oss$279[ebp+60], 0

; 312  : 		_Mystate = _State;

	mov	DWORD PTR _oss$279[ebp+64], 4
; File e:\tool\c++incolude\jsoncpp-src-0.5.0\src\lib_json\json_writer.cpp

; 160  :                oss << "\\u" << std::hex << std::uppercase << std::setfill('0') << std::setw(4) << static_cast<int>(*c);

	push	OFFSET ?uppercase@std@@YAAAVios_base@1@AAV21@@Z ; std::uppercase
	push	OFFSET ?hex@std@@YAAAVios_base@1@AAV21@@Z ; std::hex
	mov	edx, OFFSET ??_C@_02DHFAHMIK@?2u?$AA@
	mov	BYTE PTR __$EHRec$[ebp+8], 6
	lea	ecx, DWORD PTR _oss$279[ebp]
	call	??$?6U?$char_traits@D@std@@@std@@YAAAV?$basic_ostream@DU?$char_traits@D@std@@@0@AAV10@PBD@Z ; std::operator<<<std::char_traits<char> >
	mov	ecx, eax
	call	DWORD PTR __imp_??6?$basic_ostream@DU?$char_traits@D@std@@@std@@QAEAAV01@P6AAAVios_base@1@AAV21@@Z@Z
	mov	ecx, eax
	call	DWORD PTR __imp_??6?$basic_ostream@DU?$char_traits@D@std@@@std@@QAEAAV01@P6AAAVios_base@1@AAV21@@Z@Z
	mov	edi, eax
	lea	eax, DWORD PTR $T125[ebp]
	push	0
	push	4
	push	eax
; File c:\program files (x86)\microsoft visual studio 14.0\vc\include\iomanip

; 62   : 	_Ostr.fill(_Manip._Fill);

	mov	ecx, DWORD PTR [edi]
	mov	ecx, DWORD PTR [ecx+4]
; File c:\program files (x86)\microsoft visual studio 14.0\vc\include\ios

; 119  : 		_Fillch = _Newfill;

	mov	BYTE PTR [ecx+edi+64], 48		; 00000030H
; File e:\tool\c++incolude\jsoncpp-src-0.5.0\src\lib_json\json_writer.cpp

; 160  :                oss << "\\u" << std::hex << std::uppercase << std::setfill('0') << std::setw(4) << static_cast<int>(*c);

	call	DWORD PTR __imp_?setw@std@@YA?AU?$_Smanip@_J@1@_J@Z
; File c:\program files (x86)\microsoft visual studio 14.0\vc\include\iomanip

; 527  : 	(*_Manip._Pfun)(_Ostr, _Manip._Manarg);

	mov	ecx, DWORD PTR [edi]
	push	DWORD PTR [eax+12]
	mov	ecx, DWORD PTR [ecx+4]
	push	DWORD PTR [eax+8]
	mov	eax, DWORD PTR [eax]
	add	ecx, edi
	push	ecx
	call	eax
; File e:\tool\c++incolude\jsoncpp-src-0.5.0\src\lib_json\json_writer.cpp

; 160  :                oss << "\\u" << std::hex << std::uppercase << std::setfill('0') << std::setw(4) << static_cast<int>(*c);

	movsx	eax, BYTE PTR [esi]
; File c:\program files (x86)\microsoft visual studio 14.0\vc\include\iomanip

; 527  : 	(*_Manip._Pfun)(_Ostr, _Manip._Manarg);

	add	esp, 24					; 00000018H
; File e:\tool\c++incolude\jsoncpp-src-0.5.0\src\lib_json\json_writer.cpp

; 160  :                oss << "\\u" << std::hex << std::uppercase << std::setfill('0') << std::setw(4) << static_cast<int>(*c);

	mov	ecx, edi
	push	eax
	call	DWORD PTR __imp_??6?$basic_ostream@DU?$char_traits@D@std@@@std@@QAEAAV01@H@Z

; 161  :                result += oss.str();

	lea	eax, DWORD PTR $T126[ebp]
	push	eax
	lea	ecx, DWORD PTR _oss$279[ebp]
	call	?str@?$basic_ostringstream@DU?$char_traits@D@std@@V?$allocator@D@2@@std@@QBE?AV?$basic_string@DU?$char_traits@D@std@@V?$allocator@D@2@@2@XZ ; std::basic_ostringstream<char,std::char_traits<char>,std::allocator<char> >::str
; File c:\program files (x86)\microsoft visual studio 14.0\vc\include\xstring

; 1065 : 		return (append(_Right, 0, npos));

	push	-1
	push	0
	push	eax
	lea	ecx, DWORD PTR _result$[ebp]
; File e:\tool\c++incolude\jsoncpp-src-0.5.0\src\lib_json\json_writer.cpp

; 161  :                result += oss.str();

	mov	BYTE PTR __$EHRec$[ebp+8], 7
; File c:\program files (x86)\microsoft visual studio 14.0\vc\include\xstring

; 1065 : 		return (append(_Right, 0, npos));

	call	?append@?$basic_string@DU?$char_traits@D@std@@V?$allocator@D@2@@std@@QAEAAV12@ABV12@II@Z ; std::basic_string<char,std::char_traits<char>,std::allocator<char> >::append

; 2251 : 		else if (this->_BUF_SIZE <= this->_Myres())

	mov	eax, DWORD PTR $T126[ebp+20]
	cmp	eax, 16					; 00000010H
	jb	SHORT $LN633@valueToQuo

; 2252 : 			{	// copy any leftovers to small buffer and deallocate
; 2253 : 			pointer _Ptr = this->_Bx()._Ptr;
; 2254 : 			this->_Getal().destroy(_STD addressof(this->_Bx()._Ptr));
; 2255 : 			if (0 < _Newsize)
; 2256 : 				_Traits::copy(this->_Bx()._Buf,
; 2257 : 					_Unfancy(_Ptr), _Newsize);
; 2258 : 			this->_Getal().deallocate(_Ptr, this->_Myres() + 1);

	inc	eax
	push	eax
	push	DWORD PTR $T126[ebp]
	call	?deallocate@?$_Wrap_alloc@V?$allocator@D@std@@@std@@QAEXPADI@Z ; std::_Wrap_alloc<std::allocator<char> >::deallocate
$LN633@valueToQuo:
; File e:\tool\c++incolude\jsoncpp-src-0.5.0\src\lib_json\json_writer.cpp

; 162  :             }

	mov	BYTE PTR __$EHRec$[ebp+8], 2
; File c:\program files (x86)\microsoft visual studio 14.0\vc\include\sstream

; 536  : 		{	// destroy the object

	mov	eax, DWORD PTR _oss$279[ebp]
	mov	eax, DWORD PTR [eax+4]
	mov	DWORD PTR _oss$279[ebp+eax], OFFSET ??_7?$basic_ostringstream@DU?$char_traits@D@std@@V?$allocator@D@2@@std@@6B@
	mov	eax, DWORD PTR _oss$279[ebp]
	mov	ecx, DWORD PTR [eax+4]
	lea	eax, DWORD PTR [ecx-80]
	mov	DWORD PTR _oss$279[ebp+ecx-4], eax

; 76   : 		_Tidy();

	lea	ecx, DWORD PTR _oss$279[ebp+4]
	mov	DWORD PTR _oss$279[ebp+4], OFFSET ??_7?$basic_stringbuf@DU?$char_traits@D@std@@V?$allocator@D@2@@std@@6B@
	call	?_Tidy@?$basic_stringbuf@DU?$char_traits@D@std@@V?$allocator@D@2@@std@@IAEXXZ ; std::basic_stringbuf<char,std::char_traits<char>,std::allocator<char> >::_Tidy

; 77   : 		}

	lea	ecx, DWORD PTR _oss$279[ebp+4]
	call	DWORD PTR __imp_??1?$basic_streambuf@DU?$char_traits@D@std@@@std@@UAE@XZ

; 537  : 		}

	lea	ecx, DWORD PTR _oss$279[ebp+8]
	call	DWORD PTR __imp_??1?$basic_ostream@DU?$char_traits@D@std@@@std@@UAE@XZ
	lea	ecx, DWORD PTR _oss$279[ebp+80]
	call	DWORD PTR __imp_??1?$basic_ios@DU?$char_traits@D@std@@@std@@UAE@XZ
; File e:\tool\c++incolude\jsoncpp-src-0.5.0\src\lib_json\json_writer.cpp

; 163  :             else

	jmp	SHORT $LN2@valueToQuo
$LN16@valueToQuo:

; 164  :             {
; 165  :                result += *c;

	push	ecx
	lea	ecx, DWORD PTR _result$[ebp]
	call	??Y?$basic_string@DU?$char_traits@D@std@@V?$allocator@D@2@@std@@QAEAAV01@D@Z ; std::basic_string<char,std::char_traits<char>,std::allocator<char> >::operator+=
$LN2@valueToQuo:

; 123  :    for (const char* c=value; *c != 0; ++c)

	inc	esi
	cmp	BYTE PTR [esi], 0
	jne	$LL4@valueToQuo
	mov	ebx, DWORD PTR ___$ReturnUdt$GSCopy$1$[ebp]
$LN743@valueToQuo:
; File c:\program files (x86)\microsoft visual studio 14.0\vc\include\xstring

; 1107 : 		return (append(_Ptr, _Traits::length(_Ptr)));

	push	1
	push	OFFSET ??_C@_01BJJEKLCA@?$CC?$AA@
	lea	ecx, DWORD PTR _result$[ebp]
	call	?append@?$basic_string@DU?$char_traits@D@std@@V?$allocator@D@2@@std@@QAEAAV12@PBDI@Z ; std::basic_string<char,std::char_traits<char>,std::allocator<char> >::append

; 2260 : 		this->_Myres() = this->_BUF_SIZE - 1;

	mov	DWORD PTR [ebx+20], 15			; 0000000fH

; 2219 : 		_Traits::assign(_Dx._Myptr()[_Dx._Mysize = _Newsize], _Elem());

	mov	DWORD PTR [ebx+16], 0
; File c:\program files (x86)\microsoft visual studio 14.0\vc\include\iosfwd

; 565  : 		_Left = _Right;

	mov	BYTE PTR [ebx], 0
; File c:\program files (x86)\microsoft visual studio 14.0\vc\include\xstring

; 962  : 		if (_Right._Myres() < this->_BUF_SIZE)

	mov	ecx, DWORD PTR _result$[ebp+20]
	cmp	ecx, 16					; 00000010H
	jae	SHORT $LN871@valueToQuo

; 963  : 			_Traits::move(this->_Bx()._Buf, _Right._Bx()._Buf,

	mov	eax, DWORD PTR _result$[ebp+16]
	add	eax, 1
; File c:\program files (x86)\microsoft visual studio 14.0\vc\include\iosfwd

; 553  : 		return (_Count == 0 ? _First1

	je	SHORT $LN872@valueToQuo
	push	eax
	lea	eax, DWORD PTR _result$[ebp]
	push	eax
	push	ebx
	call	DWORD PTR __imp__memmove
; File c:\program files (x86)\microsoft visual studio 14.0\vc\include\xstring

; 965  : 		else

	mov	ecx, DWORD PTR _result$[ebp+20]
; File c:\program files (x86)\microsoft visual studio 14.0\vc\include\iosfwd

; 553  : 		return (_Count == 0 ? _First1

	add	esp, 12					; 0000000cH
; File c:\program files (x86)\microsoft visual studio 14.0\vc\include\xstring

; 965  : 		else

	jmp	SHORT $LN872@valueToQuo
$LN871@valueToQuo:
; File c:\program files (x86)\microsoft visual studio 14.0\vc\include\xmemory0

; 737  : 		::new ((void *)_Ptr) _Objty(_STD forward<_Types>(_Args)...);

	mov	eax, DWORD PTR _result$[ebp]
	mov	DWORD PTR [ebx], eax
$LN872@valueToQuo:
; File c:\program files (x86)\microsoft visual studio 14.0\vc\include\xstring

; 970  : 		this->_Mysize() = _Right._Mysize();

	mov	eax, DWORD PTR _result$[ebp+16]
	mov	DWORD PTR [ebx+16], eax

; 971  : 		this->_Myres() = _Right._Myres();

	mov	DWORD PTR [ebx+20], ecx
$LN254@valueToQuo:
; File e:\tool\c++incolude\jsoncpp-src-0.5.0\src\lib_json\json_writer.cpp

; 171  :    return result;

	mov	eax, ebx

; 172  : }

	mov	ecx, DWORD PTR __$EHRec$[ebp]
	mov	DWORD PTR fs:0, ecx
	pop	ecx
	pop	edi
	pop	esi
	pop	ebx
	mov	ecx, DWORD PTR __$ArrayPad$[ebp]
	xor	ecx, ebp
	call	@__security_check_cookie@4
	mov	esp, ebp
	pop	ebp
	ret	0
$LN1216@valueToQuo:
	DD	$LN10@valueToQuo
	DD	$LN566@valueToQuo
	DD	$LN12@valueToQuo
	DD	$LN11@valueToQuo
	DD	$LN13@valueToQuo
	DD	$LN8@valueToQuo
	DD	$LN9@valueToQuo
	DD	$LN15@valueToQuo
$LN1214@valueToQuo:
	DB	0
	DB	1
	DB	2
	DB	7
	DB	3
	DB	4
	DB	7
	DB	7
	DB	7
	DB	7
	DB	7
	DB	7
	DB	7
	DB	7
	DB	7
	DB	7
	DB	7
	DB	7
	DB	7
	DB	7
	DB	7
	DB	7
	DB	7
	DB	7
	DB	7
	DB	7
	DB	5
	DB	7
	DB	7
	DB	7
	DB	7
	DB	7
	DB	7
	DB	7
	DB	7
	DB	7
	DB	7
	DB	7
	DB	7
	DB	7
	DB	7
	DB	7
	DB	7
	DB	7
	DB	7
	DB	7
	DB	7
	DB	7
	DB	7
	DB	7
	DB	7
	DB	7
	DB	7
	DB	7
	DB	7
	DB	7
	DB	7
	DB	7
	DB	7
	DB	7
	DB	7
	DB	7
	DB	7
	DB	7
	DB	7
	DB	7
	DB	7
	DB	7
	DB	7
	DB	7
	DB	7
	DB	7
	DB	7
	DB	7
	DB	7
	DB	7
	DB	7
	DB	7
	DB	7
	DB	7
	DB	7
	DB	7
	DB	7
	DB	7
	DB	6
_TEXT	ENDS
;	COMDAT text$x
text$x	SEGMENT
__unwindfunclet$?valueToQuotedString@Json@@YA?AV?$basic_string@DU?$char_traits@D@std@@V?$allocator@D@2@@std@@PBD@Z$0:
	lea	ecx, DWORD PTR $T4[ebp]
	jmp	??1?$basic_string@DU?$char_traits@D@std@@V?$allocator@D@2@@std@@QAE@XZ ; std::basic_string<char,std::char_traits<char>,std::allocator<char> >::~basic_string<char,std::char_traits<char>,std::allocator<char> >
__unwindfunclet$?valueToQuotedString@Json@@YA?AV?$basic_string@DU?$char_traits@D@std@@V?$allocator@D@2@@std@@PBD@Z$1:
	lea	ecx, DWORD PTR $T31[ebp]
	jmp	??1?$basic_string@DU?$char_traits@D@std@@V?$allocator@D@2@@std@@QAE@XZ ; std::basic_string<char,std::char_traits<char>,std::allocator<char> >::~basic_string<char,std::char_traits<char>,std::allocator<char> >
__unwindfunclet$?valueToQuotedString@Json@@YA?AV?$basic_string@DU?$char_traits@D@std@@V?$allocator@D@2@@std@@PBD@Z$3:
	lea	ecx, DWORD PTR _result$[ebp]
	jmp	??1?$basic_string@DU?$char_traits@D@std@@V?$allocator@D@2@@std@@QAE@XZ ; std::basic_string<char,std::char_traits<char>,std::allocator<char> >::~basic_string<char,std::char_traits<char>,std::allocator<char> >
__unwindfunclet$?valueToQuotedString@Json@@YA?AV?$basic_string@DU?$char_traits@D@std@@V?$allocator@D@2@@std@@PBD@Z$125:
	mov	eax, DWORD PTR $T1[ebp]
	and	eax, 2
	je	$LN576@valueToQuo
	and	DWORD PTR $T1[ebp], -3			; fffffffdH
	lea	ecx, DWORD PTR _oss$279[ebp+80]
	jmp	DWORD PTR __imp_??1?$basic_ios@DU?$char_traits@D@std@@@std@@UAE@XZ
$LN576@valueToQuo:
	ret	0
__unwindfunclet$?valueToQuotedString@Json@@YA?AV?$basic_string@DU?$char_traits@D@std@@V?$allocator@D@2@@std@@PBD@Z$126:
	lea	ecx, DWORD PTR _oss$279[ebp+8]
	jmp	DWORD PTR __imp_??1?$basic_ostream@DU?$char_traits@D@std@@@std@@UAE@XZ
__unwindfunclet$?valueToQuotedString@Json@@YA?AV?$basic_string@DU?$char_traits@D@std@@V?$allocator@D@2@@std@@PBD@Z$128:
	mov	ecx, DWORD PTR _this$[ebp]
	jmp	DWORD PTR __imp_??1?$basic_streambuf@DU?$char_traits@D@std@@@std@@UAE@XZ
__unwindfunclet$?valueToQuotedString@Json@@YA?AV?$basic_string@DU?$char_traits@D@std@@V?$allocator@D@2@@std@@PBD@Z$4:
	lea	ecx, DWORD PTR _oss$279[ebp]
	jmp	??_D?$basic_ostringstream@DU?$char_traits@D@std@@V?$allocator@D@2@@std@@QAEXXZ
__unwindfunclet$?valueToQuotedString@Json@@YA?AV?$basic_string@DU?$char_traits@D@std@@V?$allocator@D@2@@std@@PBD@Z$5:
	lea	ecx, DWORD PTR $T126[ebp]
	jmp	??1?$basic_string@DU?$char_traits@D@std@@V?$allocator@D@2@@std@@QAE@XZ ; std::basic_string<char,std::char_traits<char>,std::allocator<char> >::~basic_string<char,std::char_traits<char>,std::allocator<char> >
__ehhandler$?valueToQuotedString@Json@@YA?AV?$basic_string@DU?$char_traits@D@std@@V?$allocator@D@2@@std@@PBD@Z:
	mov	edx, DWORD PTR [esp+8]
	lea	eax, DWORD PTR [edx+12]
	mov	ecx, DWORD PTR [edx-280]
	xor	ecx, eax
	call	@__security_check_cookie@4
	mov	ecx, DWORD PTR [edx-4]
	xor	ecx, eax
	call	@__security_check_cookie@4
	mov	eax, OFFSET __ehfuncinfo$?valueToQuotedString@Json@@YA?AV?$basic_string@DU?$char_traits@D@std@@V?$allocator@D@2@@std@@PBD@Z
	jmp	___CxxFrameHandler3
text$x	ENDS
?valueToQuotedString@Json@@YA?AV?$basic_string@DU?$char_traits@D@std@@V?$allocator@D@2@@std@@PBD@Z ENDP ; Json::valueToQuotedString
; Function compile flags: /Ogtp
; File c:\program files (x86)\microsoft visual studio 14.0\vc\include\sstream
;	COMDAT ??_D?$basic_ostringstream@DU?$char_traits@D@std@@V?$allocator@D@2@@std@@QAEXXZ
_TEXT	SEGMENT
??_D?$basic_ostringstream@DU?$char_traits@D@std@@V?$allocator@D@2@@std@@QAEXXZ PROC ; std::basic_ostringstream<char,std::char_traits<char>,std::allocator<char> >::`vbase destructor', COMDAT
; _this$ = ecx

; 536  : 		{	// destroy the object

	mov	eax, DWORD PTR [ecx]
	push	esi
	push	edi
	lea	edi, DWORD PTR [ecx+80]
	mov	eax, DWORD PTR [eax+4]
	mov	DWORD PTR [eax+edi-80], OFFSET ??_7?$basic_ostringstream@DU?$char_traits@D@std@@V?$allocator@D@2@@std@@6B@
	mov	eax, DWORD PTR [edi-80]
	mov	ecx, DWORD PTR [eax+4]
	lea	eax, DWORD PTR [ecx-80]
	mov	DWORD PTR [ecx+edi-84], eax

; 76   : 		_Tidy();

	lea	ecx, DWORD PTR [edi-76]
	mov	DWORD PTR [edi-76], OFFSET ??_7?$basic_stringbuf@DU?$char_traits@D@std@@V?$allocator@D@2@@std@@6B@
	call	?_Tidy@?$basic_stringbuf@DU?$char_traits@D@std@@V?$allocator@D@2@@std@@IAEXXZ ; std::basic_stringbuf<char,std::char_traits<char>,std::allocator<char> >::_Tidy

; 77   : 		}

	lea	ecx, DWORD PTR [edi-76]
	call	DWORD PTR __imp_??1?$basic_streambuf@DU?$char_traits@D@std@@@std@@UAE@XZ

; 537  : 		}

	lea	ecx, DWORD PTR [edi-72]
	call	DWORD PTR __imp_??1?$basic_ostream@DU?$char_traits@D@std@@@std@@UAE@XZ
	mov	ecx, edi
	pop	edi
	pop	esi
	jmp	DWORD PTR __imp_??1?$basic_ios@DU?$char_traits@D@std@@@std@@UAE@XZ
??_D?$basic_ostringstream@DU?$char_traits@D@std@@V?$allocator@D@2@@std@@QAEXXZ ENDP ; std::basic_ostringstream<char,std::char_traits<char>,std::allocator<char> >::`vbase destructor'
_TEXT	ENDS
; Function compile flags: /Ogtp
; File e:\tool\c++incolude\jsoncpp-src-0.5.0\src\lib_json\json_writer.cpp
; File c:\program files (x86)\microsoft visual studio 14.0\vc\include\xstring
; File c:\program files (x86)\microsoft visual studio 14.0\vc\include\iosfwd
; File e:\tool\c++incolude\jsoncpp-src-0.5.0\src\lib_json\json_writer.cpp
;	COMDAT ??0FastWriter@Json@@QAE@XZ
_TEXT	SEGMENT
??0FastWriter@Json@@QAE@XZ PROC				; Json::FastWriter::FastWriter, COMDAT
; _this$ = ecx

; 186  : {

	mov	DWORD PTR [ecx], OFFSET ??_7FastWriter@Json@@6B@

; 187  : }

	mov	eax, ecx
; File c:\program files (x86)\microsoft visual studio 14.0\vc\include\xstring

; 2260 : 		this->_Myres() = this->_BUF_SIZE - 1;

	mov	DWORD PTR [ecx+24], 15			; 0000000fH

; 2219 : 		_Traits::assign(_Dx._Myptr()[_Dx._Mysize = _Newsize], _Elem());

	mov	DWORD PTR [ecx+20], 0
; File c:\program files (x86)\microsoft visual studio 14.0\vc\include\iosfwd

; 565  : 		_Left = _Right;

	mov	BYTE PTR [ecx+4], 0
; File e:\tool\c++incolude\jsoncpp-src-0.5.0\src\lib_json\json_writer.cpp

; 185  :    : yamlCompatiblityEnabled_( false )

	mov	BYTE PTR [ecx+28], 0

; 187  : }

	ret	0
??0FastWriter@Json@@QAE@XZ ENDP				; Json::FastWriter::FastWriter
_TEXT	ENDS
; Function compile flags: /Ogtp
; File e:\tool\c++incolude\jsoncpp-src-0.5.0\src\lib_json\json_writer.cpp
;	COMDAT ?enableYAMLCompatibility@FastWriter@Json@@QAEXXZ
_TEXT	SEGMENT
?enableYAMLCompatibility@FastWriter@Json@@QAEXXZ PROC	; Json::FastWriter::enableYAMLCompatibility, COMDAT
; _this$ = ecx

; 193  :    yamlCompatiblityEnabled_ = true;

	mov	BYTE PTR [ecx+28], 1

; 194  : }

	ret	0
?enableYAMLCompatibility@FastWriter@Json@@QAEXXZ ENDP	; Json::FastWriter::enableYAMLCompatibility
_TEXT	ENDS
; Function compile flags: /Ogtp
; File e:\tool\c++incolude\jsoncpp-src-0.5.0\src\lib_json\json_writer.cpp
; File c:\program files (x86)\microsoft visual studio 14.0\vc\include\xstring
; File e:\tool\c++incolude\jsoncpp-src-0.5.0\src\lib_json\json_writer.cpp
; File c:\program files (x86)\microsoft visual studio 14.0\vc\include\xstring
; File e:\tool\c++incolude\jsoncpp-src-0.5.0\src\lib_json\json_writer.cpp
; File c:\program files (x86)\microsoft visual studio 14.0\vc\include\xstring
; File e:\tool\c++incolude\jsoncpp-src-0.5.0\src\lib_json\json_writer.cpp
; File c:\program files (x86)\microsoft visual studio 14.0\vc\include\xstring
; File e:\tool\c++incolude\jsoncpp-src-0.5.0\src\lib_json\json_writer.cpp
; File c:\program files (x86)\microsoft visual studio 14.0\vc\include\vector
; File e:\tool\c++incolude\jsoncpp-src-0.5.0\src\lib_json\json_writer.cpp
; File c:\program files (x86)\microsoft visual studio 14.0\vc\include\vector
; File e:\tool\c++incolude\jsoncpp-src-0.5.0\src\lib_json\json_writer.cpp
; File c:\program files (x86)\microsoft visual studio 14.0\vc\include\xstring
; File c:\program files (x86)\microsoft visual studio 14.0\vc\include\xstddef
; File c:\program files (x86)\microsoft visual studio 14.0\vc\include\xstring
; File e:\tool\c++incolude\jsoncpp-src-0.5.0\src\lib_json\json_writer.cpp
; File c:\program files (x86)\microsoft visual studio 14.0\vc\include\xstring
; File e:\tool\c++incolude\jsoncpp-src-0.5.0\src\lib_json\json_writer.cpp
; File c:\program files (x86)\microsoft visual studio 14.0\vc\include\xstring
; File e:\tool\c++incolude\jsoncpp-src-0.5.0\src\lib_json\json_writer.cpp
; File c:\program files (x86)\microsoft visual studio 14.0\vc\include\xstring
; File e:\tool\c++incolude\jsoncpp-src-0.5.0\src\lib_json\json_writer.cpp
; File c:\program files (x86)\microsoft visual studio 14.0\vc\include\iosfwd
; File c:\program files (x86)\microsoft visual studio 14.0\vc\include\xstring
; File e:\tool\c++incolude\jsoncpp-src-0.5.0\src\lib_json\json_writer.cpp
; File c:\program files (x86)\microsoft visual studio 14.0\vc\include\vector
; File e:\tool\c++incolude\jsoncpp-src-0.5.0\src\lib_json\json_writer.cpp
; File c:\program files (x86)\microsoft visual studio 14.0\vc\include\xstring
; File c:\program files (x86)\microsoft visual studio 14.0\vc\include\vector
; File c:\program files (x86)\microsoft visual studio 14.0\vc\include\xmemory0
; File c:\program files (x86)\microsoft visual studio 14.0\vc\include\vector
; File c:\program files (x86)\microsoft visual studio 14.0\vc\include\xmemory0
; File c:\program files (x86)\microsoft visual studio 14.0\vc\include\vector
; File e:\tool\c++incolude\jsoncpp-src-0.5.0\src\lib_json\json_writer.cpp
;	COMDAT ?writeValue@FastWriter@Json@@AAEXABVValue@2@@Z
_TEXT	SEGMENT
tv952 = -72						; size = 4
_size$1$ = -72						; size = 4
$T75 = -72						; size = 1
tv956 = -68						; size = 4
$T36 = -64						; size = 24
$T10 = -40						; size = 24
$T8 = -40						; size = 24
$T5 = -40						; size = 24
$T3 = -40						; size = 24
$T1 = -40						; size = 24
_members$97 = -28					; size = 12
__$ArrayPad$ = -16					; size = 4
__$EHRec$ = -12						; size = 12
_value$ = 8						; size = 4
?writeValue@FastWriter@Json@@AAEXABVValue@2@@Z PROC	; Json::FastWriter::writeValue, COMDAT
; _this$ = ecx

; 209  : {

	push	ebp
	mov	ebp, esp
	push	-1
	push	__ehhandler$?writeValue@FastWriter@Json@@AAEXABVValue@2@@Z
	mov	eax, DWORD PTR fs:0
	push	eax
	sub	esp, 60					; 0000003cH
	mov	eax, DWORD PTR ___security_cookie
	xor	eax, ebp
	mov	DWORD PTR __$ArrayPad$[ebp], eax
	push	ebx
	push	esi
	push	edi
	push	eax
	lea	eax, DWORD PTR __$EHRec$[ebp]
	mov	DWORD PTR fs:0, eax
	mov	ebx, ecx
	mov	edi, DWORD PTR _value$[ebp]

; 210  :    switch ( value.type() )

	movsx	eax, BYTE PTR [edi+8]
	cmp	eax, 7
	ja	$LN310@writeValue
	jmp	DWORD PTR $LN420@writeValue[eax*4]
$LN10@writeValue:

; 211  :    {
; 212  :    case nullValue:
; 213  :       document_ += "null";

	push	OFFSET ??_C@_04MLLLIHIP@null?$AA@
	lea	ecx, DWORD PTR [ebx+4]
	call	??Y?$basic_string@DU?$char_traits@D@std@@V?$allocator@D@2@@std@@QAEAAV01@PBD@Z ; std::basic_string<char,std::char_traits<char>,std::allocator<char> >::operator+=

; 214  :       break;

	jmp	$LN310@writeValue
$LN11@writeValue:

; 216  :       document_ += valueToString( value.asInt() );

	mov	ecx, edi
	call	?asInt@Value@Json@@QBEHXZ		; Json::Value::asInt
	push	eax
	lea	eax, DWORD PTR $T1[ebp]
	push	eax
	call	?valueToString@Json@@YA?AV?$basic_string@DU?$char_traits@D@std@@V?$allocator@D@2@@std@@H@Z ; Json::valueToString
	add	esp, 8
	mov	DWORD PTR __$EHRec$[ebp+8], 0
$LN419@writeValue:
; File c:\program files (x86)\microsoft visual studio 14.0\vc\include\xstring

; 1065 : 		return (append(_Right, 0, npos));

	push	-1
	push	0
	push	eax
; File e:\tool\c++incolude\jsoncpp-src-0.5.0\src\lib_json\json_writer.cpp

; 216  :       document_ += valueToString( value.asInt() );

	lea	ecx, DWORD PTR [ebx+4]
; File c:\program files (x86)\microsoft visual studio 14.0\vc\include\xstring

; 1065 : 		return (append(_Right, 0, npos));

	call	?append@?$basic_string@DU?$char_traits@D@std@@V?$allocator@D@2@@std@@QAEAAV12@ABV12@II@Z ; std::basic_string<char,std::char_traits<char>,std::allocator<char> >::append
; File e:\tool\c++incolude\jsoncpp-src-0.5.0\src\lib_json\json_writer.cpp

; 216  :       document_ += valueToString( value.asInt() );

	lea	ecx, DWORD PTR $T1[ebp]
	call	??1?$basic_string@DU?$char_traits@D@std@@V?$allocator@D@2@@std@@QAE@XZ ; std::basic_string<char,std::char_traits<char>,std::allocator<char> >::~basic_string<char,std::char_traits<char>,std::allocator<char> >

; 217  :       break;

	jmp	$LN310@writeValue
$LN12@writeValue:

; 218  :    case uintValue:
; 219  :       document_ += valueToString( value.asUInt() );

	mov	ecx, edi
	call	?asUInt@Value@Json@@QBEIXZ		; Json::Value::asUInt
	push	eax
	lea	eax, DWORD PTR $T3[ebp]
	push	eax
	call	?valueToString@Json@@YA?AV?$basic_string@DU?$char_traits@D@std@@V?$allocator@D@2@@std@@I@Z ; Json::valueToString
	add	esp, 8
	mov	DWORD PTR __$EHRec$[ebp+8], 1

; 220  :       break;

	jmp	SHORT $LN419@writeValue
$LN13@writeValue:

; 221  :    case realValue:
; 222  :       document_ += valueToString( value.asDouble() );

	mov	ecx, edi
	call	?asDouble@Value@Json@@QBENXZ		; Json::Value::asDouble
	sub	esp, 8
	lea	eax, DWORD PTR $T5[ebp]
	fstp	QWORD PTR [esp]
	push	eax
	call	?valueToString@Json@@YA?AV?$basic_string@DU?$char_traits@D@std@@V?$allocator@D@2@@std@@N@Z ; Json::valueToString
	add	esp, 12					; 0000000cH
	mov	DWORD PTR __$EHRec$[ebp+8], 2

; 223  :       break;

	jmp	SHORT $LN419@writeValue
$LN14@writeValue:

; 224  :    case stringValue:
; 225  :       document_ += valueToQuotedString( value.asCString() );

	push	DWORD PTR [edi]
	lea	eax, DWORD PTR $T8[ebp]
	push	eax
	call	?valueToQuotedString@Json@@YA?AV?$basic_string@DU?$char_traits@D@std@@V?$allocator@D@2@@std@@PBD@Z ; Json::valueToQuotedString
	add	esp, 8
	mov	DWORD PTR __$EHRec$[ebp+8], 3

; 226  :       break;

	jmp	SHORT $LN419@writeValue
$LN15@writeValue:

; 227  :    case booleanValue:
; 228  :       document_ += valueToString( value.asBool() );

	mov	ecx, edi
	call	?asBool@Value@Json@@QBE_NXZ		; Json::Value::asBool
	movzx	eax, al
	push	eax
	lea	eax, DWORD PTR $T10[ebp]
	push	eax
	call	?valueToString@Json@@YA?AV?$basic_string@DU?$char_traits@D@std@@V?$allocator@D@2@@std@@_N@Z ; Json::valueToString
	add	esp, 8
	mov	DWORD PTR __$EHRec$[ebp+8], 4

; 229  :       break;

	jmp	$LN419@writeValue
$LN16@writeValue:

; 230  :    case arrayValue:
; 231  :       {
; 232  :          document_ += "[";

	push	OFFSET ??_C@_01OHGJGJJP@?$FL?$AA@
	lea	ecx, DWORD PTR [ebx+4]
	call	??Y?$basic_string@DU?$char_traits@D@std@@V?$allocator@D@2@@std@@QAEAAV01@PBD@Z ; std::basic_string<char,std::char_traits<char>,std::allocator<char> >::operator+=

; 233  :          int size = value.size();

	mov	ecx, edi
	call	?size@Value@Json@@QBEIXZ		; Json::Value::size

; 234  :          for ( int index =0; index < size; ++index )

	xor	esi, esi
	mov	DWORD PTR _size$1$[ebp], eax
	test	eax, eax
	jle	SHORT $LN66@writeValue
$LL6@writeValue:

; 235  :          {
; 236  :             if ( index > 0 )

	test	esi, esi
	jle	SHORT $LN17@writeValue
; File c:\program files (x86)\microsoft visual studio 14.0\vc\include\xstring

; 1107 : 		return (append(_Ptr, _Traits::length(_Ptr)));

	push	1
	push	OFFSET ??_C@_01IHBHIGKO@?0?$AA@
	lea	ecx, DWORD PTR [ebx+4]
	call	?append@?$basic_string@DU?$char_traits@D@std@@V?$allocator@D@2@@std@@QAEAAV12@PBDI@Z ; std::basic_string<char,std::char_traits<char>,std::allocator<char> >::append
$LN17@writeValue:
; File e:\tool\c++incolude\jsoncpp-src-0.5.0\src\lib_json\json_writer.cpp

; 238  :             writeValue( value[index] );

	push	esi
	mov	ecx, edi
	call	??AValue@Json@@QBEABV01@I@Z		; Json::Value::operator[]
	push	eax
	mov	ecx, ebx
	call	?writeValue@FastWriter@Json@@AAEXABVValue@2@@Z ; Json::FastWriter::writeValue
	inc	esi
	cmp	esi, DWORD PTR _size$1$[ebp]
	jl	SHORT $LL6@writeValue
$LN66@writeValue:
; File c:\program files (x86)\microsoft visual studio 14.0\vc\include\xstring

; 1107 : 		return (append(_Ptr, _Traits::length(_Ptr)));

	push	1
	push	OFFSET ??_C@_01LBDDMOBJ@?$FN?$AA@
	lea	ecx, DWORD PTR [ebx+4]
	call	?append@?$basic_string@DU?$char_traits@D@std@@V?$allocator@D@2@@std@@QAEAAV12@PBDI@Z ; std::basic_string<char,std::char_traits<char>,std::allocator<char> >::append
; File e:\tool\c++incolude\jsoncpp-src-0.5.0\src\lib_json\json_writer.cpp

; 242  :       break;

	jmp	$LN310@writeValue
$LN18@writeValue:

; 243  :    case objectValue:
; 244  :       {
; 245  :          Value::Members members( value.getMemberNames() );

	lea	eax, DWORD PTR _members$97[ebp]
	mov	ecx, edi
	push	eax
	call	?getMemberNames@Value@Json@@QBE?AV?$vector@V?$basic_string@DU?$char_traits@D@std@@V?$allocator@D@2@@std@@V?$allocator@V?$basic_string@DU?$char_traits@D@std@@V?$allocator@D@2@@std@@@2@@std@@XZ ; Json::Value::getMemberNames

; 246  :          document_ += "{";

	lea	eax, DWORD PTR [ebx+4]
	mov	DWORD PTR __$EHRec$[ebp+8], 5
	push	OFFSET ??_C@_01HCONENDN@?$HL?$AA@
	mov	ecx, eax
	mov	DWORD PTR tv956[ebp], eax
	call	??Y?$basic_string@DU?$char_traits@D@std@@V?$allocator@D@2@@std@@QAEAAV01@PBD@Z ; std::basic_string<char,std::char_traits<char>,std::allocator<char> >::operator+=
; File c:\program files (x86)\microsoft visual studio 14.0\vc\include\vector

; 46   : 		: _Ptr(_Parg)

	mov	eax, DWORD PTR _members$97[ebp]
	mov	esi, eax

; 214  : 		return (_Ptr == _Right._Ptr);

	cmp	eax, DWORD PTR _members$97[ebp+4]
; File e:\tool\c++incolude\jsoncpp-src-0.5.0\src\lib_json\json_writer.cpp

; 248  :                it != members.end(); 

	je	$LN304@writeValue
$LL9@writeValue:
; File c:\program files (x86)\microsoft visual studio 14.0\vc\include\vector

; 214  : 		return (_Ptr == _Right._Ptr);

	cmp	esi, eax
; File e:\tool\c++incolude\jsoncpp-src-0.5.0\src\lib_json\json_writer.cpp

; 252  :             if ( it != members.begin() )

	je	SHORT $LN19@writeValue
; File c:\program files (x86)\microsoft visual studio 14.0\vc\include\xstring

; 1107 : 		return (append(_Ptr, _Traits::length(_Ptr)));

	push	1
	push	OFFSET ??_C@_01IHBHIGKO@?0?$AA@
	lea	ecx, DWORD PTR [ebx+4]
	call	?append@?$basic_string@DU?$char_traits@D@std@@V?$allocator@D@2@@std@@QAEAAV12@PBDI@Z ; std::basic_string<char,std::char_traits<char>,std::allocator<char> >::append
$LN19@writeValue:

; 521  : 		return (this->_BUF_SIZE <= _Myres

	cmp	DWORD PTR [esi+20], 16			; 00000010H
	jb	SHORT $LN181@writeValue
; File c:\program files (x86)\microsoft visual studio 14.0\vc\include\xstddef

; 740  : 	return (_Ptr);

	mov	eax, DWORD PTR [esi]
; File c:\program files (x86)\microsoft visual studio 14.0\vc\include\xstring

; 521  : 		return (this->_BUF_SIZE <= _Myres

	jmp	SHORT $LN182@writeValue
$LN181@writeValue:
	mov	eax, esi
$LN182@writeValue:
; File e:\tool\c++incolude\jsoncpp-src-0.5.0\src\lib_json\json_writer.cpp

; 254  :             document_ += valueToQuotedString( name.c_str() );

	push	eax
	lea	eax, DWORD PTR $T36[ebp]
	push	eax
	call	?valueToQuotedString@Json@@YA?AV?$basic_string@DU?$char_traits@D@std@@V?$allocator@D@2@@std@@PBD@Z ; Json::valueToQuotedString
	add	esp, 8
; File c:\program files (x86)\microsoft visual studio 14.0\vc\include\xstring

; 1065 : 		return (append(_Right, 0, npos));

	push	-1
	push	0
	push	eax
	lea	ecx, DWORD PTR [ebx+4]
; File e:\tool\c++incolude\jsoncpp-src-0.5.0\src\lib_json\json_writer.cpp

; 254  :             document_ += valueToQuotedString( name.c_str() );

	mov	BYTE PTR __$EHRec$[ebp+8], 6
; File c:\program files (x86)\microsoft visual studio 14.0\vc\include\xstring

; 1065 : 		return (append(_Right, 0, npos));

	call	?append@?$basic_string@DU?$char_traits@D@std@@V?$allocator@D@2@@std@@QAEAAV12@ABV12@II@Z ; std::basic_string<char,std::char_traits<char>,std::allocator<char> >::append
; File e:\tool\c++incolude\jsoncpp-src-0.5.0\src\lib_json\json_writer.cpp

; 254  :             document_ += valueToQuotedString( name.c_str() );

	mov	BYTE PTR __$EHRec$[ebp+8], 5
; File c:\program files (x86)\microsoft visual studio 14.0\vc\include\xstring

; 2251 : 		else if (this->_BUF_SIZE <= this->_Myres())

	mov	eax, DWORD PTR $T36[ebp+20]
	cmp	eax, 16					; 00000010H
	jb	SHORT $LN195@writeValue

; 2252 : 			{	// copy any leftovers to small buffer and deallocate
; 2253 : 			pointer _Ptr = this->_Bx()._Ptr;
; 2254 : 			this->_Getal().destroy(_STD addressof(this->_Bx()._Ptr));
; 2255 : 			if (0 < _Newsize)
; 2256 : 				_Traits::copy(this->_Bx()._Buf,
; 2257 : 					_Unfancy(_Ptr), _Newsize);
; 2258 : 			this->_Getal().deallocate(_Ptr, this->_Myres() + 1);

	inc	eax
	push	eax
	push	DWORD PTR $T36[ebp]
	call	?deallocate@?$_Wrap_alloc@V?$allocator@D@std@@@std@@QAEXPADI@Z ; std::_Wrap_alloc<std::allocator<char> >::deallocate
$LN195@writeValue:
; File e:\tool\c++incolude\jsoncpp-src-0.5.0\src\lib_json\json_writer.cpp

; 255  :             document_ += yamlCompatiblityEnabled_ ? ": " 

	cmp	BYTE PTR [ebx+28], 0
	mov	edx, OFFSET ??_C@_02LMMGGCAJ@?3?5?$AA@
	mov	eax, OFFSET ??_C@_01JLIPDDHJ@?3?$AA@
	cmove	edx, eax
; File c:\program files (x86)\microsoft visual studio 14.0\vc\include\iosfwd

; 523  : 		return (*_First == 0 ? 0

	cmp	BYTE PTR [edx], 0
	jne	SHORT $LN296@writeValue
	xor	ecx, ecx
	jmp	SHORT $LN297@writeValue
$LN296@writeValue:
	mov	ecx, edx
	lea	eax, DWORD PTR [ecx+1]
	mov	DWORD PTR tv952[ebp], eax
$LL417@writeValue:
	mov	al, BYTE PTR [ecx]
	inc	ecx
	test	al, al
	jne	SHORT $LL417@writeValue
	sub	ecx, DWORD PTR tv952[ebp]
$LN297@writeValue:
; File c:\program files (x86)\microsoft visual studio 14.0\vc\include\xstring

; 1107 : 		return (append(_Ptr, _Traits::length(_Ptr)));

	push	ecx
	push	edx
	lea	ecx, DWORD PTR [ebx+4]
	call	?append@?$basic_string@DU?$char_traits@D@std@@V?$allocator@D@2@@std@@QAEAAV12@PBDI@Z ; std::basic_string<char,std::char_traits<char>,std::allocator<char> >::append
; File e:\tool\c++incolude\jsoncpp-src-0.5.0\src\lib_json\json_writer.cpp

; 257  :             writeValue( value[name] );

	push	esi
	mov	ecx, edi
	call	??AValue@Json@@QBEABV01@ABV?$basic_string@DU?$char_traits@D@std@@V?$allocator@D@2@@std@@@Z ; Json::Value::operator[]
	push	eax
	mov	ecx, ebx
	call	?writeValue@FastWriter@Json@@AAEXABVValue@2@@Z ; Json::FastWriter::writeValue
	mov	eax, DWORD PTR _members$97[ebp]
; File c:\program files (x86)\microsoft visual studio 14.0\vc\include\vector

; 113  : 		++_Ptr;

	add	esi, 24					; 00000018H

; 214  : 		return (_Ptr == _Right._Ptr);

	cmp	esi, DWORD PTR _members$97[ebp+4]
; File e:\tool\c++incolude\jsoncpp-src-0.5.0\src\lib_json\json_writer.cpp

; 248  :                it != members.end(); 

	jne	$LL9@writeValue
$LN304@writeValue:
; File c:\program files (x86)\microsoft visual studio 14.0\vc\include\xstring

; 1107 : 		return (append(_Ptr, _Traits::length(_Ptr)));

	mov	ecx, DWORD PTR tv956[ebp]
	push	1
	push	OFFSET ??_C@_01CELHOKLL@?$HN?$AA@
	call	?append@?$basic_string@DU?$char_traits@D@std@@V?$allocator@D@2@@std@@QAEAAV12@PBDI@Z ; std::basic_string<char,std::char_traits<char>,std::allocator<char> >::append
; File c:\program files (x86)\microsoft visual studio 14.0\vc\include\vector

; 1637 : 		if (this->_Myfirst() != pointer())

	mov	esi, DWORD PTR _members$97[ebp]
	test	esi, esi
	je	SHORT $LN310@writeValue
; File c:\program files (x86)\microsoft visual studio 14.0\vc\include\xmemory0

; 1118 : 	_Destroy_range1(_First, _Last, _Al, typename conjunction<

	push	DWORD PTR $T75[ebp]
	mov	edx, DWORD PTR _members$97[ebp+4]
	push	ecx
	mov	ecx, esi
	call	??$_Destroy_range1@V?$allocator@V?$basic_string@DU?$char_traits@D@std@@V?$allocator@D@2@@std@@@std@@PAV?$basic_string@DU?$char_traits@D@std@@V?$allocator@D@2@@2@@std@@YAXPAV?$basic_string@DU?$char_traits@D@std@@V?$allocator@D@2@@0@0AAU?$_Wrap_alloc@V?$allocator@V?$basic_string@DU?$char_traits@D@std@@V?$allocator@D@2@@std@@@std@@@0@U?$integral_constant@_N$0A@@0@@Z ; std::_Destroy_range1<std::allocator<std::basic_string<char,std::char_traits<char>,std::allocator<char> > >,std::basic_string<char,std::char_traits<char>,std::allocator<char> > *>
; File c:\program files (x86)\microsoft visual studio 14.0\vc\include\vector

; 1641 : 			this->_Getal().deallocate(this->_Myfirst(),

	mov	ecx, DWORD PTR _members$97[ebp+8]
	mov	eax, 715827883				; 2aaaaaabH
	sub	ecx, esi
; File c:\program files (x86)\microsoft visual studio 14.0\vc\include\xmemory0

; 1118 : 	_Destroy_range1(_First, _Last, _Al, typename conjunction<

	add	esp, 8
; File c:\program files (x86)\microsoft visual studio 14.0\vc\include\vector

; 1641 : 			this->_Getal().deallocate(this->_Myfirst(),

	imul	ecx
	sar	edx, 2
	mov	eax, edx
	shr	eax, 31					; 0000001fH
	add	eax, edx
	push	eax
	push	esi
	call	?deallocate@?$_Wrap_alloc@V?$allocator@V?$basic_string@DU?$char_traits@D@std@@V?$allocator@D@2@@std@@@std@@@std@@QAEXPAV?$basic_string@DU?$char_traits@D@std@@V?$allocator@D@2@@2@I@Z ; std::_Wrap_alloc<std::allocator<std::basic_string<char,std::char_traits<char>,std::allocator<char> > > >::deallocate
$LN310@writeValue:
; File e:\tool\c++incolude\jsoncpp-src-0.5.0\src\lib_json\json_writer.cpp

; 263  : }

	mov	ecx, DWORD PTR __$EHRec$[ebp]
	mov	DWORD PTR fs:0, ecx
	pop	ecx
	pop	edi
	pop	esi
	pop	ebx
	mov	ecx, DWORD PTR __$ArrayPad$[ebp]
	xor	ecx, ebp
	call	@__security_check_cookie@4
	mov	esp, ebp
	pop	ebp
	ret	4
	npad	2
$LN420@writeValue:
	DD	$LN10@writeValue
	DD	$LN11@writeValue
	DD	$LN12@writeValue
	DD	$LN13@writeValue
	DD	$LN14@writeValue
	DD	$LN15@writeValue
	DD	$LN16@writeValue
	DD	$LN18@writeValue
_TEXT	ENDS
;	COMDAT text$x
text$x	SEGMENT
__unwindfunclet$?writeValue@FastWriter@Json@@AAEXABVValue@2@@Z$0:
	lea	ecx, DWORD PTR $T1[ebp]
	jmp	??1?$basic_string@DU?$char_traits@D@std@@V?$allocator@D@2@@std@@QAE@XZ ; std::basic_string<char,std::char_traits<char>,std::allocator<char> >::~basic_string<char,std::char_traits<char>,std::allocator<char> >
__unwindfunclet$?writeValue@FastWriter@Json@@AAEXABVValue@2@@Z$1:
	lea	ecx, DWORD PTR $T3[ebp]
	jmp	??1?$basic_string@DU?$char_traits@D@std@@V?$allocator@D@2@@std@@QAE@XZ ; std::basic_string<char,std::char_traits<char>,std::allocator<char> >::~basic_string<char,std::char_traits<char>,std::allocator<char> >
__unwindfunclet$?writeValue@FastWriter@Json@@AAEXABVValue@2@@Z$2:
	lea	ecx, DWORD PTR $T5[ebp]
	jmp	??1?$basic_string@DU?$char_traits@D@std@@V?$allocator@D@2@@std@@QAE@XZ ; std::basic_string<char,std::char_traits<char>,std::allocator<char> >::~basic_string<char,std::char_traits<char>,std::allocator<char> >
__unwindfunclet$?writeValue@FastWriter@Json@@AAEXABVValue@2@@Z$3:
	lea	ecx, DWORD PTR $T8[ebp]
	jmp	??1?$basic_string@DU?$char_traits@D@std@@V?$allocator@D@2@@std@@QAE@XZ ; std::basic_string<char,std::char_traits<char>,std::allocator<char> >::~basic_string<char,std::char_traits<char>,std::allocator<char> >
__unwindfunclet$?writeValue@FastWriter@Json@@AAEXABVValue@2@@Z$4:
	lea	ecx, DWORD PTR $T10[ebp]
	jmp	??1?$basic_string@DU?$char_traits@D@std@@V?$allocator@D@2@@std@@QAE@XZ ; std::basic_string<char,std::char_traits<char>,std::allocator<char> >::~basic_string<char,std::char_traits<char>,std::allocator<char> >
__unwindfunclet$?writeValue@FastWriter@Json@@AAEXABVValue@2@@Z$5:
	lea	ecx, DWORD PTR _members$97[ebp]
	jmp	??1?$vector@V?$basic_string@DU?$char_traits@D@std@@V?$allocator@D@2@@std@@V?$allocator@V?$basic_string@DU?$char_traits@D@std@@V?$allocator@D@2@@std@@@2@@std@@QAE@XZ ; std::vector<std::basic_string<char,std::char_traits<char>,std::allocator<char> >,std::allocator<std::basic_string<char,std::char_traits<char>,std::allocator<char> > > >::~vector<std::basic_string<char,std::char_traits<char>,std::allocator<char> >,std::allocator<std::basic_string<char,std::char_traits<char>,std::allocator<char> > > >
__unwindfunclet$?writeValue@FastWriter@Json@@AAEXABVValue@2@@Z$6:
	lea	ecx, DWORD PTR $T36[ebp]
	jmp	??1?$basic_string@DU?$char_traits@D@std@@V?$allocator@D@2@@std@@QAE@XZ ; std::basic_string<char,std::char_traits<char>,std::allocator<char> >::~basic_string<char,std::char_traits<char>,std::allocator<char> >
__ehhandler$?writeValue@FastWriter@Json@@AAEXABVValue@2@@Z:
	mov	edx, DWORD PTR [esp+8]
	lea	eax, DWORD PTR [edx+12]
	mov	ecx, DWORD PTR [edx-76]
	xor	ecx, eax
	call	@__security_check_cookie@4
	mov	ecx, DWORD PTR [edx-4]
	xor	ecx, eax
	call	@__security_check_cookie@4
	mov	eax, OFFSET __ehfuncinfo$?writeValue@FastWriter@Json@@AAEXABVValue@2@@Z
	jmp	___CxxFrameHandler3
text$x	ENDS
?writeValue@FastWriter@Json@@AAEXABVValue@2@@Z ENDP	; Json::FastWriter::writeValue
; Function compile flags: /Ogtp
; File e:\tool\c++incolude\jsoncpp-src-0.5.0\src\lib_json\json_writer.cpp
; File c:\program files (x86)\microsoft visual studio 14.0\vc\include\xstring
; File e:\tool\c++incolude\jsoncpp-src-0.5.0\src\lib_json\json_writer.cpp
; File c:\program files (x86)\microsoft visual studio 14.0\vc\include\xstring
; File e:\tool\c++incolude\jsoncpp-src-0.5.0\src\lib_json\json_writer.cpp
; File c:\program files (x86)\microsoft visual studio 14.0\vc\include\vector
; File e:\tool\c++incolude\jsoncpp-src-0.5.0\src\lib_json\json_writer.cpp
; File c:\program files (x86)\microsoft visual studio 14.0\vc\include\xstring
; File c:\program files (x86)\microsoft visual studio 14.0\vc\include\xstddef
; File c:\program files (x86)\microsoft visual studio 14.0\vc\include\xstring
; File e:\tool\c++incolude\jsoncpp-src-0.5.0\src\lib_json\json_writer.cpp
; File c:\program files (x86)\microsoft visual studio 14.0\vc\include\xstring
; File e:\tool\c++incolude\jsoncpp-src-0.5.0\src\lib_json\json_writer.cpp
; File c:\program files (x86)\microsoft visual studio 14.0\vc\include\vector
; File e:\tool\c++incolude\jsoncpp-src-0.5.0\src\lib_json\json_writer.cpp
; File c:\program files (x86)\microsoft visual studio 14.0\vc\include\xstring
; File e:\tool\c++incolude\jsoncpp-src-0.5.0\src\lib_json\json_writer.cpp
;	COMDAT ?writeValue@StyledWriter@Json@@AAEXABVValue@2@@Z
_TEXT	SEGMENT
_value$GSCopy$1$ = -68					; size = 4
$T66 = -64						; size = 24
$T32 = -64						; size = 24
$T21 = -64						; size = 24
$T20 = -64						; size = 24
$T11 = -40						; size = 24
$T9 = -40						; size = 24
$T6 = -40						; size = 24
$T4 = -40						; size = 24
$T2 = -40						; size = 24
$T1 = -40						; size = 24
_members$68 = -28					; size = 12
__$ArrayPad$ = -16					; size = 4
__$EHRec$ = -12						; size = 12
_value$ = 8						; size = 4
?writeValue@StyledWriter@Json@@AAEXABVValue@2@@Z PROC	; Json::StyledWriter::writeValue, COMDAT
; _this$ = ecx

; 292  : {

	push	ebp
	mov	ebp, esp
	push	-1
	push	__ehhandler$?writeValue@StyledWriter@Json@@AAEXABVValue@2@@Z
	mov	eax, DWORD PTR fs:0
	push	eax
	sub	esp, 56					; 00000038H
	mov	eax, DWORD PTR ___security_cookie
	xor	eax, ebp
	mov	DWORD PTR __$ArrayPad$[ebp], eax
	push	ebx
	push	esi
	push	edi
	push	eax
	lea	eax, DWORD PTR __$EHRec$[ebp]
	mov	DWORD PTR fs:0, eax
	mov	edi, ecx
	mov	ebx, DWORD PTR _value$[ebp]
	mov	DWORD PTR _value$GSCopy$1$[ebp], ebx

; 293  :    switch ( value.type() )

	movsx	eax, BYTE PTR [ebx+8]
	cmp	eax, 7
	ja	$LN2@writeValue
	jmp	DWORD PTR $LN303@writeValue[eax*4]
$LN6@writeValue:

; 296  :       pushValue( "null" );

	push	OFFSET ??_C@_04MLLLIHIP@null?$AA@
	lea	ecx, DWORD PTR $T1[ebp]
	call	??0?$basic_string@DU?$char_traits@D@std@@V?$allocator@D@2@@std@@QAE@PBD@Z ; std::basic_string<char,std::char_traits<char>,std::allocator<char> >::basic_string<char,std::char_traits<char>,std::allocator<char> >
	mov	DWORD PTR __$EHRec$[ebp+8], 0

; 439  :       childValues_.push_back( value );

	lea	eax, DWORD PTR $T1[ebp]
$LN302@writeValue:

; 349  : 
; 350  : 
; 351  : void 
; 352  : StyledWriter::writeArrayValue( const Value &value )
; 353  : {
; 354  :    unsigned size = value.size();
; 355  :    if ( size == 0 )
; 356  :       pushValue( "[]" );
; 357  :    else
; 358  :    {
; 359  :       bool isArrayMultiLine = isMultineArray( value );
; 360  :       if ( isArrayMultiLine )
; 361  :       {
; 362  :          writeWithIndent( "[" );
; 363  :          indent();
; 364  :          bool hasChildValue = !childValues_.empty();
; 365  :          unsigned index =0;
; 366  :          while ( true )
; 367  :          {
; 368  :             const Value &childValue = value[index];
; 369  :             writeCommentBeforeValue( childValue );
; 370  :             if ( hasChildValue )
; 371  :                writeWithIndent( childValues_[index] );
; 372  :             else
; 373  :             {
; 374  :                writeIndent();
; 375  :                writeValue( childValue );
; 376  :             }
; 377  :             if ( ++index == size )
; 378  :             {
; 379  :                writeCommentAfterValueOnSameLine( childValue );
; 380  :                break;
; 381  :             }
; 382  :             document_ += ",";
; 383  :             writeCommentAfterValueOnSameLine( childValue );
; 384  :          }
; 385  :          unindent();
; 386  :          writeWithIndent( "]" );
; 387  :       }
; 388  :       else // output on a single line
; 389  :       {
; 390  :          assert( childValues_.size() == size );
; 391  :          document_ += "[ ";
; 392  :          for ( unsigned index =0; index < size; ++index )
; 393  :          {
; 394  :             if ( index > 0 )
; 395  :                document_ += ", ";
; 396  :             document_ += childValues_[index];
; 397  :          }
; 398  :          document_ += " ]";
; 399  :       }
; 400  :    }
; 401  : }
; 402  : 
; 403  : 
; 404  : bool 
; 405  : StyledWriter::isMultineArray( const Value &value )
; 406  : {
; 407  :    int size = value.size();
; 408  :    bool isMultiLine = size*3 >= rightMargin_ ;
; 409  :    childValues_.clear();
; 410  :    for ( int index =0; index < size  &&  !isMultiLine; ++index )
; 411  :    {
; 412  :       const Value &childValue = value[index];
; 413  :       isMultiLine = isMultiLine  ||
; 414  :                      ( (childValue.isArray()  ||  childValue.isObject())  &&  
; 415  :                         childValue.size() > 0 );
; 416  :    }
; 417  :    if ( !isMultiLine ) // check if line length > max line length
; 418  :    {
; 419  :       childValues_.reserve( size );
; 420  :       addChildValues_ = true;
; 421  :       int lineLength = 4 + (size-1)*2; // '[ ' + ', '*n + ' ]'
; 422  :       for ( int index =0; index < size  &&  !isMultiLine; ++index )
; 423  :       {
; 424  :          writeValue( value[index] );
; 425  :          lineLength += int( childValues_[index].length() );
; 426  :          isMultiLine = isMultiLine  &&  hasCommentForValue( value[index] );
; 427  :       }
; 428  :       addChildValues_ = false;
; 429  :       isMultiLine = isMultiLine  ||  lineLength >= rightMargin_;
; 430  :    }
; 431  :    return isMultiLine;
; 432  : }
; 433  : 
; 434  : 
; 435  : void 
; 436  : StyledWriter::pushValue( const std::string &value )
; 437  : {
; 438  :    if ( addChildValues_ )

	cmp	BYTE PTR [edi+72], 0
	je	SHORT $LN32@writeValue

; 439  :       childValues_.push_back( value );

	push	eax
	lea	ecx, DWORD PTR [edi+4]
	call	?push_back@?$vector@V?$basic_string@DU?$char_traits@D@std@@V?$allocator@D@2@@std@@V?$allocator@V?$basic_string@DU?$char_traits@D@std@@V?$allocator@D@2@@std@@@2@@std@@QAEXABV?$basic_string@DU?$char_traits@D@std@@V?$allocator@D@2@@2@@Z ; std::vector<std::basic_string<char,std::char_traits<char>,std::allocator<char> >,std::allocator<std::basic_string<char,std::char_traits<char>,std::allocator<char> > > >::push_back

; 296  :       pushValue( "null" );

	lea	ecx, DWORD PTR $T1[ebp]
	call	??1?$basic_string@DU?$char_traits@D@std@@V?$allocator@D@2@@std@@QAE@XZ ; std::basic_string<char,std::char_traits<char>,std::allocator<char> >::~basic_string<char,std::char_traits<char>,std::allocator<char> >

; 297  :       break;

	jmp	$LN2@writeValue
$LN32@writeValue:
; File c:\program files (x86)\microsoft visual studio 14.0\vc\include\xstring

; 1065 : 		return (append(_Right, 0, npos));

	push	-1
	push	0
	push	eax
; File e:\tool\c++incolude\jsoncpp-src-0.5.0\src\lib_json\json_writer.cpp

; 441  :       document_ += value;

	lea	ecx, DWORD PTR [edi+16]
; File c:\program files (x86)\microsoft visual studio 14.0\vc\include\xstring

; 1065 : 		return (append(_Right, 0, npos));

	call	?append@?$basic_string@DU?$char_traits@D@std@@V?$allocator@D@2@@std@@QAEAAV12@ABV12@II@Z ; std::basic_string<char,std::char_traits<char>,std::allocator<char> >::append
; File e:\tool\c++incolude\jsoncpp-src-0.5.0\src\lib_json\json_writer.cpp

; 296  :       pushValue( "null" );

	lea	ecx, DWORD PTR $T1[ebp]
	call	??1?$basic_string@DU?$char_traits@D@std@@V?$allocator@D@2@@std@@QAE@XZ ; std::basic_string<char,std::char_traits<char>,std::allocator<char> >::~basic_string<char,std::char_traits<char>,std::allocator<char> >

; 297  :       break;

	jmp	$LN2@writeValue
$LN7@writeValue:

; 298  :    case intValue:
; 299  :       pushValue( valueToString( value.asInt() ) );

	mov	ecx, ebx
	call	?asInt@Value@Json@@QBEHXZ		; Json::Value::asInt
	push	eax
	lea	eax, DWORD PTR $T2[ebp]
	push	eax
	call	?valueToString@Json@@YA?AV?$basic_string@DU?$char_traits@D@std@@V?$allocator@D@2@@std@@H@Z ; Json::valueToString
	add	esp, 8
	mov	DWORD PTR __$EHRec$[ebp+8], 1

; 440  :    else

	jmp	SHORT $LN302@writeValue
$LN8@writeValue:

; 300  :       break;
; 301  :    case uintValue:
; 302  :       pushValue( valueToString( value.asUInt() ) );

	mov	ecx, ebx
	call	?asUInt@Value@Json@@QBEIXZ		; Json::Value::asUInt
	push	eax
	lea	eax, DWORD PTR $T4[ebp]
	push	eax
	call	?valueToString@Json@@YA?AV?$basic_string@DU?$char_traits@D@std@@V?$allocator@D@2@@std@@I@Z ; Json::valueToString
	add	esp, 8
	mov	DWORD PTR __$EHRec$[ebp+8], 2

; 440  :    else

	jmp	SHORT $LN302@writeValue
$LN9@writeValue:

; 303  :       break;
; 304  :    case realValue:
; 305  :       pushValue( valueToString( value.asDouble() ) );

	mov	ecx, ebx
	call	?asDouble@Value@Json@@QBENXZ		; Json::Value::asDouble
	sub	esp, 8
	lea	eax, DWORD PTR $T6[ebp]
	fstp	QWORD PTR [esp]
	push	eax
	call	?valueToString@Json@@YA?AV?$basic_string@DU?$char_traits@D@std@@V?$allocator@D@2@@std@@N@Z ; Json::valueToString
	add	esp, 12					; 0000000cH
	mov	DWORD PTR __$EHRec$[ebp+8], 3

; 440  :    else

	jmp	$LN302@writeValue
$LN10@writeValue:

; 306  :       break;
; 307  :    case stringValue:
; 308  :       pushValue( valueToQuotedString( value.asCString() ) );

	push	DWORD PTR [ebx]
	lea	eax, DWORD PTR $T9[ebp]
	push	eax
	call	?valueToQuotedString@Json@@YA?AV?$basic_string@DU?$char_traits@D@std@@V?$allocator@D@2@@std@@PBD@Z ; Json::valueToQuotedString
	add	esp, 8
	mov	DWORD PTR __$EHRec$[ebp+8], 4

; 440  :    else

	jmp	$LN302@writeValue
$LN11@writeValue:

; 309  :       break;
; 310  :    case booleanValue:
; 311  :       pushValue( valueToString( value.asBool() ) );

	mov	ecx, ebx
	call	?asBool@Value@Json@@QBE_NXZ		; Json::Value::asBool
	movzx	eax, al
	push	eax
	lea	eax, DWORD PTR $T11[ebp]
	push	eax
	call	?valueToString@Json@@YA?AV?$basic_string@DU?$char_traits@D@std@@V?$allocator@D@2@@std@@_N@Z ; Json::valueToString
	add	esp, 8
	mov	DWORD PTR __$EHRec$[ebp+8], 5

; 440  :    else

	jmp	$LN302@writeValue
$LN12@writeValue:

; 312  :       break;
; 313  :    case arrayValue:
; 314  :       writeArrayValue( value);

	push	ebx
	call	?writeArrayValue@StyledWriter@Json@@AAEXABVValue@2@@Z ; Json::StyledWriter::writeArrayValue

; 315  :       break;

	jmp	$LN2@writeValue
$LN13@writeValue:

; 316  :    case objectValue:
; 317  :       {
; 318  :          Value::Members members( value.getMemberNames() );

	lea	eax, DWORD PTR _members$68[ebp]
	mov	ecx, ebx
	push	eax
	call	?getMemberNames@Value@Json@@QBE?AV?$vector@V?$basic_string@DU?$char_traits@D@std@@V?$allocator@D@2@@std@@V?$allocator@V?$basic_string@DU?$char_traits@D@std@@V?$allocator@D@2@@std@@@2@@std@@XZ ; Json::Value::getMemberNames
	mov	DWORD PTR __$EHRec$[ebp+8], 6

; 320  :             pushValue( "{}" );

	lea	ecx, DWORD PTR $T20[ebp]
; File c:\program files (x86)\microsoft visual studio 14.0\vc\include\vector

; 1190 : 		return (this->_Myfirst() == this->_Mylast());

	mov	esi, DWORD PTR _members$68[ebp]
	cmp	esi, DWORD PTR _members$68[ebp+4]
	sete	al
; File e:\tool\c++incolude\jsoncpp-src-0.5.0\src\lib_json\json_writer.cpp

; 319  :          if ( members.empty() )

	test	al, al
	je	SHORT $LN14@writeValue

; 320  :             pushValue( "{}" );

	push	OFFSET ??_C@_02MCILKGOH@?$HL?$HN?$AA@
	call	??0?$basic_string@DU?$char_traits@D@std@@V?$allocator@D@2@@std@@QAE@PBD@Z ; std::basic_string<char,std::char_traits<char>,std::allocator<char> >::basic_string<char,std::char_traits<char>,std::allocator<char> >
	lea	eax, DWORD PTR $T20[ebp]
	mov	BYTE PTR __$EHRec$[ebp+8], 7
	push	eax
	mov	ecx, edi
	call	?pushValue@StyledWriter@Json@@AAEXABV?$basic_string@DU?$char_traits@D@std@@V?$allocator@D@2@@std@@@Z ; Json::StyledWriter::pushValue

; 321  :          else

	jmp	$LN301@writeValue
$LN14@writeValue:

; 322  :          {
; 323  :             writeWithIndent( "{" );

	push	OFFSET ??_C@_01HCONENDN@?$HL?$AA@
	call	??0?$basic_string@DU?$char_traits@D@std@@V?$allocator@D@2@@std@@QAE@PBD@Z ; std::basic_string<char,std::char_traits<char>,std::allocator<char> >::basic_string<char,std::char_traits<char>,std::allocator<char> >
	lea	eax, DWORD PTR $T21[ebp]
	mov	BYTE PTR __$EHRec$[ebp+8], 8
	push	eax
	mov	ecx, edi
	call	?writeWithIndent@StyledWriter@Json@@AAEXABV?$basic_string@DU?$char_traits@D@std@@V?$allocator@D@2@@std@@@Z ; Json::StyledWriter::writeWithIndent
	lea	ecx, DWORD PTR $T21[ebp]
	mov	BYTE PTR __$EHRec$[ebp+8], 6
	call	??1?$basic_string@DU?$char_traits@D@std@@V?$allocator@D@2@@std@@QAE@XZ ; std::basic_string<char,std::char_traits<char>,std::allocator<char> >::~basic_string<char,std::char_traits<char>,std::allocator<char> >

; 324  :             indent();

	mov	ecx, edi
	call	?indent@StyledWriter@Json@@AAEXXZ	; Json::StyledWriter::indent
$LL4@writeValue:

; 325  :             Value::Members::iterator it = members.begin();
; 326  :             while ( true )
; 327  :             {
; 328  :                const std::string &name = *it;
; 329  :                const Value &childValue = value[name];

	push	esi
	mov	ecx, ebx
	call	??AValue@Json@@QBEABV01@ABV?$basic_string@DU?$char_traits@D@std@@V?$allocator@D@2@@std@@@Z ; Json::Value::operator[]
	mov	ebx, eax

; 330  :                writeCommentBeforeValue( childValue );

	mov	ecx, edi
	push	ebx
	call	?writeCommentBeforeValue@StyledWriter@Json@@AAEXABVValue@2@@Z ; Json::StyledWriter::writeCommentBeforeValue
; File c:\program files (x86)\microsoft visual studio 14.0\vc\include\xstring

; 521  : 		return (this->_BUF_SIZE <= _Myres

	cmp	DWORD PTR [esi+20], 16			; 00000010H
	jb	SHORT $LN143@writeValue
; File c:\program files (x86)\microsoft visual studio 14.0\vc\include\xstddef

; 740  : 	return (_Ptr);

	mov	eax, DWORD PTR [esi]
; File c:\program files (x86)\microsoft visual studio 14.0\vc\include\xstring

; 521  : 		return (this->_BUF_SIZE <= _Myres

	jmp	SHORT $LN144@writeValue
$LN143@writeValue:
	mov	eax, esi
$LN144@writeValue:
; File e:\tool\c++incolude\jsoncpp-src-0.5.0\src\lib_json\json_writer.cpp

; 331  :                writeWithIndent( valueToQuotedString( name.c_str() ) );

	push	eax
	lea	eax, DWORD PTR $T32[ebp]
	push	eax
	call	?valueToQuotedString@Json@@YA?AV?$basic_string@DU?$char_traits@D@std@@V?$allocator@D@2@@std@@PBD@Z ; Json::valueToQuotedString
	add	esp, 8
	push	eax
	mov	ecx, edi
	mov	BYTE PTR __$EHRec$[ebp+8], 9
	call	?writeWithIndent@StyledWriter@Json@@AAEXABV?$basic_string@DU?$char_traits@D@std@@V?$allocator@D@2@@std@@@Z ; Json::StyledWriter::writeWithIndent
	mov	BYTE PTR __$EHRec$[ebp+8], 6
; File c:\program files (x86)\microsoft visual studio 14.0\vc\include\xstring

; 2251 : 		else if (this->_BUF_SIZE <= this->_Myres())

	mov	eax, DWORD PTR $T32[ebp+20]
	cmp	eax, 16					; 00000010H
	jb	SHORT $LN153@writeValue

; 2252 : 			{	// copy any leftovers to small buffer and deallocate
; 2253 : 			pointer _Ptr = this->_Bx()._Ptr;
; 2254 : 			this->_Getal().destroy(_STD addressof(this->_Bx()._Ptr));
; 2255 : 			if (0 < _Newsize)
; 2256 : 				_Traits::copy(this->_Bx()._Buf,
; 2257 : 					_Unfancy(_Ptr), _Newsize);
; 2258 : 			this->_Getal().deallocate(_Ptr, this->_Myres() + 1);

	inc	eax
	push	eax
	push	DWORD PTR $T32[ebp]
	call	?deallocate@?$_Wrap_alloc@V?$allocator@D@std@@@std@@QAEXPADI@Z ; std::_Wrap_alloc<std::allocator<char> >::deallocate
$LN153@writeValue:

; 1107 : 		return (append(_Ptr, _Traits::length(_Ptr)));

	push	3
	push	OFFSET ??_C@_03MCPBMLDJ@?5?3?5?$AA@
	lea	ecx, DWORD PTR [edi+16]
	call	?append@?$basic_string@DU?$char_traits@D@std@@V?$allocator@D@2@@std@@QAEAAV12@PBDI@Z ; std::basic_string<char,std::char_traits<char>,std::allocator<char> >::append
; File e:\tool\c++incolude\jsoncpp-src-0.5.0\src\lib_json\json_writer.cpp

; 333  :                writeValue( childValue );

	push	ebx
	mov	ecx, edi
	call	?writeValue@StyledWriter@Json@@AAEXABVValue@2@@Z ; Json::StyledWriter::writeValue
; File c:\program files (x86)\microsoft visual studio 14.0\vc\include\vector

; 113  : 		++_Ptr;

	add	esi, 24					; 00000018H

; 214  : 		return (_Ptr == _Right._Ptr);

	cmp	esi, DWORD PTR _members$68[ebp+4]
; File e:\tool\c++incolude\jsoncpp-src-0.5.0\src\lib_json\json_writer.cpp

; 334  :                if ( ++it == members.end() )

	je	SHORT $LN297@writeValue
; File c:\program files (x86)\microsoft visual studio 14.0\vc\include\xstring

; 1107 : 		return (append(_Ptr, _Traits::length(_Ptr)));

	push	1
	push	OFFSET ??_C@_01IHBHIGKO@?0?$AA@
	lea	ecx, DWORD PTR [edi+16]
	call	?append@?$basic_string@DU?$char_traits@D@std@@V?$allocator@D@2@@std@@QAEAAV12@PBDI@Z ; std::basic_string<char,std::char_traits<char>,std::allocator<char> >::append
; File e:\tool\c++incolude\jsoncpp-src-0.5.0\src\lib_json\json_writer.cpp

; 340  :                writeCommentAfterValueOnSameLine( childValue );

	push	ebx
	mov	ecx, edi
	call	?writeCommentAfterValueOnSameLine@StyledWriter@Json@@AAEXABVValue@2@@Z ; Json::StyledWriter::writeCommentAfterValueOnSameLine

; 341  :             }

	mov	ebx, DWORD PTR _value$GSCopy$1$[ebp]
	jmp	$LL4@writeValue
$LN297@writeValue:

; 335  :                {
; 336  :                   writeCommentAfterValueOnSameLine( childValue );

	push	ebx
	mov	ecx, edi
	call	?writeCommentAfterValueOnSameLine@StyledWriter@Json@@AAEXABVValue@2@@Z ; Json::StyledWriter::writeCommentAfterValueOnSameLine

; 342  :             unindent();

	mov	ecx, edi
	call	?unindent@StyledWriter@Json@@AAEXXZ	; Json::StyledWriter::unindent

; 343  :             writeWithIndent( "}" );

	push	OFFSET ??_C@_01CELHOKLL@?$HN?$AA@
	lea	ecx, DWORD PTR $T66[ebp]
	call	??0?$basic_string@DU?$char_traits@D@std@@V?$allocator@D@2@@std@@QAE@PBD@Z ; std::basic_string<char,std::char_traits<char>,std::allocator<char> >::basic_string<char,std::char_traits<char>,std::allocator<char> >
	lea	eax, DWORD PTR $T66[ebp]
	mov	BYTE PTR __$EHRec$[ebp+8], 10		; 0000000aH
	push	eax
	mov	ecx, edi
	call	?writeWithIndent@StyledWriter@Json@@AAEXABV?$basic_string@DU?$char_traits@D@std@@V?$allocator@D@2@@std@@@Z ; Json::StyledWriter::writeWithIndent
$LN301@writeValue:
	lea	ecx, DWORD PTR $T66[ebp]
	call	??1?$basic_string@DU?$char_traits@D@std@@V?$allocator@D@2@@std@@QAE@XZ ; std::basic_string<char,std::char_traits<char>,std::allocator<char> >::~basic_string<char,std::char_traits<char>,std::allocator<char> >

; 344  :          }
; 345  :       }

	lea	ecx, DWORD PTR _members$68[ebp]
	call	??1?$vector@V?$basic_string@DU?$char_traits@D@std@@V?$allocator@D@2@@std@@V?$allocator@V?$basic_string@DU?$char_traits@D@std@@V?$allocator@D@2@@std@@@2@@std@@QAE@XZ ; std::vector<std::basic_string<char,std::char_traits<char>,std::allocator<char> >,std::allocator<std::basic_string<char,std::char_traits<char>,std::allocator<char> > > >::~vector<std::basic_string<char,std::char_traits<char>,std::allocator<char> >,std::allocator<std::basic_string<char,std::char_traits<char>,std::allocator<char> > > >
$LN2@writeValue:

; 346  :       break;
; 347  :    }
; 348  : }

	mov	ecx, DWORD PTR __$EHRec$[ebp]
	mov	DWORD PTR fs:0, ecx
	pop	ecx
	pop	edi
	pop	esi
	pop	ebx
	mov	ecx, DWORD PTR __$ArrayPad$[ebp]
	xor	ecx, ebp
	call	@__security_check_cookie@4
	mov	esp, ebp
	pop	ebp
	ret	4
	npad	1
$LN303@writeValue:
	DD	$LN6@writeValue
	DD	$LN7@writeValue
	DD	$LN8@writeValue
	DD	$LN9@writeValue
	DD	$LN10@writeValue
	DD	$LN11@writeValue
	DD	$LN12@writeValue
	DD	$LN13@writeValue
_TEXT	ENDS
;	COMDAT text$x
text$x	SEGMENT
__unwindfunclet$?writeValue@StyledWriter@Json@@AAEXABVValue@2@@Z$0:
	lea	ecx, DWORD PTR $T1[ebp]
	jmp	??1?$basic_string@DU?$char_traits@D@std@@V?$allocator@D@2@@std@@QAE@XZ ; std::basic_string<char,std::char_traits<char>,std::allocator<char> >::~basic_string<char,std::char_traits<char>,std::allocator<char> >
__unwindfunclet$?writeValue@StyledWriter@Json@@AAEXABVValue@2@@Z$1:
	lea	ecx, DWORD PTR $T2[ebp]
	jmp	??1?$basic_string@DU?$char_traits@D@std@@V?$allocator@D@2@@std@@QAE@XZ ; std::basic_string<char,std::char_traits<char>,std::allocator<char> >::~basic_string<char,std::char_traits<char>,std::allocator<char> >
__unwindfunclet$?writeValue@StyledWriter@Json@@AAEXABVValue@2@@Z$2:
	lea	ecx, DWORD PTR $T4[ebp]
	jmp	??1?$basic_string@DU?$char_traits@D@std@@V?$allocator@D@2@@std@@QAE@XZ ; std::basic_string<char,std::char_traits<char>,std::allocator<char> >::~basic_string<char,std::char_traits<char>,std::allocator<char> >
__unwindfunclet$?writeValue@StyledWriter@Json@@AAEXABVValue@2@@Z$3:
	lea	ecx, DWORD PTR $T6[ebp]
	jmp	??1?$basic_string@DU?$char_traits@D@std@@V?$allocator@D@2@@std@@QAE@XZ ; std::basic_string<char,std::char_traits<char>,std::allocator<char> >::~basic_string<char,std::char_traits<char>,std::allocator<char> >
__unwindfunclet$?writeValue@StyledWriter@Json@@AAEXABVValue@2@@Z$4:
	lea	ecx, DWORD PTR $T9[ebp]
	jmp	??1?$basic_string@DU?$char_traits@D@std@@V?$allocator@D@2@@std@@QAE@XZ ; std::basic_string<char,std::char_traits<char>,std::allocator<char> >::~basic_string<char,std::char_traits<char>,std::allocator<char> >
__unwindfunclet$?writeValue@StyledWriter@Json@@AAEXABVValue@2@@Z$5:
	lea	ecx, DWORD PTR $T11[ebp]
	jmp	??1?$basic_string@DU?$char_traits@D@std@@V?$allocator@D@2@@std@@QAE@XZ ; std::basic_string<char,std::char_traits<char>,std::allocator<char> >::~basic_string<char,std::char_traits<char>,std::allocator<char> >
__unwindfunclet$?writeValue@StyledWriter@Json@@AAEXABVValue@2@@Z$6:
	lea	ecx, DWORD PTR _members$68[ebp]
	jmp	??1?$vector@V?$basic_string@DU?$char_traits@D@std@@V?$allocator@D@2@@std@@V?$allocator@V?$basic_string@DU?$char_traits@D@std@@V?$allocator@D@2@@std@@@2@@std@@QAE@XZ ; std::vector<std::basic_string<char,std::char_traits<char>,std::allocator<char> >,std::allocator<std::basic_string<char,std::char_traits<char>,std::allocator<char> > > >::~vector<std::basic_string<char,std::char_traits<char>,std::allocator<char> >,std::allocator<std::basic_string<char,std::char_traits<char>,std::allocator<char> > > >
__unwindfunclet$?writeValue@StyledWriter@Json@@AAEXABVValue@2@@Z$7:
	lea	ecx, DWORD PTR $T20[ebp]
	jmp	??1?$basic_string@DU?$char_traits@D@std@@V?$allocator@D@2@@std@@QAE@XZ ; std::basic_string<char,std::char_traits<char>,std::allocator<char> >::~basic_string<char,std::char_traits<char>,std::allocator<char> >
__unwindfunclet$?writeValue@StyledWriter@Json@@AAEXABVValue@2@@Z$8:
	lea	ecx, DWORD PTR $T21[ebp]
	jmp	??1?$basic_string@DU?$char_traits@D@std@@V?$allocator@D@2@@std@@QAE@XZ ; std::basic_string<char,std::char_traits<char>,std::allocator<char> >::~basic_string<char,std::char_traits<char>,std::allocator<char> >
__unwindfunclet$?writeValue@StyledWriter@Json@@AAEXABVValue@2@@Z$9:
	lea	ecx, DWORD PTR $T32[ebp]
	jmp	??1?$basic_string@DU?$char_traits@D@std@@V?$allocator@D@2@@std@@QAE@XZ ; std::basic_string<char,std::char_traits<char>,std::allocator<char> >::~basic_string<char,std::char_traits<char>,std::allocator<char> >
__unwindfunclet$?writeValue@StyledWriter@Json@@AAEXABVValue@2@@Z$10:
	lea	ecx, DWORD PTR $T66[ebp]
	jmp	??1?$basic_string@DU?$char_traits@D@std@@V?$allocator@D@2@@std@@QAE@XZ ; std::basic_string<char,std::char_traits<char>,std::allocator<char> >::~basic_string<char,std::char_traits<char>,std::allocator<char> >
__ehhandler$?writeValue@StyledWriter@Json@@AAEXABVValue@2@@Z:
	mov	edx, DWORD PTR [esp+8]
	lea	eax, DWORD PTR [edx+12]
	mov	ecx, DWORD PTR [edx-72]
	xor	ecx, eax
	call	@__security_check_cookie@4
	mov	ecx, DWORD PTR [edx-4]
	xor	ecx, eax
	call	@__security_check_cookie@4
	mov	eax, OFFSET __ehfuncinfo$?writeValue@StyledWriter@Json@@AAEXABVValue@2@@Z
	jmp	___CxxFrameHandler3
text$x	ENDS
?writeValue@StyledWriter@Json@@AAEXABVValue@2@@Z ENDP	; Json::StyledWriter::writeValue
; Function compile flags: /Ogtp
; File e:\tool\c++incolude\jsoncpp-src-0.5.0\src\lib_json\json_writer.cpp
; File c:\program files (x86)\microsoft visual studio 14.0\vc\include\xstring
; File c:\program files (x86)\microsoft visual studio 14.0\vc\include\iosfwd
; File c:\program files (x86)\microsoft visual studio 14.0\vc\include\xstring
; File e:\tool\c++incolude\jsoncpp-src-0.5.0\src\lib_json\json_writer.cpp
; File c:\program files (x86)\microsoft visual studio 14.0\vc\include\xstring
; File e:\tool\c++incolude\jsoncpp-src-0.5.0\src\lib_json\json_writer.cpp
; File c:\program files (x86)\microsoft visual studio 14.0\vc\include\xstring
; File e:\tool\c++incolude\jsoncpp-src-0.5.0\src\lib_json\json_writer.cpp
; File c:\program files (x86)\microsoft visual studio 14.0\vc\include\xstring
; File c:\program files (x86)\microsoft visual studio 14.0\vc\include\iosfwd
; File c:\program files (x86)\microsoft visual studio 14.0\vc\include\xstring
; File e:\tool\c++incolude\jsoncpp-src-0.5.0\src\lib_json\json_writer.cpp
; File c:\program files (x86)\microsoft visual studio 14.0\vc\include\xstring
; File e:\tool\c++incolude\jsoncpp-src-0.5.0\src\lib_json\json_writer.cpp
; File c:\program files (x86)\microsoft visual studio 14.0\vc\include\vector
; File e:\tool\c++incolude\jsoncpp-src-0.5.0\src\lib_json\json_writer.cpp
; File e:\tool\c++incolude\jsoncpp-src-0.5.0\src\lib_json\json_value.cpp
; File c:\program files (x86)\microsoft visual studio 14.0\vc\include\xtree
; File e:\tool\c++incolude\jsoncpp-src-0.5.0\src\lib_json\json_value.cpp
; File e:\tool\c++incolude\jsoncpp-src-0.5.0\src\lib_json\json_writer.cpp
; File c:\program files (x86)\microsoft visual studio 14.0\vc\include\vector
; File c:\program files (x86)\microsoft visual studio 14.0\vc\include\xutility
; File c:\program files (x86)\microsoft visual studio 14.0\vc\include\vector
; File e:\tool\c++incolude\jsoncpp-src-0.5.0\src\lib_json\json_writer.cpp
; File c:\program files (x86)\microsoft visual studio 14.0\vc\include\xstring
; File c:\program files (x86)\microsoft visual studio 14.0\vc\include\xstddef
; File c:\program files (x86)\microsoft visual studio 14.0\vc\include\xstring
; File e:\tool\c++incolude\jsoncpp-src-0.5.0\src\lib_json\json_writer.cpp
; File c:\program files (x86)\microsoft visual studio 14.0\vc\include\xstring
; File e:\tool\c++incolude\jsoncpp-src-0.5.0\src\lib_json\json_writer.cpp
; File c:\program files (x86)\microsoft visual studio 14.0\vc\include\xstring
; File e:\tool\c++incolude\jsoncpp-src-0.5.0\src\lib_json\json_writer.cpp
; File c:\program files (x86)\microsoft visual studio 14.0\vc\include\xutility
; File e:\tool\c++incolude\jsoncpp-src-0.5.0\src\lib_json\json_writer.cpp
; File c:\program files (x86)\microsoft visual studio 14.0\vc\include\xstring
; File c:\program files (x86)\microsoft visual studio 14.0\vc\include\xstddef
; File c:\program files (x86)\microsoft visual studio 14.0\vc\include\xstring
; File e:\tool\c++incolude\jsoncpp-src-0.5.0\src\lib_json\json_writer.cpp
; File c:\program files (x86)\microsoft visual studio 14.0\vc\include\xstring
; File e:\tool\c++incolude\jsoncpp-src-0.5.0\src\lib_json\json_writer.cpp
; File c:\program files (x86)\microsoft visual studio 14.0\vc\include\xstring
; File e:\tool\c++incolude\jsoncpp-src-0.5.0\src\lib_json\json_writer.cpp
; File c:\program files (x86)\microsoft visual studio 14.0\vc\include\xstring
; File e:\tool\c++incolude\jsoncpp-src-0.5.0\src\lib_json\json_writer.cpp
; File c:\program files (x86)\microsoft visual studio 14.0\vc\include\xstring
; File e:\tool\c++incolude\jsoncpp-src-0.5.0\src\lib_json\json_writer.cpp
; File c:\program files (x86)\microsoft visual studio 14.0\vc\include\xstring
; File c:\program files (x86)\microsoft visual studio 14.0\vc\include\xstddef
; File c:\program files (x86)\microsoft visual studio 14.0\vc\include\iosfwd
; File c:\program files (x86)\microsoft visual studio 14.0\vc\include\xstring
; File c:\program files (x86)\microsoft visual studio 14.0\vc\include\iosfwd
; File c:\program files (x86)\microsoft visual studio 14.0\vc\include\xstring
; File e:\tool\c++incolude\jsoncpp-src-0.5.0\src\lib_json\json_writer.cpp
; File c:\program files (x86)\microsoft visual studio 14.0\vc\include\xstring
; File e:\tool\c++incolude\jsoncpp-src-0.5.0\src\lib_json\json_writer.cpp
; File c:\program files (x86)\microsoft visual studio 14.0\vc\include\xstring
; File e:\tool\c++incolude\jsoncpp-src-0.5.0\src\lib_json\json_writer.cpp
; File c:\program files (x86)\microsoft visual studio 14.0\vc\include\xstring
; File e:\tool\c++incolude\jsoncpp-src-0.5.0\src\lib_json\json_writer.cpp
; File c:\program files (x86)\microsoft visual studio 14.0\vc\include\xstring
; File e:\tool\c++incolude\jsoncpp-src-0.5.0\src\lib_json\json_writer.cpp
; File c:\program files (x86)\microsoft visual studio 14.0\vc\include\xstring
; File c:\program files (x86)\microsoft visual studio 14.0\vc\include\vector
; File c:\program files (x86)\microsoft visual studio 14.0\vc\include\xstring
; File c:\program files (x86)\microsoft visual studio 14.0\vc\include\vector
; File c:\program files (x86)\microsoft visual studio 14.0\vc\include\xstring
; File e:\tool\c++incolude\jsoncpp-src-0.5.0\src\lib_json\json_writer.cpp
; File c:\program files (x86)\microsoft visual studio 14.0\vc\include\xstring
; File e:\tool\c++incolude\jsoncpp-src-0.5.0\src\lib_json\json_writer.cpp
;	COMDAT ?writeArrayValue@StyledWriter@Json@@AAEXABVValue@2@@Z
_TEXT	SEGMENT
$T114 = -104						; size = 4
_key$221 = -100						; size = 8
tv2267 = -92						; size = 4
tv2256 = -88						; size = 4
_value$GSCopy$1$ = -84					; size = 4
_size$1$ = -80						; size = 4
tv2249 = -76						; size = 4
_value$1$ = -76						; size = 4
_index$1$ = -72						; size = 4
tv2238 = -68						; size = 4
$T164 = -64						; size = 24
$T54 = -40						; size = 24
$T1 = -40						; size = 24
__$ArrayPad$ = -16					; size = 4
__$EHRec$ = -12						; size = 12
_value$ = 8						; size = 4
?writeArrayValue@StyledWriter@Json@@AAEXABVValue@2@@Z PROC ; Json::StyledWriter::writeArrayValue, COMDAT
; _this$ = ecx

; 353  : {

	push	ebp
	mov	ebp, esp
	push	-1
	push	__ehhandler$?writeArrayValue@StyledWriter@Json@@AAEXABVValue@2@@Z
	mov	eax, DWORD PTR fs:0
	push	eax
	sub	esp, 92					; 0000005cH
	mov	eax, DWORD PTR ___security_cookie
	xor	eax, ebp
	mov	DWORD PTR __$ArrayPad$[ebp], eax
	push	ebx
	push	esi
	push	edi
	push	eax
	lea	eax, DWORD PTR __$EHRec$[ebp]
	mov	DWORD PTR fs:0, eax
	mov	edi, ecx
	mov	esi, DWORD PTR _value$[ebp]

; 354  :    unsigned size = value.size();

	mov	ecx, esi
	mov	DWORD PTR _value$GSCopy$1$[ebp], esi
	call	?size@Value@Json@@QBEIXZ		; Json::Value::size
	mov	ebx, eax
	mov	DWORD PTR _size$1$[ebp], ebx

; 355  :    if ( size == 0 )

	test	ebx, ebx
	jne	SHORT $LN7@writeArray
; File c:\program files (x86)\microsoft visual studio 14.0\vc\include\xstring

; 1182 : 		return (assign(_Ptr, _Traits::length(_Ptr)));

	push	2
	push	OFFSET ??_C@_02GPECMEKF@?$FL?$FN?$AA@
	lea	ecx, DWORD PTR $T1[ebp]

; 2260 : 		this->_Myres() = this->_BUF_SIZE - 1;

	mov	DWORD PTR $T1[ebp+20], 15		; 0000000fH

; 2219 : 		_Traits::assign(_Dx._Myptr()[_Dx._Mysize = _Newsize], _Elem());

	mov	DWORD PTR $T1[ebp+16], eax
; File c:\program files (x86)\microsoft visual studio 14.0\vc\include\iosfwd

; 565  : 		_Left = _Right;

	mov	BYTE PTR $T1[ebp], al
; File c:\program files (x86)\microsoft visual studio 14.0\vc\include\xstring

; 1182 : 		return (assign(_Ptr, _Traits::length(_Ptr)));

	call	?assign@?$basic_string@DU?$char_traits@D@std@@V?$allocator@D@2@@std@@QAEAAV12@PBDI@Z ; std::basic_string<char,std::char_traits<char>,std::allocator<char> >::assign
; File e:\tool\c++incolude\jsoncpp-src-0.5.0\src\lib_json\json_writer.cpp

; 356  :       pushValue( "[]" );

	mov	DWORD PTR __$EHRec$[ebp+8], ebx

; 439  :       childValues_.push_back( value );

	lea	eax, DWORD PTR $T1[ebp]
	cmp	BYTE PTR [edi+72], bl
	je	SHORT $LN132@writeArray
	lea	ecx, DWORD PTR [edi+4]
	push	eax
	call	?push_back@?$vector@V?$basic_string@DU?$char_traits@D@std@@V?$allocator@D@2@@std@@V?$allocator@V?$basic_string@DU?$char_traits@D@std@@V?$allocator@D@2@@std@@@2@@std@@QAEXABV?$basic_string@DU?$char_traits@D@std@@V?$allocator@D@2@@2@@Z ; std::vector<std::basic_string<char,std::char_traits<char>,std::allocator<char> >,std::allocator<std::basic_string<char,std::char_traits<char>,std::allocator<char> > > >::push_back

; 440  :    else

	jmp	SHORT $LN133@writeArray
$LN132@writeArray:
; File c:\program files (x86)\microsoft visual studio 14.0\vc\include\xstring

; 1065 : 		return (append(_Right, 0, npos));

	push	-1
	push	0
; File e:\tool\c++incolude\jsoncpp-src-0.5.0\src\lib_json\json_writer.cpp

; 441  :       document_ += value;

	lea	ecx, DWORD PTR [edi+16]
; File c:\program files (x86)\microsoft visual studio 14.0\vc\include\xstring

; 1065 : 		return (append(_Right, 0, npos));

	push	eax
	call	?append@?$basic_string@DU?$char_traits@D@std@@V?$allocator@D@2@@std@@QAEAAV12@ABV12@II@Z ; std::basic_string<char,std::char_traits<char>,std::allocator<char> >::append
$LN133@writeArray:

; 2251 : 		else if (this->_BUF_SIZE <= this->_Myres())

	mov	eax, DWORD PTR $T1[ebp+20]
	cmp	eax, 16					; 00000010H
	jb	$LN10@writeArray

; 2252 : 			{	// copy any leftovers to small buffer and deallocate
; 2253 : 			pointer _Ptr = this->_Bx()._Ptr;
; 2254 : 			this->_Getal().destroy(_STD addressof(this->_Bx()._Ptr));
; 2255 : 			if (0 < _Newsize)
; 2256 : 				_Traits::copy(this->_Bx()._Buf,
; 2257 : 					_Unfancy(_Ptr), _Newsize);
; 2258 : 			this->_Getal().deallocate(_Ptr, this->_Myres() + 1);

	inc	eax
	push	eax
	push	DWORD PTR $T1[ebp]
	call	?deallocate@?$_Wrap_alloc@V?$allocator@D@std@@@std@@QAEXPADI@Z ; std::_Wrap_alloc<std::allocator<char> >::deallocate
; File e:\tool\c++incolude\jsoncpp-src-0.5.0\src\lib_json\json_writer.cpp

; 357  :    else

	jmp	$LN10@writeArray
$LN7@writeArray:

; 358  :    {
; 359  :       bool isArrayMultiLine = isMultineArray( value );

	push	esi
	mov	ecx, edi
	call	?isMultineArray@StyledWriter@Json@@AAE_NABVValue@2@@Z ; Json::StyledWriter::isMultineArray

; 360  :       if ( isArrayMultiLine )

	test	al, al
	je	$LN923@writeArray
; File c:\program files (x86)\microsoft visual studio 14.0\vc\include\xstring

; 1182 : 		return (assign(_Ptr, _Traits::length(_Ptr)));

	push	1
	push	OFFSET ??_C@_01OHGJGJJP@?$FL?$AA@
	lea	ecx, DWORD PTR $T54[ebp]

; 2260 : 		this->_Myres() = this->_BUF_SIZE - 1;

	mov	DWORD PTR $T54[ebp+20], 15		; 0000000fH

; 2219 : 		_Traits::assign(_Dx._Myptr()[_Dx._Mysize = _Newsize], _Elem());

	mov	DWORD PTR $T54[ebp+16], 0
; File c:\program files (x86)\microsoft visual studio 14.0\vc\include\iosfwd

; 565  : 		_Left = _Right;

	mov	BYTE PTR $T54[ebp], 0
; File c:\program files (x86)\microsoft visual studio 14.0\vc\include\xstring

; 1182 : 		return (assign(_Ptr, _Traits::length(_Ptr)));

	call	?assign@?$basic_string@DU?$char_traits@D@std@@V?$allocator@D@2@@std@@QAEAAV12@PBDI@Z ; std::basic_string<char,std::char_traits<char>,std::allocator<char> >::assign
; File e:\tool\c++incolude\jsoncpp-src-0.5.0\src\lib_json\json_writer.cpp

; 362  :          writeWithIndent( "[" );

	lea	eax, DWORD PTR $T54[ebp]
	mov	DWORD PTR __$EHRec$[ebp+8], 1
	push	eax
	mov	ecx, edi
	call	?writeWithIndent@StyledWriter@Json@@AAEXABV?$basic_string@DU?$char_traits@D@std@@V?$allocator@D@2@@std@@@Z ; Json::StyledWriter::writeWithIndent
	mov	DWORD PTR __$EHRec$[ebp+8], -1
; File c:\program files (x86)\microsoft visual studio 14.0\vc\include\xstring

; 2251 : 		else if (this->_BUF_SIZE <= this->_Myres())

	mov	eax, DWORD PTR $T54[ebp+20]
	cmp	eax, 16					; 00000010H
	jb	SHORT $LN358@writeArray

; 2252 : 			{	// copy any leftovers to small buffer and deallocate
; 2253 : 			pointer _Ptr = this->_Bx()._Ptr;
; 2254 : 			this->_Getal().destroy(_STD addressof(this->_Bx()._Ptr));
; 2255 : 			if (0 < _Newsize)
; 2256 : 				_Traits::copy(this->_Bx()._Buf,
; 2257 : 					_Unfancy(_Ptr), _Newsize);
; 2258 : 			this->_Getal().deallocate(_Ptr, this->_Myres() + 1);

	inc	eax
	push	eax
	push	DWORD PTR $T54[ebp]
	call	?deallocate@?$_Wrap_alloc@V?$allocator@D@std@@@std@@QAEXPADI@Z ; std::_Wrap_alloc<std::allocator<char> >::deallocate
$LN358@writeArray:
; File e:\tool\c++incolude\jsoncpp-src-0.5.0\src\lib_json\json_writer.cpp

; 363  :          indent();

	mov	ecx, edi
	call	?indent@StyledWriter@Json@@AAEXXZ	; Json::StyledWriter::indent
; File c:\program files (x86)\microsoft visual studio 14.0\vc\include\vector

; 1190 : 		return (this->_Myfirst() == this->_Mylast());

	mov	eax, DWORD PTR [edi+4]
	mov	DWORD PTR tv2267[ebp], eax
	mov	eax, DWORD PTR [edi+8]
	mov	DWORD PTR tv2256[ebp], eax
; File e:\tool\c++incolude\jsoncpp-src-0.5.0\src\lib_json\json_writer.cpp

; 365  :          unsigned index =0;

	xor	eax, eax
	xor	esi, esi
	mov	DWORD PTR _index$1$[ebp], eax
	mov	DWORD PTR tv2238[ebp], esi
$LL2@writeArray:
; File e:\tool\c++incolude\jsoncpp-src-0.5.0\src\lib_json\json_value.cpp

; 999  :    if ( type_ == nullValue )

	mov	ecx, DWORD PTR _value$GSCopy$1$[ebp]
	cmp	BYTE PTR [ecx+8], 0
	jne	SHORT $LN475@writeArray

; 1000 :       return null;

	mov	ebx, OFFSET ?null@Value@Json@@2V12@B	; Json::Value::null
	jmp	SHORT $LN474@writeArray
$LN475@writeArray:

; 1001 : #ifndef JSON_VALUE_USE_INTERNAL_MAP
; 1002 :    CZString key( index );
; 1003 :    ObjectValues::const_iterator it = value_.map_->find( key );

	mov	esi, DWORD PTR [ecx]
	mov	ecx, esi

; 176  :    , index_( index )

	mov	DWORD PTR _key$221[ebp+4], eax

; 1003 :    ObjectValues::const_iterator it = value_.map_->find( key );

	lea	eax, DWORD PTR _key$221[ebp]
	push	eax
	lea	eax, DWORD PTR $T114[ebp]

; 175  :    : cstr_( 0 )

	mov	DWORD PTR _key$221[ebp], 0

; 1003 :    ObjectValues::const_iterator it = value_.map_->find( key );

	push	eax
	call	?find@?$_Tree@V?$_Tmap_traits@VCZString@Value@Json@@V23@U?$less@VCZString@Value@Json@@@std@@V?$allocator@U?$pair@$$CBVCZString@Value@Json@@V23@@std@@@5@$0A@@std@@@std@@QAE?AV?$_Tree_iterator@V?$_Tree_val@U?$_Tree_simple_types@U?$pair@$$CBVCZString@Value@Json@@V23@@std@@@std@@@std@@@2@ABVCZString@Value@Json@@@Z ; std::_Tree<std::_Tmap_traits<Json::Value::CZString,Json::Value,std::less<Json::Value::CZString>,std::allocator<std::pair<Json::Value::CZString const ,Json::Value> >,0> >::find
	mov	eax, DWORD PTR [eax]
; File c:\program files (x86)\microsoft visual studio 14.0\vc\include\xtree

; 336  : 		return (this->_Ptr == _Right._Ptr);

	cmp	eax, DWORD PTR [esi]
; File e:\tool\c++incolude\jsoncpp-src-0.5.0\src\lib_json\json_value.cpp

; 1004 :    if ( it == value_.map_->end() )

	jne	SHORT $LN476@writeArray

; 1005 :       return null;

	mov	ebx, OFFSET ?null@Value@Json@@2V12@B	; Json::Value::null
	jmp	SHORT $LN965@writeArray
$LN476@writeArray:

; 1006 :    return (*it).second;

	lea	ebx, DWORD PTR [eax+24]
$LN965@writeArray:
	mov	esi, DWORD PTR tv2238[ebp]

; 200  : }

	mov	DWORD PTR __$EHRec$[ebp+8], -1
$LN474@writeArray:
; File e:\tool\c++incolude\jsoncpp-src-0.5.0\src\lib_json\json_writer.cpp

; 369  :             writeCommentBeforeValue( childValue );

	push	ebx
	mov	ecx, edi
	call	?writeCommentBeforeValue@StyledWriter@Json@@AAEXABVValue@2@@Z ; Json::StyledWriter::writeCommentBeforeValue
	mov	eax, DWORD PTR tv2256[ebp]
	cmp	DWORD PTR tv2267[ebp], eax

; 370  :             if ( hasChildValue )

	je	SHORT $LN11@writeArray
; File c:\program files (x86)\microsoft visual studio 14.0\vc\include\vector

; 1242 : 		return (*(this->_Myfirst() + _Pos));

	mov	eax, DWORD PTR [edi+4]
	add	eax, esi
	cmp	DWORD PTR [edi+32], 0
; File c:\program files (x86)\microsoft visual studio 14.0\vc\include\xutility

; 320  : 		return (_Myval2);

	lea	esi, DWORD PTR [edi+16]
; File c:\program files (x86)\microsoft visual studio 14.0\vc\include\vector

; 1242 : 		return (*(this->_Myfirst() + _Pos));

	mov	DWORD PTR _value$1$[ebp], eax
; File e:\tool\c++incolude\jsoncpp-src-0.5.0\src\lib_json\json_writer.cpp

; 448  :    if ( !document_.empty() )

	je	SHORT $LN542@writeArray
; File c:\program files (x86)\microsoft visual studio 14.0\vc\include\xstring

; 514  : 		return (this->_BUF_SIZE <= _Myres

	cmp	DWORD PTR [esi+20], 16			; 00000010H

; 1760 : 		return (this->_Mysize());

	mov	ecx, DWORD PTR [edi+32]

; 514  : 		return (this->_BUF_SIZE <= _Myres

	jb	SHORT $LN580@writeArray
; File c:\program files (x86)\microsoft visual studio 14.0\vc\include\xstddef

; 740  : 	return (_Ptr);

	mov	eax, DWORD PTR [esi]
; File c:\program files (x86)\microsoft visual studio 14.0\vc\include\xstring

; 514  : 		return (this->_BUF_SIZE <= _Myres

	jmp	SHORT $LN581@writeArray
$LN580@writeArray:
	mov	eax, esi
$LN581@writeArray:
; File e:\tool\c++incolude\jsoncpp-src-0.5.0\src\lib_json\json_writer.cpp

; 450  :       char last = document_[document_.length()-1];

	mov	al, BYTE PTR [ecx+eax-1]

; 451  :       if ( last == ' ' )     // already indented

	cmp	al, 32					; 00000020H
	je	SHORT $LN539@writeArray

; 452  :          return;
; 453  :       if ( last != '\n' )    // Comments may add new-line

	cmp	al, 10					; 0000000aH
	je	SHORT $LN542@writeArray

; 454  :          document_ += '\n';

	push	10					; 0000000aH
	mov	ecx, esi
	call	??Y?$basic_string@DU?$char_traits@D@std@@V?$allocator@D@2@@std@@QAEAAV01@D@Z ; std::basic_string<char,std::char_traits<char>,std::allocator<char> >::operator+=
$LN542@writeArray:
; File c:\program files (x86)\microsoft visual studio 14.0\vc\include\xstring

; 1065 : 		return (append(_Right, 0, npos));

	push	-1
	push	0
; File e:\tool\c++incolude\jsoncpp-src-0.5.0\src\lib_json\json_writer.cpp

; 456  :    document_ += indentString_;

	lea	eax, DWORD PTR [edi+40]
; File c:\program files (x86)\microsoft visual studio 14.0\vc\include\xstring

; 1065 : 		return (append(_Right, 0, npos));

	mov	ecx, esi
	push	eax
	call	?append@?$basic_string@DU?$char_traits@D@std@@V?$allocator@D@2@@std@@QAEAAV12@ABV12@II@Z ; std::basic_string<char,std::char_traits<char>,std::allocator<char> >::append
$LN539@writeArray:
	push	-1
	push	0
	push	DWORD PTR _value$1$[ebp]
	mov	ecx, esi
	call	?append@?$basic_string@DU?$char_traits@D@std@@V?$allocator@D@2@@std@@QAEAAV12@ABV12@II@Z ; std::basic_string<char,std::char_traits<char>,std::allocator<char> >::append
; File e:\tool\c++incolude\jsoncpp-src-0.5.0\src\lib_json\json_writer.cpp

; 372  :             else

	jmp	SHORT $LN12@writeArray
$LN11@writeArray:
	cmp	DWORD PTR [edi+32], 0
; File c:\program files (x86)\microsoft visual studio 14.0\vc\include\xutility

; 320  : 		return (_Myval2);

	lea	esi, DWORD PTR [edi+16]
; File e:\tool\c++incolude\jsoncpp-src-0.5.0\src\lib_json\json_writer.cpp

; 448  :    if ( !document_.empty() )

	je	SHORT $LN595@writeArray
; File c:\program files (x86)\microsoft visual studio 14.0\vc\include\xstring

; 514  : 		return (this->_BUF_SIZE <= _Myres

	cmp	DWORD PTR [esi+20], 16			; 00000010H

; 1760 : 		return (this->_Mysize());

	mov	ecx, DWORD PTR [edi+32]

; 514  : 		return (this->_BUF_SIZE <= _Myres

	jb	SHORT $LN633@writeArray
; File c:\program files (x86)\microsoft visual studio 14.0\vc\include\xstddef

; 740  : 	return (_Ptr);

	mov	eax, DWORD PTR [esi]
; File c:\program files (x86)\microsoft visual studio 14.0\vc\include\xstring

; 514  : 		return (this->_BUF_SIZE <= _Myres

	jmp	SHORT $LN634@writeArray
$LN633@writeArray:
	mov	eax, esi
$LN634@writeArray:
; File e:\tool\c++incolude\jsoncpp-src-0.5.0\src\lib_json\json_writer.cpp

; 450  :       char last = document_[document_.length()-1];

	mov	al, BYTE PTR [ecx+eax-1]

; 451  :       if ( last == ' ' )     // already indented

	cmp	al, 32					; 00000020H
	je	SHORT $LN592@writeArray

; 452  :          return;
; 453  :       if ( last != '\n' )    // Comments may add new-line

	cmp	al, 10					; 0000000aH
	je	SHORT $LN595@writeArray

; 454  :          document_ += '\n';

	push	10					; 0000000aH
	mov	ecx, esi
	call	??Y?$basic_string@DU?$char_traits@D@std@@V?$allocator@D@2@@std@@QAEAAV01@D@Z ; std::basic_string<char,std::char_traits<char>,std::allocator<char> >::operator+=
$LN595@writeArray:
; File c:\program files (x86)\microsoft visual studio 14.0\vc\include\xstring

; 1065 : 		return (append(_Right, 0, npos));

	push	-1
	push	0
; File e:\tool\c++incolude\jsoncpp-src-0.5.0\src\lib_json\json_writer.cpp

; 456  :    document_ += indentString_;

	lea	eax, DWORD PTR [edi+40]
; File c:\program files (x86)\microsoft visual studio 14.0\vc\include\xstring

; 1065 : 		return (append(_Right, 0, npos));

	mov	ecx, esi
	push	eax
	call	?append@?$basic_string@DU?$char_traits@D@std@@V?$allocator@D@2@@std@@QAEAAV12@ABV12@II@Z ; std::basic_string<char,std::char_traits<char>,std::allocator<char> >::append
$LN592@writeArray:
; File e:\tool\c++incolude\jsoncpp-src-0.5.0\src\lib_json\json_writer.cpp

; 375  :                writeValue( childValue );

	push	ebx
	mov	ecx, edi
	call	?writeValue@StyledWriter@Json@@AAEXABVValue@2@@Z ; Json::StyledWriter::writeValue
$LN12@writeArray:

; 376  :             }
; 377  :             if ( ++index == size )

	mov	eax, DWORD PTR _index$1$[ebp]
	add	DWORD PTR tv2238[ebp], 24		; 00000018H
	inc	eax
	mov	DWORD PTR _index$1$[ebp], eax
	cmp	eax, DWORD PTR _size$1$[ebp]
	je	SHORT $LN958@writeArray
; File c:\program files (x86)\microsoft visual studio 14.0\vc\include\xstring

; 1107 : 		return (append(_Ptr, _Traits::length(_Ptr)));

	push	1
	push	OFFSET ??_C@_01IHBHIGKO@?0?$AA@
	mov	ecx, esi
	call	?append@?$basic_string@DU?$char_traits@D@std@@V?$allocator@D@2@@std@@QAEAAV12@PBDI@Z ; std::basic_string<char,std::char_traits<char>,std::allocator<char> >::append
; File e:\tool\c++incolude\jsoncpp-src-0.5.0\src\lib_json\json_writer.cpp

; 383  :             writeCommentAfterValueOnSameLine( childValue );

	push	ebx
	mov	ecx, edi
	call	?writeCommentAfterValueOnSameLine@StyledWriter@Json@@AAEXABVValue@2@@Z ; Json::StyledWriter::writeCommentAfterValueOnSameLine

; 384  :          }

	mov	eax, DWORD PTR _index$1$[ebp]
	mov	esi, DWORD PTR tv2238[ebp]
	jmp	$LL2@writeArray
$LN958@writeArray:

; 378  :             {
; 379  :                writeCommentAfterValueOnSameLine( childValue );

	push	ebx
	mov	ecx, edi
	call	?writeCommentAfterValueOnSameLine@StyledWriter@Json@@AAEXABVValue@2@@Z ; Json::StyledWriter::writeCommentAfterValueOnSameLine
; File c:\program files (x86)\microsoft visual studio 14.0\vc\include\xstring

; 1765 : 		return (this->_Mysize());

	mov	eax, DWORD PTR [edi+56]
; File e:\tool\c++incolude\jsoncpp-src-0.5.0\src\lib_json\json_writer.cpp

; 479  :    indentString_.resize( indentString_.size() - indentSize_ );

	lea	ecx, DWORD PTR [edi+40]
	sub	eax, DWORD PTR [edi+68]
; File c:\program files (x86)\microsoft visual studio 14.0\vc\include\xstring

; 1781 : 		if (_Newsize <= this->_Mysize())

	mov	edx, DWORD PTR [ecx+16]
	cmp	eax, edx
	ja	SHORT $LN666@writeArray

; 514  : 		return (this->_BUF_SIZE <= _Myres

	cmp	DWORD PTR [ecx+20], 16			; 00000010H

; 2219 : 		_Traits::assign(_Dx._Myptr()[_Dx._Mysize = _Newsize], _Elem());

	mov	DWORD PTR [ecx+16], eax

; 514  : 		return (this->_BUF_SIZE <= _Myres

	jb	SHORT $LN689@writeArray
; File c:\program files (x86)\microsoft visual studio 14.0\vc\include\xstddef

; 740  : 	return (_Ptr);

	mov	ecx, DWORD PTR [ecx]
$LN689@writeArray:
; File c:\program files (x86)\microsoft visual studio 14.0\vc\include\iosfwd

; 565  : 		_Left = _Right;

	mov	BYTE PTR [eax+ecx], 0
; File c:\program files (x86)\microsoft visual studio 14.0\vc\include\xstring

; 1783 : 		else

	jmp	SHORT $LN667@writeArray
$LN666@writeArray:

; 1784 : 			append(_Newsize - this->_Mysize(), _Ch);

	push	0
	sub	eax, edx
	push	eax
	call	?append@?$basic_string@DU?$char_traits@D@std@@V?$allocator@D@2@@std@@QAEAAV12@ID@Z ; std::basic_string<char,std::char_traits<char>,std::allocator<char> >::append
$LN667@writeArray:

; 1182 : 		return (assign(_Ptr, _Traits::length(_Ptr)));

	push	1
	push	OFFSET ??_C@_01LBDDMOBJ@?$FN?$AA@
	lea	ecx, DWORD PTR $T164[ebp]

; 2260 : 		this->_Myres() = this->_BUF_SIZE - 1;

	mov	DWORD PTR $T164[ebp+20], 15		; 0000000fH

; 2219 : 		_Traits::assign(_Dx._Myptr()[_Dx._Mysize = _Newsize], _Elem());

	mov	DWORD PTR $T164[ebp+16], 0
; File c:\program files (x86)\microsoft visual studio 14.0\vc\include\iosfwd

; 565  : 		_Left = _Right;

	mov	BYTE PTR $T164[ebp], 0
; File c:\program files (x86)\microsoft visual studio 14.0\vc\include\xstring

; 1182 : 		return (assign(_Ptr, _Traits::length(_Ptr)));

	call	?assign@?$basic_string@DU?$char_traits@D@std@@V?$allocator@D@2@@std@@QAEAAV12@PBDI@Z ; std::basic_string<char,std::char_traits<char>,std::allocator<char> >::assign
; File e:\tool\c++incolude\jsoncpp-src-0.5.0\src\lib_json\json_writer.cpp

; 386  :          writeWithIndent( "]" );

	lea	eax, DWORD PTR $T164[ebp]
	mov	DWORD PTR __$EHRec$[ebp+8], 4
	push	eax
	mov	ecx, edi
	call	?writeWithIndent@StyledWriter@Json@@AAEXABV?$basic_string@DU?$char_traits@D@std@@V?$allocator@D@2@@std@@@Z ; Json::StyledWriter::writeWithIndent
; File c:\program files (x86)\microsoft visual studio 14.0\vc\include\xstring

; 2251 : 		else if (this->_BUF_SIZE <= this->_Myres())

	mov	eax, DWORD PTR $T164[ebp+20]
	cmp	eax, 16					; 00000010H
	jb	SHORT $LN10@writeArray

; 2252 : 			{	// copy any leftovers to small buffer and deallocate
; 2253 : 			pointer _Ptr = this->_Bx()._Ptr;
; 2254 : 			this->_Getal().destroy(_STD addressof(this->_Bx()._Ptr));
; 2255 : 			if (0 < _Newsize)
; 2256 : 				_Traits::copy(this->_Bx()._Buf,
; 2257 : 					_Unfancy(_Ptr), _Newsize);
; 2258 : 			this->_Getal().deallocate(_Ptr, this->_Myres() + 1);

	inc	eax
	push	eax
	push	DWORD PTR $T164[ebp]
	call	?deallocate@?$_Wrap_alloc@V?$allocator@D@std@@@std@@QAEXPADI@Z ; std::_Wrap_alloc<std::allocator<char> >::deallocate
; File e:\tool\c++incolude\jsoncpp-src-0.5.0\src\lib_json\json_writer.cpp

; 388  :       else // output on a single line

	jmp	SHORT $LN10@writeArray
$LN923@writeArray:

; 391  :          document_ += "[ ";

	lea	eax, DWORD PTR [edi+16]
; File c:\program files (x86)\microsoft visual studio 14.0\vc\include\xstring

; 1107 : 		return (append(_Ptr, _Traits::length(_Ptr)));

	push	2
	push	OFFSET ??_C@_02PFNDMDBO@?$FL?5?$AA@
	mov	ecx, eax
; File e:\tool\c++incolude\jsoncpp-src-0.5.0\src\lib_json\json_writer.cpp

; 391  :          document_ += "[ ";

	mov	DWORD PTR tv2249[ebp], eax
; File c:\program files (x86)\microsoft visual studio 14.0\vc\include\xstring

; 1107 : 		return (append(_Ptr, _Traits::length(_Ptr)));

	call	?append@?$basic_string@DU?$char_traits@D@std@@V?$allocator@D@2@@std@@QAEAAV12@PBDI@Z ; std::basic_string<char,std::char_traits<char>,std::allocator<char> >::append
; File e:\tool\c++incolude\jsoncpp-src-0.5.0\src\lib_json\json_writer.cpp

; 392  :          for ( unsigned index =0; index < size; ++index )

	xor	esi, esi
	test	ebx, ebx
	je	SHORT $LN954@writeArray
; File c:\program files (x86)\microsoft visual studio 14.0\vc\include\xstring

; 1107 : 		return (append(_Ptr, _Traits::length(_Ptr)));

	xor	ebx, ebx
	npad	6
$LL6@writeArray:
; File e:\tool\c++incolude\jsoncpp-src-0.5.0\src\lib_json\json_writer.cpp

; 394  :             if ( index > 0 )

	test	esi, esi
	je	SHORT $LN14@writeArray
; File c:\program files (x86)\microsoft visual studio 14.0\vc\include\xstring

; 1107 : 		return (append(_Ptr, _Traits::length(_Ptr)));

	push	2
	push	OFFSET ??_C@_02KEGNLNML@?0?5?$AA@
	lea	ecx, DWORD PTR [edi+16]
	call	?append@?$basic_string@DU?$char_traits@D@std@@V?$allocator@D@2@@std@@QAEAAV12@PBDI@Z ; std::basic_string<char,std::char_traits<char>,std::allocator<char> >::append
$LN14@writeArray:
; File c:\program files (x86)\microsoft visual studio 14.0\vc\include\vector

; 1242 : 		return (*(this->_Myfirst() + _Pos));

	mov	eax, DWORD PTR [edi+4]
; File c:\program files (x86)\microsoft visual studio 14.0\vc\include\xstring

; 1065 : 		return (append(_Right, 0, npos));

	lea	ecx, DWORD PTR [edi+16]
	push	-1
	push	0
; File c:\program files (x86)\microsoft visual studio 14.0\vc\include\vector

; 1242 : 		return (*(this->_Myfirst() + _Pos));

	add	eax, ebx
; File c:\program files (x86)\microsoft visual studio 14.0\vc\include\xstring

; 1065 : 		return (append(_Right, 0, npos));

	push	eax
	call	?append@?$basic_string@DU?$char_traits@D@std@@V?$allocator@D@2@@std@@QAEAAV12@ABV12@II@Z ; std::basic_string<char,std::char_traits<char>,std::allocator<char> >::append
; File e:\tool\c++incolude\jsoncpp-src-0.5.0\src\lib_json\json_writer.cpp

; 392  :          for ( unsigned index =0; index < size; ++index )

	inc	esi
	add	ebx, 24					; 00000018H
	cmp	esi, DWORD PTR _size$1$[ebp]
	jb	SHORT $LL6@writeArray
$LN954@writeArray:
; File c:\program files (x86)\microsoft visual studio 14.0\vc\include\xstring

; 1107 : 		return (append(_Ptr, _Traits::length(_Ptr)));

	mov	ecx, DWORD PTR tv2249[ebp]
	push	2
	push	OFFSET ??_C@_02DHOGEDBE@?5?$FN?$AA@
	call	?append@?$basic_string@DU?$char_traits@D@std@@V?$allocator@D@2@@std@@QAEAAV12@PBDI@Z ; std::basic_string<char,std::char_traits<char>,std::allocator<char> >::append
$LN10@writeArray:
; File e:\tool\c++incolude\jsoncpp-src-0.5.0\src\lib_json\json_writer.cpp

; 401  : }

	mov	ecx, DWORD PTR __$EHRec$[ebp]
	mov	DWORD PTR fs:0, ecx
	pop	ecx
	pop	edi
	pop	esi
	pop	ebx
	mov	ecx, DWORD PTR __$ArrayPad$[ebp]
	xor	ecx, ebp
	call	@__security_check_cookie@4
	mov	esp, ebp
	pop	ebp
	ret	4
_TEXT	ENDS
;	COMDAT text$x
text$x	SEGMENT
__unwindfunclet$?writeArrayValue@StyledWriter@Json@@AAEXABVValue@2@@Z$0:
	lea	ecx, DWORD PTR $T1[ebp]
	jmp	??1?$basic_string@DU?$char_traits@D@std@@V?$allocator@D@2@@std@@QAE@XZ ; std::basic_string<char,std::char_traits<char>,std::allocator<char> >::~basic_string<char,std::char_traits<char>,std::allocator<char> >
__unwindfunclet$?writeArrayValue@StyledWriter@Json@@AAEXABVValue@2@@Z$1:
	lea	ecx, DWORD PTR $T54[ebp]
	jmp	??1?$basic_string@DU?$char_traits@D@std@@V?$allocator@D@2@@std@@QAE@XZ ; std::basic_string<char,std::char_traits<char>,std::allocator<char> >::~basic_string<char,std::char_traits<char>,std::allocator<char> >
__unwindfunclet$?writeArrayValue@StyledWriter@Json@@AAEXABVValue@2@@Z$124:
	call	DWORD PTR __imp____std_terminate
	ret	0
__unwindfunclet$?writeArrayValue@StyledWriter@Json@@AAEXABVValue@2@@Z$125:
	call	DWORD PTR __imp____std_terminate
	ret	0
__unwindfunclet$?writeArrayValue@StyledWriter@Json@@AAEXABVValue@2@@Z$2:
	lea	ecx, DWORD PTR $T164[ebp]
	jmp	??1?$basic_string@DU?$char_traits@D@std@@V?$allocator@D@2@@std@@QAE@XZ ; std::basic_string<char,std::char_traits<char>,std::allocator<char> >::~basic_string<char,std::char_traits<char>,std::allocator<char> >
__ehhandler$?writeArrayValue@StyledWriter@Json@@AAEXABVValue@2@@Z:
	mov	edx, DWORD PTR [esp+8]
	lea	eax, DWORD PTR [edx+12]
	mov	ecx, DWORD PTR [edx-108]
	xor	ecx, eax
	call	@__security_check_cookie@4
	mov	ecx, DWORD PTR [edx-4]
	xor	ecx, eax
	call	@__security_check_cookie@4
	mov	eax, OFFSET __ehfuncinfo$?writeArrayValue@StyledWriter@Json@@AAEXABVValue@2@@Z
	jmp	___CxxFrameHandler3
text$x	ENDS
?writeArrayValue@StyledWriter@Json@@AAEXABVValue@2@@Z ENDP ; Json::StyledWriter::writeArrayValue
; Function compile flags: /Ogtp
; File e:\tool\c++incolude\jsoncpp-src-0.5.0\src\lib_json\json_writer.cpp
; File c:\program files (x86)\microsoft visual studio 14.0\vc\include\xmemory0
; File e:\tool\c++incolude\jsoncpp-src-0.5.0\src\lib_json\json_writer.cpp
; File c:\program files (x86)\microsoft visual studio 14.0\vc\include\xmemory0
; File e:\tool\c++incolude\jsoncpp-src-0.5.0\src\lib_json\json_writer.cpp
; File c:\program files (x86)\microsoft visual studio 14.0\vc\include\xmemory0
; File e:\tool\c++incolude\jsoncpp-src-0.5.0\src\lib_json\json_writer.cpp
; File c:\program files (x86)\microsoft visual studio 14.0\vc\include\xmemory0
; File c:\program files (x86)\microsoft visual studio 14.0\vc\include\vector
; File c:\program files (x86)\microsoft visual studio 14.0\vc\include\xmemory0
; File c:\program files (x86)\microsoft visual studio 14.0\vc\include\vector
; File e:\tool\c++incolude\jsoncpp-src-0.5.0\src\lib_json\json_writer.cpp
; File e:\tool\c++incolude\jsoncpp-src-0.5.0\src\lib_json\json_value.cpp
; File c:\program files (x86)\microsoft visual studio 14.0\vc\include\xtree
; File e:\tool\c++incolude\jsoncpp-src-0.5.0\src\lib_json\json_value.cpp
; File e:\tool\c++incolude\jsoncpp-src-0.5.0\src\lib_json\json_writer.cpp
; File c:\program files (x86)\microsoft visual studio 14.0\vc\include\vector
; File e:\tool\c++incolude\jsoncpp-src-0.5.0\src\lib_json\json_writer.cpp
; File e:\tool\c++incolude\jsoncpp-src-0.5.0\src\lib_json\json_value.cpp
; File c:\program files (x86)\microsoft visual studio 14.0\vc\include\xtree
; File e:\tool\c++incolude\jsoncpp-src-0.5.0\src\lib_json\json_value.cpp
; File e:\tool\c++incolude\jsoncpp-src-0.5.0\src\lib_json\json_writer.cpp
; File c:\program files (x86)\microsoft visual studio 14.0\vc\include\vector
; File e:\tool\c++incolude\jsoncpp-src-0.5.0\src\lib_json\json_writer.cpp
; File c:\program files (x86)\microsoft visual studio 14.0\vc\include\vector
; File e:\tool\c++incolude\jsoncpp-src-0.5.0\src\lib_json\json_writer.cpp
;	COMDAT ?isMultineArray@StyledWriter@Json@@AAE_NABVValue@2@@Z
_TEXT	SEGMENT
_key$75 = -44						; size = 8
_key$76 = -36						; size = 8
$T42 = -32						; size = 4
tv1055 = -28						; size = 4
$T16 = -28						; size = 4
_this$1$ = -24						; size = 4
_this$1$ = -20						; size = 4
_lineLength$1$ = -16					; size = 4
_size$1$ = -16						; size = 4
__$EHRec$ = -12						; size = 12
$T9 = 8							; size = 1
_value$ = 8						; size = 4
?isMultineArray@StyledWriter@Json@@AAE_NABVValue@2@@Z PROC ; Json::StyledWriter::isMultineArray, COMDAT
; _this$ = ecx

; 406  : {

	push	ebp
	mov	ebp, esp
	push	-1
	push	__ehhandler$?isMultineArray@StyledWriter@Json@@AAE_NABVValue@2@@Z
	mov	eax, DWORD PTR fs:0
	push	eax
	sub	esp, 32					; 00000020H
	push	ebx
	push	esi
	push	edi
	mov	eax, DWORD PTR ___security_cookie
	xor	eax, ebp
	push	eax
	lea	eax, DWORD PTR __$EHRec$[ebp]
	mov	DWORD PTR fs:0, eax
	mov	edi, ecx
	mov	DWORD PTR _this$1$[ebp], edi

; 407  :    int size = value.size();

	mov	esi, DWORD PTR _value$[ebp]
	mov	ecx, esi
	call	?size@Value@Json@@QBEIXZ		; Json::Value::size
; File c:\program files (x86)\microsoft visual studio 14.0\vc\include\xmemory0

; 1118 : 	_Destroy_range1(_First, _Last, _Al, typename conjunction<

	push	DWORD PTR $T9[ebp]
; File e:\tool\c++incolude\jsoncpp-src-0.5.0\src\lib_json\json_writer.cpp

; 407  :    int size = value.size();

	mov	DWORD PTR _size$1$[ebp], eax
; File c:\program files (x86)\microsoft visual studio 14.0\vc\include\xmemory0

; 1118 : 	_Destroy_range1(_First, _Last, _Al, typename conjunction<

	push	ecx
	mov	ecx, DWORD PTR [edi+4]
; File e:\tool\c++incolude\jsoncpp-src-0.5.0\src\lib_json\json_writer.cpp

; 408  :    bool isMultiLine = size*3 >= rightMargin_ ;

	lea	edx, DWORD PTR [eax+eax*2]
	cmp	edx, DWORD PTR [edi+64]
; File c:\program files (x86)\microsoft visual studio 14.0\vc\include\xmemory0

; 1118 : 	_Destroy_range1(_First, _Last, _Al, typename conjunction<

	mov	edx, DWORD PTR [edi+8]
; File e:\tool\c++incolude\jsoncpp-src-0.5.0\src\lib_json\json_writer.cpp

; 408  :    bool isMultiLine = size*3 >= rightMargin_ ;

	setge	bl

; 409  :    childValues_.clear();

	add	edi, 4
	mov	DWORD PTR _this$1$[ebp], edi
; File c:\program files (x86)\microsoft visual studio 14.0\vc\include\xmemory0

; 1118 : 	_Destroy_range1(_First, _Last, _Al, typename conjunction<

	call	??$_Destroy_range1@V?$allocator@V?$basic_string@DU?$char_traits@D@std@@V?$allocator@D@2@@std@@@std@@PAV?$basic_string@DU?$char_traits@D@std@@V?$allocator@D@2@@2@@std@@YAXPAV?$basic_string@DU?$char_traits@D@std@@V?$allocator@D@2@@0@0AAU?$_Wrap_alloc@V?$allocator@V?$basic_string@DU?$char_traits@D@std@@V?$allocator@D@2@@std@@@std@@@0@U?$integral_constant@_N$0A@@0@@Z ; std::_Destroy_range1<std::allocator<std::basic_string<char,std::char_traits<char>,std::allocator<char> > >,std::basic_string<char,std::char_traits<char>,std::allocator<char> > *>
; File c:\program files (x86)\microsoft visual studio 14.0\vc\include\vector

; 1542 : 		this->_Mylast() = this->_Myfirst();

	mov	eax, DWORD PTR [edi]
; File c:\program files (x86)\microsoft visual studio 14.0\vc\include\xmemory0

; 1118 : 	_Destroy_range1(_First, _Last, _Al, typename conjunction<

	add	esp, 8
; File c:\program files (x86)\microsoft visual studio 14.0\vc\include\vector

; 1542 : 		this->_Mylast() = this->_Myfirst();

	mov	DWORD PTR [edi+4], eax
; File e:\tool\c++incolude\jsoncpp-src-0.5.0\src\lib_json\json_writer.cpp

; 410  :    for ( int index =0; index < size  &&  !isMultiLine; ++index )

	xor	edi, edi
	cmp	DWORD PTR _size$1$[ebp], edi
	jle	SHORT $LN3@isMultineA
$LL4@isMultineA:
	test	bl, bl
	jne	$LN16@isMultineA
; File e:\tool\c++incolude\jsoncpp-src-0.5.0\src\lib_json\json_value.cpp

; 999  :    if ( type_ == nullValue )

	cmp	BYTE PTR [esi+8], bl
	jne	SHORT $LN68@isMultineA

; 1000 :       return null;

	mov	ecx, OFFSET ?null@Value@Json@@2V12@B	; Json::Value::null
	jmp	SHORT $LN325@isMultineA
$LN68@isMultineA:

; 1001 : #ifndef JSON_VALUE_USE_INTERNAL_MAP
; 1002 :    CZString key( index );
; 1003 :    ObjectValues::const_iterator it = value_.map_->find( key );

	mov	esi, DWORD PTR [esi]
	lea	eax, DWORD PTR _key$76[ebp]
	push	eax
	lea	eax, DWORD PTR $T16[ebp]

; 175  :    : cstr_( 0 )

	mov	DWORD PTR _key$76[ebp], 0

; 1003 :    ObjectValues::const_iterator it = value_.map_->find( key );

	push	eax
	mov	ecx, esi

; 176  :    , index_( index )

	mov	DWORD PTR _key$76[ebp+4], edi

; 1003 :    ObjectValues::const_iterator it = value_.map_->find( key );

	call	?find@?$_Tree@V?$_Tmap_traits@VCZString@Value@Json@@V23@U?$less@VCZString@Value@Json@@@std@@V?$allocator@U?$pair@$$CBVCZString@Value@Json@@V23@@std@@@5@$0A@@std@@@std@@QAE?AV?$_Tree_iterator@V?$_Tree_val@U?$_Tree_simple_types@U?$pair@$$CBVCZString@Value@Json@@V23@@std@@@std@@@std@@@2@ABVCZString@Value@Json@@@Z ; std::_Tree<std::_Tmap_traits<Json::Value::CZString,Json::Value,std::less<Json::Value::CZString>,std::allocator<std::pair<Json::Value::CZString const ,Json::Value> >,0> >::find
	mov	eax, DWORD PTR [eax]
; File c:\program files (x86)\microsoft visual studio 14.0\vc\include\xtree

; 336  : 		return (this->_Ptr == _Right._Ptr);

	cmp	eax, DWORD PTR [esi]
; File e:\tool\c++incolude\jsoncpp-src-0.5.0\src\lib_json\json_value.cpp

; 1004 :    if ( it == value_.map_->end() )

	jne	SHORT $LN69@isMultineA

; 1005 :       return null;

	mov	ecx, OFFSET ?null@Value@Json@@2V12@B	; Json::Value::null
	jmp	SHORT $LN329@isMultineA
$LN69@isMultineA:

; 1006 :    return (*it).second;

	lea	ecx, DWORD PTR [eax+24]
$LN329@isMultineA:

; 200  : }

	mov	DWORD PTR __$EHRec$[ebp+8], -1
	mov	esi, DWORD PTR _value$[ebp]
$LN325@isMultineA:

; 1315 :    return type_ == nullValue  ||  type_ == arrayValue;

	mov	al, BYTE PTR [ecx+8]
	test	al, al
	je	SHORT $LN125@isMultineA
	cmp	al, 6
	je	SHORT $LN125@isMultineA

; 1322 :    return type_ == nullValue  ||  type_ == objectValue;

	cmp	al, 7
	jne	SHORT $LN11@isMultineA
$LN125@isMultineA:
; File e:\tool\c++incolude\jsoncpp-src-0.5.0\src\lib_json\json_writer.cpp

; 413  :       isMultiLine = isMultiLine  ||

	call	?size@Value@Json@@QBEIXZ		; Json::Value::size
	test	eax, eax
	jne	SHORT $LN12@isMultineA
$LN11@isMultineA:
	xor	bl, bl
	jmp	SHORT $LN13@isMultineA
$LN12@isMultineA:
	mov	bl, 1
$LN13@isMultineA:

; 410  :    for ( int index =0; index < size  &&  !isMultiLine; ++index )

	inc	edi
	cmp	edi, DWORD PTR _size$1$[ebp]
	jl	SHORT $LL4@isMultineA
$LN3@isMultineA:

; 414  :                      ( (childValue.isArray()  ||  childValue.isObject())  &&  
; 415  :                         childValue.size() > 0 );
; 416  :    }
; 417  :    if ( !isMultiLine ) // check if line length > max line length

	test	bl, bl
	jne	$LN16@isMultineA
; File c:\program files (x86)\microsoft visual studio 14.0\vc\include\vector

; 1043 : 		return (this->_Myend() - this->_Myfirst());

	mov	edi, DWORD PTR _this$1$[ebp]
	mov	eax, 715827883				; 2aaaaaabH

; 1033 : 		if (capacity() < _Count)

	mov	ebx, DWORD PTR _size$1$[ebp]

; 1043 : 		return (this->_Myend() - this->_Myfirst());

	mov	ecx, DWORD PTR [edi+8]
	sub	ecx, DWORD PTR [edi]
	imul	ecx
	sar	edx, 2
	mov	eax, edx
	shr	eax, 31					; 0000001fH
	add	eax, edx

; 1033 : 		if (capacity() < _Count)

	cmp	eax, ebx
	jae	SHORT $LN128@isMultineA

; 1034 : 			{	// something to do, check and reallocate
; 1035 : 			if (max_size() < _Count)

	cmp	ebx, 178956970				; 0aaaaaaaH
	jbe	SHORT $LN129@isMultineA

; 1765 : 		_Xlength_error("vector<T> too long");

	push	OFFSET ??_C@_0BD@OLBABOEK@vector?$DMT?$DO?5too?5long?$AA@
	call	DWORD PTR __imp_?_Xlength_error@std@@YAXPBD@Z
$LN331@isMultineA:
$LN129@isMultineA:

; 1037 : 			_Reallocate(_Count);

	push	ebx
	mov	ecx, edi
	call	?_Reallocate@?$vector@V?$basic_string@DU?$char_traits@D@std@@V?$allocator@D@2@@std@@V?$allocator@V?$basic_string@DU?$char_traits@D@std@@V?$allocator@D@2@@std@@@2@@std@@IAEXI@Z ; std::vector<std::basic_string<char,std::char_traits<char>,std::allocator<char> >,std::allocator<std::basic_string<char,std::char_traits<char>,std::allocator<char> > > >::_Reallocate
$LN128@isMultineA:
; File e:\tool\c++incolude\jsoncpp-src-0.5.0\src\lib_json\json_writer.cpp

; 420  :       addChildValues_ = true;

	mov	eax, DWORD PTR _this$1$[ebp]

; 421  :       int lineLength = 4 + (size-1)*2; // '[ ' + ', '*n + ' ]'

	lea	edx, DWORD PTR [ebx*2+2]

; 422  :       for ( int index =0; index < size  &&  !isMultiLine; ++index )

	xor	edi, edi
	mov	DWORD PTR _lineLength$1$[ebp], edx
	mov	BYTE PTR [eax+72], 1
	test	ebx, ebx
	jle	SHORT $LN6@isMultineA

; 420  :       addChildValues_ = true;

	mov	DWORD PTR tv1055[ebp], edi
$LL7@isMultineA:
; File e:\tool\c++incolude\jsoncpp-src-0.5.0\src\lib_json\json_value.cpp

; 999  :    if ( type_ == nullValue )

	cmp	BYTE PTR [esi+8], 0
	jne	SHORT $LN175@isMultineA

; 1000 :       return null;

	mov	eax, OFFSET ?null@Value@Json@@2V12@B	; Json::Value::null
	jmp	SHORT $LN174@isMultineA
$LN175@isMultineA:

; 1001 : #ifndef JSON_VALUE_USE_INTERNAL_MAP
; 1002 :    CZString key( index );
; 1003 :    ObjectValues::const_iterator it = value_.map_->find( key );

	mov	esi, DWORD PTR [esi]
	lea	eax, DWORD PTR _key$75[ebp]
	push	eax
	lea	eax, DWORD PTR $T42[ebp]

; 175  :    : cstr_( 0 )

	mov	DWORD PTR _key$75[ebp], 0

; 1003 :    ObjectValues::const_iterator it = value_.map_->find( key );

	push	eax
	mov	ecx, esi

; 176  :    , index_( index )

	mov	DWORD PTR _key$75[ebp+4], edi

; 1003 :    ObjectValues::const_iterator it = value_.map_->find( key );

	call	?find@?$_Tree@V?$_Tmap_traits@VCZString@Value@Json@@V23@U?$less@VCZString@Value@Json@@@std@@V?$allocator@U?$pair@$$CBVCZString@Value@Json@@V23@@std@@@5@$0A@@std@@@std@@QAE?AV?$_Tree_iterator@V?$_Tree_val@U?$_Tree_simple_types@U?$pair@$$CBVCZString@Value@Json@@V23@@std@@@std@@@std@@@2@ABVCZString@Value@Json@@@Z ; std::_Tree<std::_Tmap_traits<Json::Value::CZString,Json::Value,std::less<Json::Value::CZString>,std::allocator<std::pair<Json::Value::CZString const ,Json::Value> >,0> >::find
	mov	eax, DWORD PTR [eax]
; File c:\program files (x86)\microsoft visual studio 14.0\vc\include\xtree

; 336  : 		return (this->_Ptr == _Right._Ptr);

	cmp	eax, DWORD PTR [esi]
; File e:\tool\c++incolude\jsoncpp-src-0.5.0\src\lib_json\json_value.cpp

; 1004 :    if ( it == value_.map_->end() )

	jne	SHORT $LN176@isMultineA

; 1005 :       return null;

	mov	eax, OFFSET ?null@Value@Json@@2V12@B	; Json::Value::null
	jmp	SHORT $LN330@isMultineA
$LN176@isMultineA:

; 1006 :    return (*it).second;

	add	eax, 24					; 00000018H
$LN330@isMultineA:

; 200  : }

	mov	DWORD PTR __$EHRec$[ebp+8], -1
	mov	esi, DWORD PTR _value$[ebp]
$LN174@isMultineA:
; File e:\tool\c++incolude\jsoncpp-src-0.5.0\src\lib_json\json_writer.cpp

; 424  :          writeValue( value[index] );

	mov	ecx, DWORD PTR _this$1$[ebp]
	push	eax
	call	?writeValue@StyledWriter@Json@@AAEXABVValue@2@@Z ; Json::StyledWriter::writeValue
; File c:\program files (x86)\microsoft visual studio 14.0\vc\include\vector

; 1242 : 		return (*(this->_Myfirst() + _Pos));

	mov	ecx, DWORD PTR _this$1$[ebp]
; File e:\tool\c++incolude\jsoncpp-src-0.5.0\src\lib_json\json_writer.cpp

; 422  :       for ( int index =0; index < size  &&  !isMultiLine; ++index )

	inc	edi

; 425  :          lineLength += int( childValues_[index].length() );

	mov	edx, DWORD PTR _lineLength$1$[ebp]
; File c:\program files (x86)\microsoft visual studio 14.0\vc\include\vector

; 1242 : 		return (*(this->_Myfirst() + _Pos));

	mov	eax, DWORD PTR [ecx]
	mov	ecx, DWORD PTR tv1055[ebp]
; File e:\tool\c++incolude\jsoncpp-src-0.5.0\src\lib_json\json_writer.cpp

; 425  :          lineLength += int( childValues_[index].length() );

	add	edx, DWORD PTR [eax+ecx+16]
	add	ecx, 24					; 00000018H
	mov	DWORD PTR _lineLength$1$[ebp], edx
	mov	DWORD PTR tv1055[ebp], ecx
	cmp	edi, ebx
	jl	SHORT $LL7@isMultineA
	mov	eax, DWORD PTR _this$1$[ebp]
$LN6@isMultineA:

; 426  :          isMultiLine = isMultiLine  &&  hasCommentForValue( value[index] );
; 427  :       }
; 428  :       addChildValues_ = false;
; 429  :       isMultiLine = isMultiLine  ||  lineLength >= rightMargin_;

	cmp	edx, DWORD PTR [eax+64]
	mov	BYTE PTR [eax+72], 0
	setge	bl
$LN16@isMultineA:

; 430  :    }
; 431  :    return isMultiLine;

	mov	al, bl

; 432  : }

	mov	ecx, DWORD PTR __$EHRec$[ebp]
	mov	DWORD PTR fs:0, ecx
	pop	ecx
	pop	edi
	pop	esi
	pop	ebx
	mov	esp, ebp
	pop	ebp
	ret	4
$LN328@isMultineA:
_TEXT	ENDS
;	COMDAT text$x
text$x	SEGMENT
__unwindfunclet$?isMultineArray@StyledWriter@Json@@AAE_NABVValue@2@@Z$23:
	call	DWORD PTR __imp____std_terminate
	ret	0
__unwindfunclet$?isMultineArray@StyledWriter@Json@@AAE_NABVValue@2@@Z$24:
	call	DWORD PTR __imp____std_terminate
	ret	0
__unwindfunclet$?isMultineArray@StyledWriter@Json@@AAE_NABVValue@2@@Z$46:
	call	DWORD PTR __imp____std_terminate
	ret	0
__unwindfunclet$?isMultineArray@StyledWriter@Json@@AAE_NABVValue@2@@Z$47:
	call	DWORD PTR __imp____std_terminate
	ret	0
__ehhandler$?isMultineArray@StyledWriter@Json@@AAE_NABVValue@2@@Z:
	mov	edx, DWORD PTR [esp+8]
	lea	eax, DWORD PTR [edx+12]
	mov	ecx, DWORD PTR [edx-48]
	xor	ecx, eax
	call	@__security_check_cookie@4
	mov	eax, OFFSET __ehfuncinfo$?isMultineArray@StyledWriter@Json@@AAE_NABVValue@2@@Z
	jmp	___CxxFrameHandler3
text$x	ENDS
?isMultineArray@StyledWriter@Json@@AAE_NABVValue@2@@Z ENDP ; Json::StyledWriter::isMultineArray
; Function compile flags: /Ogtp
; File e:\tool\c++incolude\jsoncpp-src-0.5.0\src\lib_json\json_writer.cpp
; File c:\program files (x86)\microsoft visual studio 14.0\vc\include\xstring
; File e:\tool\c++incolude\jsoncpp-src-0.5.0\src\lib_json\json_writer.cpp
; File c:\program files (x86)\microsoft visual studio 14.0\vc\include\xstring
; File e:\tool\c++incolude\jsoncpp-src-0.5.0\src\lib_json\json_writer.cpp
;	COMDAT ?pushValue@StyledWriter@Json@@AAEXABV?$basic_string@DU?$char_traits@D@std@@V?$allocator@D@2@@std@@@Z
_TEXT	SEGMENT
_value$ = 8						; size = 4
?pushValue@StyledWriter@Json@@AAEXABV?$basic_string@DU?$char_traits@D@std@@V?$allocator@D@2@@std@@@Z PROC ; Json::StyledWriter::pushValue, COMDAT
; _this$ = ecx

; 437  : {

	push	ebp
	mov	ebp, esp

; 438  :    if ( addChildValues_ )

	cmp	BYTE PTR [ecx+72], 0
	je	SHORT $LN2@pushValue

; 439  :       childValues_.push_back( value );

	add	ecx, 4

; 442  : }

	pop	ebp

; 439  :       childValues_.push_back( value );

	jmp	?push_back@?$vector@V?$basic_string@DU?$char_traits@D@std@@V?$allocator@D@2@@std@@V?$allocator@V?$basic_string@DU?$char_traits@D@std@@V?$allocator@D@2@@std@@@2@@std@@QAEXABV?$basic_string@DU?$char_traits@D@std@@V?$allocator@D@2@@2@@Z ; std::vector<std::basic_string<char,std::char_traits<char>,std::allocator<char> >,std::allocator<std::basic_string<char,std::char_traits<char>,std::allocator<char> > > >::push_back
$LN2@pushValue:
; File c:\program files (x86)\microsoft visual studio 14.0\vc\include\xstring

; 1065 : 		return (append(_Right, 0, npos));

	push	-1
	push	0
	push	DWORD PTR _value$[ebp]
; File e:\tool\c++incolude\jsoncpp-src-0.5.0\src\lib_json\json_writer.cpp

; 441  :       document_ += value;

	add	ecx, 16					; 00000010H
; File c:\program files (x86)\microsoft visual studio 14.0\vc\include\xstring

; 1065 : 		return (append(_Right, 0, npos));

	call	?append@?$basic_string@DU?$char_traits@D@std@@V?$allocator@D@2@@std@@QAEAAV12@ABV12@II@Z ; std::basic_string<char,std::char_traits<char>,std::allocator<char> >::append
; File e:\tool\c++incolude\jsoncpp-src-0.5.0\src\lib_json\json_writer.cpp

; 442  : }

	pop	ebp
	ret	4
?pushValue@StyledWriter@Json@@AAEXABV?$basic_string@DU?$char_traits@D@std@@V?$allocator@D@2@@std@@@Z ENDP ; Json::StyledWriter::pushValue
_TEXT	ENDS
; Function compile flags: /Ogtp
; File e:\tool\c++incolude\jsoncpp-src-0.5.0\src\lib_json\json_writer.cpp
; File c:\program files (x86)\microsoft visual studio 14.0\vc\include\xstring
; File e:\tool\c++incolude\jsoncpp-src-0.5.0\src\lib_json\json_writer.cpp
; File c:\program files (x86)\microsoft visual studio 14.0\vc\include\xstring
; File c:\program files (x86)\microsoft visual studio 14.0\vc\include\xutility
; File c:\program files (x86)\microsoft visual studio 14.0\vc\include\xstring
; File c:\program files (x86)\microsoft visual studio 14.0\vc\include\xstddef
; File c:\program files (x86)\microsoft visual studio 14.0\vc\include\xstring
; File e:\tool\c++incolude\jsoncpp-src-0.5.0\src\lib_json\json_writer.cpp
; File c:\program files (x86)\microsoft visual studio 14.0\vc\include\xstring
; File e:\tool\c++incolude\jsoncpp-src-0.5.0\src\lib_json\json_writer.cpp
; File c:\program files (x86)\microsoft visual studio 14.0\vc\include\xstring
; File e:\tool\c++incolude\jsoncpp-src-0.5.0\src\lib_json\json_writer.cpp
;	COMDAT ?writeIndent@StyledWriter@Json@@AAEXXZ
_TEXT	SEGMENT
?writeIndent@StyledWriter@Json@@AAEXXZ PROC		; Json::StyledWriter::writeIndent, COMDAT
; _this$ = ecx

; 447  : {

	push	esi
	mov	esi, ecx
; File c:\program files (x86)\microsoft visual studio 14.0\vc\include\xstring

; 1804 : 		return (this->_Mysize() == 0);

	mov	eax, DWORD PTR [esi+32]
	test	eax, eax
; File e:\tool\c++incolude\jsoncpp-src-0.5.0\src\lib_json\json_writer.cpp

; 448  :    if ( !document_.empty() )

	je	SHORT $LN4@writeInden
; File c:\program files (x86)\microsoft visual studio 14.0\vc\include\xstring

; 514  : 		return (this->_BUF_SIZE <= _Myres

	cmp	DWORD PTR [esi+36], 16			; 00000010H
; File c:\program files (x86)\microsoft visual studio 14.0\vc\include\xutility

; 315  : 		return (_Myval2);

	lea	ecx, DWORD PTR [esi+16]
; File c:\program files (x86)\microsoft visual studio 14.0\vc\include\xstring

; 514  : 		return (this->_BUF_SIZE <= _Myres

	jb	SHORT $LN42@writeInden
; File c:\program files (x86)\microsoft visual studio 14.0\vc\include\xstddef

; 740  : 	return (_Ptr);

	mov	edx, DWORD PTR [ecx]
; File c:\program files (x86)\microsoft visual studio 14.0\vc\include\xstring

